LIBRARY shared/AttNotification416_vc9_rt
VERSION 1.6
EXPORTS
??0?$_CORBA_ObjRef_Element@V_objref_Interactive@AttNotification@@VInteractive_Helper@2@@@QAE@AAPAV_objref_Interactive@AttNotification@@_N@Z
??0?$_CORBA_ObjRef_OUT_arg@V_objref_Interactive@AttNotification@@VInteractive_Helper@2@@@QAE@AAPAV_objref_Interactive@AttNotification@@@Z
??0?$_CORBA_ObjRef_Var@V_objref_EventChannel@AttNotification@@VEventChannel_Helper@2@@@QAE@XZ
??0?$_CORBA_ObjRef_Var@V_objref_EventChannelFactory@AttNotification@@VEventChannelFactory_Helper@2@@@QAE@XZ
??0?$_CORBA_ObjRef_Var@V_objref_FilterFactory@AttNotification@@VFilterFactory_Helper@2@@@QAE@XZ
??0?$_CORBA_ObjRef_Var@V_objref_Interactive@AttNotification@@VInteractive_Helper@2@@@QAE@XZ
??0?$_CORBA_Sequence@UEventType@CosNotification@@@@IAE@XZ
??0?$_CORBA_Sequence@UProperty@CosNotification@@@@IAE@XZ
??0?$_CORBA_Sequence@UPropertyError@CosNotification@@@@IAE@XZ
??0?$_CORBA_Sequence_ObjRef@V_objref_Interactive@AttNotification@@V?$_CORBA_ObjRef_Element@V_objref_Interactive@AttNotification@@VInteractive_Helper@2@@@VInteractive_Helper@2@@@IAE@XZ
??0?$_CORBA_Unbounded_Sequence@UEventType@CosNotification@@@@QAE@XZ
??0?$_CORBA_Unbounded_Sequence@UProperty@CosNotification@@@@QAE@XZ
??0?$_CORBA_Unbounded_Sequence@UPropertyError@CosNotification@@@@QAE@XZ
??0?$_CORBA_Unbounded_Sequence_ObjRef@V_objref_Interactive@AttNotification@@V?$_CORBA_ObjRef_Element@V_objref_Interactive@AttNotification@@VInteractive_Helper@2@@@VInteractive_Helper@2@@@QAE@XZ
??0EventType@CosNotification@@QAE@XZ
??0EventTypeSeq@CosNotification@@QAE@XZ
??0EventTypeSeq_var@CosNotification@@QAE@XZ
??0Exception@CORBA@@IAE@XZ
??0Exception@CORBA@@QAE@ABV01@@Z
??0IactSeq@AttNotification@@QAE@XZ
??0IactSeq_var@AttNotification@@QAE@XZ
??0NameSeq@AttNotification@@QAE@XZ
??0NameSeq_var@AttNotification@@QAE@XZ
??0Object@CORBA@@QAE@XZ
??0Property@CosNotification@@QAE@XZ
??0PropertyError@CosNotification@@QAE@XZ
??0PropertyErrorSeq@CosNotification@@QAE@XZ
??0PropertyRange@CosNotification@@QAE@XZ
??0PropertySeq@CosNotification@@QAE@XZ
??0PropertySeq_var@CosNotification@@QAE@XZ
??0UnsupportedServerProp@AttNotification@@QAE@ABV01@@Z
??0UnsupportedServerProp@AttNotification@@QAE@VPropertyErrorSeq@CosNotification@@@Z
??0UnsupportedServerProp@AttNotification@@QAE@XZ
??0UserException@CORBA@@IAE@XZ
??0UserException@CORBA@@QAE@ABV01@@Z
??0_0RL_cd_F52CE7BA0E4ED8DC_00000000@@QAE@P6AXPAVomniCallDescriptor@@PAVomniServant@@@ZPBDI_N@Z
??0_0RL_cd_F52CE7BA0E4ED8DC_01000000@@QAE@P6AXPAVomniCallDescriptor@@PAVomniServant@@@ZPBDI_N@Z
??0_0RL_cd_F52CE7BA0E4ED8DC_20000000@@QAE@P6AXPAVomniCallDescriptor@@PAVomniServant@@@ZPBDI_N@Z
??0_0RL_cd_F52CE7BA0E4ED8DC_21000000@@QAE@P6AXPAVomniCallDescriptor@@PAVomniServant@@@ZPBDI_N@Z
??0_0RL_cd_F52CE7BA0E4ED8DC_41000000@@QAE@P6AXPAVomniCallDescriptor@@PAVomniServant@@@ZPBDI_N@Z
??0_0RL_cd_F52CE7BA0E4ED8DC_50000000@@QAE@P6AXPAVomniCallDescriptor@@PAVomniServant@@@ZPBDI_N@Z
??0_0RL_cd_F52CE7BA0E4ED8DC_61000000@@QAE@P6AXPAVomniCallDescriptor@@PAVomniServant@@@ZPBDI_N@Z
??0_0RL_cd_F52CE7BA0E4ED8DC_70000000@@QAE@P6AXPAVomniCallDescriptor@@PAVomniServant@@@ZPBDI_N@Z
??0_0RL_cd_F52CE7BA0E4ED8DC_90000000@@QAE@P6AXPAVomniCallDescriptor@@PAVomniServant@@@ZPBDI_N@Z
??0_0RL_cd_F52CE7BA0E4ED8DC_91000000@@QAE@P6AXPAVomniCallDescriptor@@PAVomniServant@@@ZPBDI_N@Z
??0_0RL_cd_F52CE7BA0E4ED8DC_b1000000@@QAE@P6AXPAVomniCallDescriptor@@PAVomniServant@@@ZPBDI_N@Z
??0_0RL_cd_F52CE7BA0E4ED8DC_c0000000@@QAE@P6AXPAVomniCallDescriptor@@PAVomniServant@@@ZPBDI_N@Z
??0_0RL_cd_F52CE7BA0E4ED8DC_e0000000@@QAE@P6AXPAVomniCallDescriptor@@PAVomniServant@@@ZPBDI_N@Z
??0_CORBA_Sequence_String@@IAE@XZ
??0_CORBA_String_member@@QAE@XZ
??0_CORBA_String_var@@QAE@XZ
??0_CORBA_Unbounded_Sequence_String@@QAE@XZ
??0_objref_AdminPropertiesAdmin@CosNotification@@QAE@XZ
??0_objref_ConsumerAdmin@AttNotification@@QAE@PAVomniIOR@@PAVomniIdentity@@@Z
??0_objref_ConsumerAdmin@AttNotification@@QAE@XZ
??0_objref_ConsumerAdmin@CosEventChannelAdmin@@QAE@XZ
??0_objref_ConsumerAdmin@CosNotifyChannelAdmin@@QAE@XZ
??0_objref_CosEvProxyPullConsumer@AttNotification@@QAE@PAVomniIOR@@PAVomniIdentity@@@Z
??0_objref_CosEvProxyPullConsumer@AttNotification@@QAE@XZ
??0_objref_CosEvProxyPullSupplier@AttNotification@@QAE@PAVomniIOR@@PAVomniIdentity@@@Z
??0_objref_CosEvProxyPullSupplier@AttNotification@@QAE@XZ
??0_objref_CosEvProxyPushConsumer@AttNotification@@QAE@PAVomniIOR@@PAVomniIdentity@@@Z
??0_objref_CosEvProxyPushConsumer@AttNotification@@QAE@XZ
??0_objref_CosEvProxyPushSupplier@AttNotification@@QAE@PAVomniIOR@@PAVomniIdentity@@@Z
??0_objref_CosEvProxyPushSupplier@AttNotification@@QAE@XZ
??0_objref_EventChannel@AttNotification@@QAE@PAVomniIOR@@PAVomniIdentity@@@Z
??0_objref_EventChannel@AttNotification@@QAE@XZ
??0_objref_EventChannel@CosEventChannelAdmin@@QAE@XZ
??0_objref_EventChannel@CosNotifyChannelAdmin@@QAE@XZ
??0_objref_EventChannelFactory@AttNotification@@QAE@PAVomniIOR@@PAVomniIdentity@@@Z
??0_objref_EventChannelFactory@AttNotification@@QAE@XZ
??0_objref_EventChannelFactory@CosNotifyChannelAdmin@@QAE@XZ
??0_objref_Filter@AttNotification@@QAE@PAVomniIOR@@PAVomniIdentity@@@Z
??0_objref_Filter@AttNotification@@QAE@XZ
??0_objref_Filter@CosNotifyFilter@@QAE@XZ
??0_objref_FilterAdmin@CosNotifyFilter@@QAE@XZ
??0_objref_FilterFactory@AttNotification@@QAE@PAVomniIOR@@PAVomniIdentity@@@Z
??0_objref_FilterFactory@AttNotification@@QAE@XZ
??0_objref_FilterFactory@CosNotifyFilter@@QAE@XZ
??0_objref_Interactive@AttNotification@@QAE@PAVomniIOR@@PAVomniIdentity@@@Z
??0_objref_Interactive@AttNotification@@QAE@XZ
??0_objref_MappingFilter@AttNotification@@QAE@PAVomniIOR@@PAVomniIdentity@@@Z
??0_objref_MappingFilter@AttNotification@@QAE@XZ
??0_objref_MappingFilter@CosNotifyFilter@@QAE@XZ
??0_objref_NotifyPublish@CosNotifyComm@@QAE@XZ
??0_objref_NotifySubscribe@CosNotifyComm@@QAE@XZ
??0_objref_ProxyConsumer@CosNotifyChannelAdmin@@QAE@XZ
??0_objref_ProxyPullConsumer@AttNotification@@QAE@PAVomniIOR@@PAVomniIdentity@@@Z
??0_objref_ProxyPullConsumer@AttNotification@@QAE@XZ
??0_objref_ProxyPullConsumer@CosEventChannelAdmin@@QAE@XZ
??0_objref_ProxyPullConsumer@CosNotifyChannelAdmin@@QAE@XZ
??0_objref_ProxyPullSupplier@AttNotification@@QAE@PAVomniIOR@@PAVomniIdentity@@@Z
??0_objref_ProxyPullSupplier@AttNotification@@QAE@XZ
??0_objref_ProxyPullSupplier@CosEventChannelAdmin@@QAE@XZ
??0_objref_ProxyPullSupplier@CosNotifyChannelAdmin@@QAE@XZ
??0_objref_ProxyPushConsumer@AttNotification@@QAE@PAVomniIOR@@PAVomniIdentity@@@Z
??0_objref_ProxyPushConsumer@AttNotification@@QAE@XZ
??0_objref_ProxyPushConsumer@CosEventChannelAdmin@@QAE@XZ
??0_objref_ProxyPushConsumer@CosNotifyChannelAdmin@@QAE@XZ
??0_objref_ProxyPushSupplier@AttNotification@@QAE@PAVomniIOR@@PAVomniIdentity@@@Z
??0_objref_ProxyPushSupplier@AttNotification@@QAE@XZ
??0_objref_ProxyPushSupplier@CosEventChannelAdmin@@QAE@XZ
??0_objref_ProxyPushSupplier@CosNotifyChannelAdmin@@QAE@XZ
??0_objref_ProxySupplier@CosNotifyChannelAdmin@@QAE@XZ
??0_objref_PullConsumer@CosEventComm@@QAE@XZ
??0_objref_PullConsumer@CosNotifyComm@@QAE@XZ
??0_objref_PullSupplier@CosEventComm@@QAE@XZ
??0_objref_PullSupplier@CosNotifyComm@@QAE@XZ
??0_objref_PushConsumer@CosEventComm@@QAE@XZ
??0_objref_PushConsumer@CosNotifyComm@@QAE@XZ
??0_objref_PushSupplier@CosEventComm@@QAE@XZ
??0_objref_PushSupplier@CosNotifyComm@@QAE@XZ
??0_objref_QoSAdmin@CosNotification@@QAE@XZ
??0_objref_SequenceProxyPullConsumer@AttNotification@@QAE@PAVomniIOR@@PAVomniIdentity@@@Z
??0_objref_SequenceProxyPullConsumer@AttNotification@@QAE@XZ
??0_objref_SequenceProxyPullConsumer@CosNotifyChannelAdmin@@QAE@XZ
??0_objref_SequenceProxyPullSupplier@AttNotification@@QAE@PAVomniIOR@@PAVomniIdentity@@@Z
??0_objref_SequenceProxyPullSupplier@AttNotification@@QAE@XZ
??0_objref_SequenceProxyPullSupplier@CosNotifyChannelAdmin@@QAE@XZ
??0_objref_SequenceProxyPushConsumer@AttNotification@@QAE@PAVomniIOR@@PAVomniIdentity@@@Z
??0_objref_SequenceProxyPushConsumer@AttNotification@@QAE@XZ
??0_objref_SequenceProxyPushConsumer@CosNotifyChannelAdmin@@QAE@XZ
??0_objref_SequenceProxyPushSupplier@AttNotification@@QAE@PAVomniIOR@@PAVomniIdentity@@@Z
??0_objref_SequenceProxyPushSupplier@AttNotification@@QAE@XZ
??0_objref_SequenceProxyPushSupplier@CosNotifyChannelAdmin@@QAE@XZ
??0_objref_SequencePullConsumer@CosNotifyComm@@QAE@XZ
??0_objref_SequencePullSupplier@CosNotifyComm@@QAE@XZ
??0_objref_SequencePushConsumer@CosNotifyComm@@QAE@XZ
??0_objref_SequencePushSupplier@CosNotifyComm@@QAE@XZ
??0_objref_Server@AttNotification@@QAE@PAVomniIOR@@PAVomniIdentity@@@Z
??0_objref_Server@AttNotification@@QAE@XZ
??0_objref_StructuredProxyPullConsumer@AttNotification@@QAE@PAVomniIOR@@PAVomniIdentity@@@Z
??0_objref_StructuredProxyPullConsumer@AttNotification@@QAE@XZ
??0_objref_StructuredProxyPullConsumer@CosNotifyChannelAdmin@@QAE@XZ
??0_objref_StructuredProxyPullSupplier@AttNotification@@QAE@PAVomniIOR@@PAVomniIdentity@@@Z
??0_objref_StructuredProxyPullSupplier@AttNotification@@QAE@XZ
??0_objref_StructuredProxyPullSupplier@CosNotifyChannelAdmin@@QAE@XZ
??0_objref_StructuredProxyPushConsumer@AttNotification@@QAE@PAVomniIOR@@PAVomniIdentity@@@Z
??0_objref_StructuredProxyPushConsumer@AttNotification@@QAE@XZ
??0_objref_StructuredProxyPushConsumer@CosNotifyChannelAdmin@@QAE@XZ
??0_objref_StructuredProxyPushSupplier@AttNotification@@QAE@PAVomniIOR@@PAVomniIdentity@@@Z
??0_objref_StructuredProxyPushSupplier@AttNotification@@QAE@XZ
??0_objref_StructuredProxyPushSupplier@CosNotifyChannelAdmin@@QAE@XZ
??0_objref_StructuredPullConsumer@CosNotifyComm@@QAE@XZ
??0_objref_StructuredPullSupplier@CosNotifyComm@@QAE@XZ
??0_objref_StructuredPushConsumer@CosNotifyComm@@QAE@XZ
??0_objref_StructuredPushSupplier@CosNotifyComm@@QAE@XZ
??0_objref_SupplierAdmin@AttNotification@@QAE@PAVomniIOR@@PAVomniIdentity@@@Z
??0_objref_SupplierAdmin@AttNotification@@QAE@XZ
??0_objref_SupplierAdmin@CosEventChannelAdmin@@QAE@XZ
??0_objref_SupplierAdmin@CosNotifyChannelAdmin@@QAE@XZ
??0_pof_ConsumerAdmin@AttNotification@@QAE@XZ
??0_pof_CosEvProxyPullConsumer@AttNotification@@QAE@XZ
??0_pof_CosEvProxyPullSupplier@AttNotification@@QAE@XZ
??0_pof_CosEvProxyPushConsumer@AttNotification@@QAE@XZ
??0_pof_CosEvProxyPushSupplier@AttNotification@@QAE@XZ
??0_pof_EventChannel@AttNotification@@QAE@XZ
??0_pof_EventChannelFactory@AttNotification@@QAE@XZ
??0_pof_Filter@AttNotification@@QAE@XZ
??0_pof_FilterFactory@AttNotification@@QAE@XZ
??0_pof_Interactive@AttNotification@@QAE@XZ
??0_pof_MappingFilter@AttNotification@@QAE@XZ
??0_pof_ProxyPullConsumer@AttNotification@@QAE@XZ
??0_pof_ProxyPullSupplier@AttNotification@@QAE@XZ
??0_pof_ProxyPushConsumer@AttNotification@@QAE@XZ
??0_pof_ProxyPushSupplier@AttNotification@@QAE@XZ
??0_pof_SequenceProxyPullConsumer@AttNotification@@QAE@XZ
??0_pof_SequenceProxyPullSupplier@AttNotification@@QAE@XZ
??0_pof_SequenceProxyPushConsumer@AttNotification@@QAE@XZ
??0_pof_SequenceProxyPushSupplier@AttNotification@@QAE@XZ
??0_pof_Server@AttNotification@@QAE@XZ
??0_pof_StructuredProxyPullConsumer@AttNotification@@QAE@XZ
??0_pof_StructuredProxyPullSupplier@AttNotification@@QAE@XZ
??0_pof_StructuredProxyPushConsumer@AttNotification@@QAE@XZ
??0_pof_StructuredProxyPushSupplier@AttNotification@@QAE@XZ
??0_pof_SupplierAdmin@AttNotification@@QAE@XZ
??0omniCallDescriptor@@QAE@P6AXPAV0@PAVomniServant@@@ZPBDH_NPBQBDH4@Z
??1?$_CORBA_ObjRef_Element@V_objref_Interactive@AttNotification@@VInteractive_Helper@2@@@QAE@XZ
??1?$_CORBA_ObjRef_Member@V_objref_IDLType@CORBA@@VIDLType_Helper@2@@@QAE@XZ
??1?$_CORBA_ObjRef_OUT_arg@V_objref_Interactive@AttNotification@@VInteractive_Helper@2@@@QAE@XZ
??1?$_CORBA_ObjRef_Var@V_objref_EventChannel@AttNotification@@VEventChannel_Helper@2@@@QAE@XZ
??1?$_CORBA_ObjRef_Var@V_objref_EventChannelFactory@AttNotification@@VEventChannelFactory_Helper@2@@@QAE@XZ
??1?$_CORBA_ObjRef_Var@V_objref_FilterFactory@AttNotification@@VFilterFactory_Helper@2@@@QAE@XZ
??1?$_CORBA_ObjRef_Var@V_objref_Interactive@AttNotification@@VInteractive_Helper@2@@@QAE@XZ
??1?$_CORBA_PseudoObj_Member@VDynAny@DynamicAny@@V?$_CORBA_PseudoObj_Var@VDynAny@DynamicAny@@@@@@QAE@XZ
??1?$_CORBA_PseudoObj_Member@VPolicy@CORBA@@V?$_CORBA_PseudoObj_Var@VPolicy@CORBA@@@@@@QAE@XZ
??1?$_CORBA_Sequence@E@@QAE@XZ
??1?$_CORBA_Sequence@UEventType@CosNotification@@@@QAE@XZ
??1?$_CORBA_Sequence@UNameComponent@CosNaming@@@@QAE@XZ
??1?$_CORBA_Sequence@UProperty@CosNotification@@@@QAE@XZ
??1?$_CORBA_Sequence@UPropertyError@CosNotification@@@@QAE@XZ
??1?$_CORBA_Sequence_ObjRef@V_objref_Interactive@AttNotification@@V?$_CORBA_ObjRef_Element@V_objref_Interactive@AttNotification@@VInteractive_Helper@2@@@VInteractive_Helper@2@@@QAE@XZ
??1?$_CORBA_Unbounded_Sequence@UEventType@CosNotification@@@@QAE@XZ
??1?$_CORBA_Unbounded_Sequence@UNameComponent@CosNaming@@@@QAE@XZ
??1?$_CORBA_Unbounded_Sequence@UProperty@CosNotification@@@@QAE@XZ
??1?$_CORBA_Unbounded_Sequence@UPropertyError@CosNotification@@@@QAE@XZ
??1?$_CORBA_Unbounded_Sequence_ObjRef@V_objref_Interactive@AttNotification@@V?$_CORBA_ObjRef_Element@V_objref_Interactive@AttNotification@@VInteractive_Helper@2@@@VInteractive_Helper@2@@@QAE@XZ
??1Binding@CosNaming@@QAE@XZ
??1ConstraintExp@CosNotifyFilter@@QAE@XZ
??1ConstraintInfo@CosNotifyFilter@@QAE@XZ
??1ConsumerAdmin@POA_AttNotification@@UAE@XZ
??1CosEvProxyPullConsumer@POA_AttNotification@@UAE@XZ
??1CosEvProxyPullSupplier@POA_AttNotification@@UAE@XZ
??1CosEvProxyPushConsumer@POA_AttNotification@@UAE@XZ
??1CosEvProxyPushSupplier@POA_AttNotification@@UAE@XZ
??1EventChannel@POA_AttNotification@@UAE@XZ
??1EventChannelFactory@POA_AttNotification@@UAE@XZ
??1EventHeader@CosNotification@@QAE@XZ
??1EventType@CosNotification@@QAE@XZ
??1EventTypeSeq@CosNotification@@QAE@XZ
??1EventTypeSeq_var@CosNotification@@QAE@XZ
??1Filter@POA_AttNotification@@UAE@XZ
??1FilterFactory@POA_AttNotification@@UAE@XZ
??1FixedEventHeader@CosNotification@@QAE@XZ
??1IactSeq@AttNotification@@QAE@XZ
??1IactSeq_var@AttNotification@@QAE@XZ
??1Interactive@POA_AttNotification@@UAE@XZ
??1MappingConstraintInfo@CosNotifyFilter@@QAE@XZ
??1MappingConstraintPair@CosNotifyFilter@@QAE@XZ
??1MappingFilter@POA_AttNotification@@UAE@XZ
??1Name@CosNaming@@QAE@XZ
??1NameComponent@CosNaming@@QAE@XZ
??1NameDynAnyPair@DynamicAny@@QAE@XZ
??1NameSeq@AttNotification@@QAE@XZ
??1NameSeq_var@AttNotification@@QAE@XZ
??1NameValuePair@DynamicAny@@QAE@XZ
??1NamedPropertyRange@CosNotification@@QAE@XZ
??1Property@CosNotification@@QAE@XZ
??1PropertyError@CosNotification@@QAE@XZ
??1PropertyErrorSeq@CosNotification@@QAE@XZ
??1PropertyRange@CosNotification@@QAE@XZ
??1PropertySeq@CosNotification@@QAE@XZ
??1PropertySeq_var@CosNotification@@QAE@XZ
??1ProxyPullConsumer@POA_AttNotification@@UAE@XZ
??1ProxyPullSupplier@POA_AttNotification@@UAE@XZ
??1ProxyPushConsumer@POA_AttNotification@@UAE@XZ
??1ProxyPushSupplier@POA_AttNotification@@UAE@XZ
??1SequenceProxyPullConsumer@POA_AttNotification@@UAE@XZ
??1SequenceProxyPullSupplier@POA_AttNotification@@UAE@XZ
??1SequenceProxyPushConsumer@POA_AttNotification@@UAE@XZ
??1SequenceProxyPushSupplier@POA_AttNotification@@UAE@XZ
??1Server@POA_AttNotification@@UAE@XZ
??1ServiceContext@IOP@@QAE@XZ
??1StructMember@CORBA@@QAE@XZ
??1StructuredEvent@CosNotification@@QAE@XZ
??1StructuredProxyPullConsumer@POA_AttNotification@@UAE@XZ
??1StructuredProxyPullSupplier@POA_AttNotification@@UAE@XZ
??1StructuredProxyPushConsumer@POA_AttNotification@@UAE@XZ
??1StructuredProxyPushSupplier@POA_AttNotification@@UAE@XZ
??1SupplierAdmin@POA_AttNotification@@UAE@XZ
??1TaggedComponent@IOP@@QAE@XZ
??1TaggedProfile@IOP@@QAE@XZ
??1UnionMember@CORBA@@QAE@XZ
??1UnsupportedServerProp@AttNotification@@UAE@XZ
??1ValueMember@CORBA@@QAE@XZ
??1_0RL_cd_F52CE7BA0E4ED8DC_00000000@@UAE@XZ
??1_0RL_cd_F52CE7BA0E4ED8DC_01000000@@UAE@XZ
??1_0RL_cd_F52CE7BA0E4ED8DC_20000000@@UAE@XZ
??1_0RL_cd_F52CE7BA0E4ED8DC_21000000@@UAE@XZ
??1_0RL_cd_F52CE7BA0E4ED8DC_41000000@@UAE@XZ
??1_0RL_cd_F52CE7BA0E4ED8DC_50000000@@UAE@XZ
??1_0RL_cd_F52CE7BA0E4ED8DC_61000000@@UAE@XZ
??1_0RL_cd_F52CE7BA0E4ED8DC_70000000@@UAE@XZ
??1_0RL_cd_F52CE7BA0E4ED8DC_90000000@@UAE@XZ
??1_0RL_cd_F52CE7BA0E4ED8DC_91000000@@UAE@XZ
??1_0RL_cd_F52CE7BA0E4ED8DC_b1000000@@UAE@XZ
??1_0RL_cd_F52CE7BA0E4ED8DC_c0000000@@UAE@XZ
??1_0RL_cd_F52CE7BA0E4ED8DC_e0000000@@UAE@XZ
??1_CORBA_Sequence_Octet@@IAE@XZ
??1_CORBA_Sequence_String@@QAE@XZ
??1_CORBA_String_member@@QAE@XZ
??1_CORBA_String_var@@QAE@XZ
??1_CORBA_Unbounded_Sequence_Octet@@QAE@XZ
??1_CORBA_Unbounded_Sequence_String@@QAE@XZ
??1_impl_ConsumerAdmin@AttNotification@@UAE@XZ
??1_impl_CosEvProxyPullConsumer@AttNotification@@UAE@XZ
??1_impl_CosEvProxyPullSupplier@AttNotification@@UAE@XZ
??1_impl_CosEvProxyPushConsumer@AttNotification@@UAE@XZ
??1_impl_CosEvProxyPushSupplier@AttNotification@@UAE@XZ
??1_impl_EventChannel@AttNotification@@UAE@XZ
??1_impl_EventChannelFactory@AttNotification@@UAE@XZ
??1_impl_Filter@AttNotification@@UAE@XZ
??1_impl_FilterFactory@AttNotification@@UAE@XZ
??1_impl_Interactive@AttNotification@@UAE@XZ
??1_impl_MappingFilter@AttNotification@@UAE@XZ
??1_impl_ProxyPullConsumer@AttNotification@@UAE@XZ
??1_impl_ProxyPullSupplier@AttNotification@@UAE@XZ
??1_impl_ProxyPushConsumer@AttNotification@@UAE@XZ
??1_impl_ProxyPushSupplier@AttNotification@@UAE@XZ
??1_impl_SequenceProxyPullConsumer@AttNotification@@UAE@XZ
??1_impl_SequenceProxyPullSupplier@AttNotification@@UAE@XZ
??1_impl_SequenceProxyPushConsumer@AttNotification@@UAE@XZ
??1_impl_SequenceProxyPushSupplier@AttNotification@@UAE@XZ
??1_impl_Server@AttNotification@@UAE@XZ
??1_impl_StructuredProxyPullConsumer@AttNotification@@UAE@XZ
??1_impl_StructuredProxyPullSupplier@AttNotification@@UAE@XZ
??1_impl_StructuredProxyPushConsumer@AttNotification@@UAE@XZ
??1_impl_StructuredProxyPushSupplier@AttNotification@@UAE@XZ
??1_impl_SupplierAdmin@AttNotification@@UAE@XZ
??1_objref_ConsumerAdmin@AttNotification@@MAE@XZ
??1_objref_CosEvProxyPullConsumer@AttNotification@@MAE@XZ
??1_objref_CosEvProxyPullSupplier@AttNotification@@MAE@XZ
??1_objref_CosEvProxyPushConsumer@AttNotification@@MAE@XZ
??1_objref_CosEvProxyPushSupplier@AttNotification@@MAE@XZ
??1_objref_EventChannel@AttNotification@@MAE@XZ
??1_objref_EventChannelFactory@AttNotification@@MAE@XZ
??1_objref_Filter@AttNotification@@MAE@XZ
??1_objref_FilterFactory@AttNotification@@MAE@XZ
??1_objref_Interactive@AttNotification@@MAE@XZ
??1_objref_MappingFilter@AttNotification@@MAE@XZ
??1_objref_ProxyPullConsumer@AttNotification@@MAE@XZ
??1_objref_ProxyPullSupplier@AttNotification@@MAE@XZ
??1_objref_ProxyPushConsumer@AttNotification@@MAE@XZ
??1_objref_ProxyPushSupplier@AttNotification@@MAE@XZ
??1_objref_SequenceProxyPullConsumer@AttNotification@@MAE@XZ
??1_objref_SequenceProxyPullSupplier@AttNotification@@MAE@XZ
??1_objref_SequenceProxyPushConsumer@AttNotification@@MAE@XZ
??1_objref_SequenceProxyPushSupplier@AttNotification@@MAE@XZ
??1_objref_Server@AttNotification@@MAE@XZ
??1_objref_StructuredProxyPullConsumer@AttNotification@@MAE@XZ
??1_objref_StructuredProxyPullSupplier@AttNotification@@MAE@XZ
??1_objref_StructuredProxyPushConsumer@AttNotification@@MAE@XZ
??1_objref_StructuredProxyPushSupplier@AttNotification@@MAE@XZ
??1_objref_SupplierAdmin@AttNotification@@MAE@XZ
??1_pof_ConsumerAdmin@AttNotification@@UAE@XZ
??1_pof_CosEvProxyPullConsumer@AttNotification@@UAE@XZ
??1_pof_CosEvProxyPullSupplier@AttNotification@@UAE@XZ
??1_pof_CosEvProxyPushConsumer@AttNotification@@UAE@XZ
??1_pof_CosEvProxyPushSupplier@AttNotification@@UAE@XZ
??1_pof_EventChannel@AttNotification@@UAE@XZ
??1_pof_EventChannelFactory@AttNotification@@UAE@XZ
??1_pof_Filter@AttNotification@@UAE@XZ
??1_pof_FilterFactory@AttNotification@@UAE@XZ
??1_pof_Interactive@AttNotification@@UAE@XZ
??1_pof_MappingFilter@AttNotification@@UAE@XZ
??1_pof_ProxyPullConsumer@AttNotification@@UAE@XZ
??1_pof_ProxyPullSupplier@AttNotification@@UAE@XZ
??1_pof_ProxyPushConsumer@AttNotification@@UAE@XZ
??1_pof_ProxyPushSupplier@AttNotification@@UAE@XZ
??1_pof_SequenceProxyPullConsumer@AttNotification@@UAE@XZ
??1_pof_SequenceProxyPullSupplier@AttNotification@@UAE@XZ
??1_pof_SequenceProxyPushConsumer@AttNotification@@UAE@XZ
??1_pof_SequenceProxyPushSupplier@AttNotification@@UAE@XZ
??1_pof_Server@AttNotification@@UAE@XZ
??1_pof_StructuredProxyPullConsumer@AttNotification@@UAE@XZ
??1_pof_StructuredProxyPullSupplier@AttNotification@@UAE@XZ
??1_pof_StructuredProxyPushConsumer@AttNotification@@UAE@XZ
??1_pof_StructuredProxyPushSupplier@AttNotification@@UAE@XZ
??1_pof_SupplierAdmin@AttNotification@@UAE@XZ
??1omniCallDescriptor@@UAE@XZ
??4?$_CORBA_ObjRef_Element@V_objref_Interactive@AttNotification@@VInteractive_Helper@2@@@QAEAAV0@PAV_objref_Interactive@AttNotification@@@Z
??4?$_CORBA_ObjRef_OUT_arg@V_objref_Interactive@AttNotification@@VInteractive_Helper@2@@@QAEAAV0@PAV_objref_Interactive@AttNotification@@@Z
??4?$_CORBA_ObjRef_Var@V_objref_EventChannel@AttNotification@@VEventChannel_Helper@2@@@QAEAAV0@PAV_objref_EventChannel@AttNotification@@@Z
??4?$_CORBA_ObjRef_Var@V_objref_EventChannelFactory@AttNotification@@VEventChannelFactory_Helper@2@@@QAEAAV0@PAV_objref_EventChannelFactory@AttNotification@@@Z
??4?$_CORBA_ObjRef_Var@V_objref_FilterFactory@AttNotification@@VFilterFactory_Helper@2@@@QAEAAV0@PAV_objref_FilterFactory@AttNotification@@@Z
??4?$_CORBA_ObjRef_Var@V_objref_Interactive@AttNotification@@VInteractive_Helper@2@@@QAEAAV0@PAV_objref_Interactive@AttNotification@@@Z
??4?$_CORBA_Sequence@UPropertyError@CosNotification@@@@IAEAAV0@ABV0@@Z
??4?$_CORBA_Unbounded_Sequence@UPropertyError@CosNotification@@@@QAEAAV0@ABV0@@Z
??4EventType@CosNotification@@QAEAAU01@ABU01@@Z
??4EventTypeSeq_var@CosNotification@@QAEAAV01@PAVEventTypeSeq@1@@Z
??4Exception@CORBA@@IAEAAV01@ABV01@@Z
??4IactSeq_var@AttNotification@@QAEAAV01@PAVIactSeq@1@@Z
??4NameSeq_var@AttNotification@@QAEAAV01@PAVNameSeq@1@@Z
??4Property@CosNotification@@QAEAAU01@ABU01@@Z
??4PropertyError@CosNotification@@QAEAAU01@ABU01@@Z
??4PropertyErrorSeq@CosNotification@@QAEAAV01@ABV01@@Z
??4PropertyRange@CosNotification@@QAEAAU01@ABU01@@Z
??4PropertySeq_var@CosNotification@@QAEAAV01@PAVPropertySeq@1@@Z
??4UnsupportedServerProp@AttNotification@@QAEAAV01@ABV01@@Z
??4UserException@CORBA@@QAEAAV01@ABV01@@Z
??4_CORBA_String_member@@QAEAAV0@ABV0@@Z
??4_CORBA_String_var@@QAEAAV0@PAD@Z
??A?$_CORBA_Sequence_ObjRef@V_objref_Interactive@AttNotification@@V?$_CORBA_ObjRef_Element@V_objref_Interactive@AttNotification@@VInteractive_Helper@2@@@VInteractive_Helper@2@@@QAE?AV?$_CORBA_ObjRef_Element@V_objref_Interactive@AttNotification@@VInteractive_Helper@2@@@K@Z
??B?$_CORBA_ObjRef_Var@V_objref_EventChannel@AttNotification@@VEventChannel_Helper@2@@@QBEPAV_objref_EventChannel@AttNotification@@XZ
??B?$_CORBA_ObjRef_Var@V_objref_EventChannelFactory@AttNotification@@VEventChannelFactory_Helper@2@@@QBEPAV_objref_EventChannelFactory@AttNotification@@XZ
??B?$_CORBA_ObjRef_Var@V_objref_FilterFactory@AttNotification@@VFilterFactory_Helper@2@@@QBEPAV_objref_FilterFactory@AttNotification@@XZ
??B?$_CORBA_ObjRef_Var@V_objref_Interactive@AttNotification@@VInteractive_Helper@2@@@QBEPAV_objref_Interactive@AttNotification@@XZ
??BEventTypeSeq_var@CosNotification@@QAEAAVEventTypeSeq@1@XZ
??BIactSeq_var@AttNotification@@QAEAAVIactSeq@1@XZ
??BNameSeq_var@AttNotification@@QAEAAVNameSeq@1@XZ
??BPropertySeq_var@CosNotification@@QAEAAVPropertySeq@1@XZ
??B_CORBA_String_var@@QAEPADXZ
??_2?$_CORBA_Sequence_ObjRef@V_objref_Interactive@AttNotification@@V?$_CORBA_ObjRef_Element@V_objref_Interactive@AttNotification@@VInteractive_Helper@2@@@VInteractive_Helper@2@@@QBEXAAVcdrStream@@@Z
??_2?$_CORBA_Unbounded_Sequence@UEventType@CosNotification@@@@QBEXAAVcdrStream@@@Z
??_2?$_CORBA_Unbounded_Sequence@UProperty@CosNotification@@@@QBEXAAVcdrStream@@@Z
??_2?$_CORBA_Unbounded_Sequence@UPropertyError@CosNotification@@@@QBEXAAVcdrStream@@@Z
??_2@YAXJAAVcdrStream@@@Z
??_2@YAXKAAVcdrStream@@@Z
??_2ChannelStats@AttNotification@@QBEXAAVcdrStream@@@Z
??_2UnsupportedServerProp@AttNotification@@QBEXAAVcdrStream@@@Z
??_3?$_CORBA_Sequence_ObjRef@V_objref_Interactive@AttNotification@@V?$_CORBA_ObjRef_Element@V_objref_Interactive@AttNotification@@VInteractive_Helper@2@@@VInteractive_Helper@2@@@QAEXAAVcdrStream@@@Z
??_3?$_CORBA_Unbounded_Sequence@UEventType@CosNotification@@@@QAEXAAVcdrStream@@@Z
??_3?$_CORBA_Unbounded_Sequence@UProperty@CosNotification@@@@QAEXAAVcdrStream@@@Z
??_3?$_CORBA_Unbounded_Sequence@UPropertyError@CosNotification@@@@QAEXAAVcdrStream@@@Z
??_3@YAXAAJAAVcdrStream@@@Z
??_3@YAXAAKAAVcdrStream@@@Z
??_3ChannelStats@AttNotification@@QAEXAAVcdrStream@@@Z
??_3UnsupportedServerProp@AttNotification@@QAEXAAVcdrStream@@@Z
??_DConsumerAdmin@POA_AttNotification@@QAEXXZ
??_DCosEvProxyPullConsumer@POA_AttNotification@@QAEXXZ
??_DCosEvProxyPullSupplier@POA_AttNotification@@QAEXXZ
??_DCosEvProxyPushConsumer@POA_AttNotification@@QAEXXZ
??_DCosEvProxyPushSupplier@POA_AttNotification@@QAEXXZ
??_DEventChannel@POA_AttNotification@@QAEXXZ
??_DEventChannelFactory@POA_AttNotification@@QAEXXZ
??_DFilter@POA_AttNotification@@QAEXXZ
??_DFilterFactory@POA_AttNotification@@QAEXXZ
??_DInteractive@POA_AttNotification@@QAEXXZ
??_DMappingFilter@POA_AttNotification@@QAEXXZ
??_DProxyPullConsumer@POA_AttNotification@@QAEXXZ
??_DProxyPullSupplier@POA_AttNotification@@QAEXXZ
??_DProxyPushConsumer@POA_AttNotification@@QAEXXZ
??_DProxyPushSupplier@POA_AttNotification@@QAEXXZ
??_DSequenceProxyPullConsumer@POA_AttNotification@@QAEXXZ
??_DSequenceProxyPullSupplier@POA_AttNotification@@QAEXXZ
??_DSequenceProxyPushConsumer@POA_AttNotification@@QAEXXZ
??_DSequenceProxyPushSupplier@POA_AttNotification@@QAEXXZ
??_DServer@POA_AttNotification@@QAEXXZ
??_DStructuredProxyPullConsumer@POA_AttNotification@@QAEXXZ
??_DStructuredProxyPullSupplier@POA_AttNotification@@QAEXXZ
??_DStructuredProxyPushConsumer@POA_AttNotification@@QAEXXZ
??_DStructuredProxyPushSupplier@POA_AttNotification@@QAEXXZ
??_DSupplierAdmin@POA_AttNotification@@QAEXXZ
??_D_impl_ConsumerAdmin@AttNotification@@QAEXXZ
??_D_impl_CosEvProxyPullConsumer@AttNotification@@QAEXXZ
??_D_impl_CosEvProxyPullSupplier@AttNotification@@QAEXXZ
??_D_impl_CosEvProxyPushConsumer@AttNotification@@QAEXXZ
??_D_impl_CosEvProxyPushSupplier@AttNotification@@QAEXXZ
??_D_impl_EventChannel@AttNotification@@QAEXXZ
??_D_impl_EventChannelFactory@AttNotification@@QAEXXZ
??_D_impl_Filter@AttNotification@@QAEXXZ
??_D_impl_FilterFactory@AttNotification@@QAEXXZ
??_D_impl_Interactive@AttNotification@@QAEXXZ
??_D_impl_MappingFilter@AttNotification@@QAEXXZ
??_D_impl_ProxyPullConsumer@AttNotification@@QAEXXZ
??_D_impl_ProxyPullSupplier@AttNotification@@QAEXXZ
??_D_impl_ProxyPushConsumer@AttNotification@@QAEXXZ
??_D_impl_ProxyPushSupplier@AttNotification@@QAEXXZ
??_D_impl_SequenceProxyPullConsumer@AttNotification@@QAEXXZ
??_D_impl_SequenceProxyPullSupplier@AttNotification@@QAEXXZ
??_D_impl_SequenceProxyPushConsumer@AttNotification@@QAEXXZ
??_D_impl_SequenceProxyPushSupplier@AttNotification@@QAEXXZ
??_D_impl_Server@AttNotification@@QAEXXZ
??_D_impl_StructuredProxyPullConsumer@AttNotification@@QAEXXZ
??_D_impl_StructuredProxyPullSupplier@AttNotification@@QAEXXZ
??_D_impl_StructuredProxyPushConsumer@AttNotification@@QAEXXZ
??_D_impl_StructuredProxyPushSupplier@AttNotification@@QAEXXZ
??_D_impl_SupplierAdmin@AttNotification@@QAEXXZ
??_D_objref_AdminPropertiesAdmin@CosNotification@@IAEXXZ
??_D_objref_ConsumerAdmin@AttNotification@@IAEXXZ
??_D_objref_ConsumerAdmin@CosEventChannelAdmin@@IAEXXZ
??_D_objref_ConsumerAdmin@CosNotifyChannelAdmin@@IAEXXZ
??_D_objref_CosEvProxyPullConsumer@AttNotification@@IAEXXZ
??_D_objref_CosEvProxyPullSupplier@AttNotification@@IAEXXZ
??_D_objref_CosEvProxyPushConsumer@AttNotification@@IAEXXZ
??_D_objref_CosEvProxyPushSupplier@AttNotification@@IAEXXZ
??_D_objref_EventChannel@AttNotification@@IAEXXZ
??_D_objref_EventChannel@CosEventChannelAdmin@@IAEXXZ
??_D_objref_EventChannel@CosNotifyChannelAdmin@@IAEXXZ
??_D_objref_EventChannelFactory@AttNotification@@IAEXXZ
??_D_objref_EventChannelFactory@CosNotifyChannelAdmin@@IAEXXZ
??_D_objref_Filter@AttNotification@@IAEXXZ
??_D_objref_Filter@CosNotifyFilter@@IAEXXZ
??_D_objref_FilterAdmin@CosNotifyFilter@@IAEXXZ
??_D_objref_FilterFactory@AttNotification@@IAEXXZ
??_D_objref_FilterFactory@CosNotifyFilter@@IAEXXZ
??_D_objref_Interactive@AttNotification@@IAEXXZ
??_D_objref_MappingFilter@AttNotification@@IAEXXZ
??_D_objref_MappingFilter@CosNotifyFilter@@IAEXXZ
??_D_objref_NotifyPublish@CosNotifyComm@@IAEXXZ
??_D_objref_NotifySubscribe@CosNotifyComm@@IAEXXZ
??_D_objref_ProxyConsumer@CosNotifyChannelAdmin@@IAEXXZ
??_D_objref_ProxyPullConsumer@AttNotification@@IAEXXZ
??_D_objref_ProxyPullConsumer@CosEventChannelAdmin@@IAEXXZ
??_D_objref_ProxyPullConsumer@CosNotifyChannelAdmin@@IAEXXZ
??_D_objref_ProxyPullSupplier@AttNotification@@IAEXXZ
??_D_objref_ProxyPullSupplier@CosEventChannelAdmin@@IAEXXZ
??_D_objref_ProxyPullSupplier@CosNotifyChannelAdmin@@IAEXXZ
??_D_objref_ProxyPushConsumer@AttNotification@@IAEXXZ
??_D_objref_ProxyPushConsumer@CosEventChannelAdmin@@IAEXXZ
??_D_objref_ProxyPushConsumer@CosNotifyChannelAdmin@@IAEXXZ
??_D_objref_ProxyPushSupplier@AttNotification@@IAEXXZ
??_D_objref_ProxyPushSupplier@CosEventChannelAdmin@@IAEXXZ
??_D_objref_ProxyPushSupplier@CosNotifyChannelAdmin@@IAEXXZ
??_D_objref_ProxySupplier@CosNotifyChannelAdmin@@IAEXXZ
??_D_objref_PullConsumer@CosEventComm@@IAEXXZ
??_D_objref_PullConsumer@CosNotifyComm@@IAEXXZ
??_D_objref_PullSupplier@CosEventComm@@IAEXXZ
??_D_objref_PullSupplier@CosNotifyComm@@IAEXXZ
??_D_objref_PushConsumer@CosEventComm@@IAEXXZ
??_D_objref_PushConsumer@CosNotifyComm@@IAEXXZ
??_D_objref_PushSupplier@CosEventComm@@IAEXXZ
??_D_objref_PushSupplier@CosNotifyComm@@IAEXXZ
??_D_objref_QoSAdmin@CosNotification@@IAEXXZ
??_D_objref_SequenceProxyPullConsumer@AttNotification@@IAEXXZ
??_D_objref_SequenceProxyPullConsumer@CosNotifyChannelAdmin@@IAEXXZ
??_D_objref_SequenceProxyPullSupplier@AttNotification@@IAEXXZ
??_D_objref_SequenceProxyPullSupplier@CosNotifyChannelAdmin@@IAEXXZ
??_D_objref_SequenceProxyPushConsumer@AttNotification@@IAEXXZ
??_D_objref_SequenceProxyPushConsumer@CosNotifyChannelAdmin@@IAEXXZ
??_D_objref_SequenceProxyPushSupplier@AttNotification@@IAEXXZ
??_D_objref_SequenceProxyPushSupplier@CosNotifyChannelAdmin@@IAEXXZ
??_D_objref_SequencePullConsumer@CosNotifyComm@@IAEXXZ
??_D_objref_SequencePullSupplier@CosNotifyComm@@IAEXXZ
??_D_objref_SequencePushConsumer@CosNotifyComm@@IAEXXZ
??_D_objref_SequencePushSupplier@CosNotifyComm@@IAEXXZ
??_D_objref_Server@AttNotification@@IAEXXZ
??_D_objref_StructuredProxyPullConsumer@AttNotification@@IAEXXZ
??_D_objref_StructuredProxyPullConsumer@CosNotifyChannelAdmin@@IAEXXZ
??_D_objref_StructuredProxyPullSupplier@AttNotification@@IAEXXZ
??_D_objref_StructuredProxyPullSupplier@CosNotifyChannelAdmin@@IAEXXZ
??_D_objref_StructuredProxyPushConsumer@AttNotification@@IAEXXZ
??_D_objref_StructuredProxyPushConsumer@CosNotifyChannelAdmin@@IAEXXZ
??_D_objref_StructuredProxyPushSupplier@AttNotification@@IAEXXZ
??_D_objref_StructuredProxyPushSupplier@CosNotifyChannelAdmin@@IAEXXZ
??_D_objref_StructuredPullConsumer@CosNotifyComm@@IAEXXZ
??_D_objref_StructuredPullSupplier@CosNotifyComm@@IAEXXZ
??_D_objref_StructuredPushConsumer@CosNotifyComm@@IAEXXZ
??_D_objref_StructuredPushSupplier@CosNotifyComm@@IAEXXZ
??_D_objref_SupplierAdmin@AttNotification@@IAEXXZ
??_D_objref_SupplierAdmin@CosEventChannelAdmin@@IAEXXZ
??_D_objref_SupplierAdmin@CosNotifyChannelAdmin@@IAEXXZ
?MyFID@_objref_Filter@AttNotification@@QAEJXZ
?_NP_duplicate@UnsupportedServerProp@AttNotification@@UBEPAVException@CORBA@@XZ
?_NP_is_nil@Object@CORBA@@QBE_NXZ
?_NP_is_pseudo@Object@CORBA@@QBE_NXZ
?_NP_marshal@UnsupportedServerProp@AttNotification@@EBEXAAVcdrStream@@@Z
?_NP_repoId@UnsupportedServerProp@AttNotification@@EBEPBDPAH@Z
?_NP_typeId@UnsupportedServerProp@AttNotification@@EBEPBDXZ
?_PD_repoId@ConsumerAdmin@AttNotification@@2PBDB
?_PD_repoId@CosEvProxyPullConsumer@AttNotification@@2PBDB
?_PD_repoId@CosEvProxyPullSupplier@AttNotification@@2PBDB
?_PD_repoId@CosEvProxyPushConsumer@AttNotification@@2PBDB
?_PD_repoId@CosEvProxyPushSupplier@AttNotification@@2PBDB
?_PD_repoId@EventChannel@AttNotification@@2PBDB
?_PD_repoId@EventChannelFactory@AttNotification@@2PBDB
?_PD_repoId@Filter@AttNotification@@2PBDB
?_PD_repoId@FilterFactory@AttNotification@@2PBDB
?_PD_repoId@Interactive@AttNotification@@2PBDB
?_PD_repoId@MappingFilter@AttNotification@@2PBDB
?_PD_repoId@ProxyPullConsumer@AttNotification@@2PBDB
?_PD_repoId@ProxyPullSupplier@AttNotification@@2PBDB
?_PD_repoId@ProxyPushConsumer@AttNotification@@2PBDB
?_PD_repoId@ProxyPushSupplier@AttNotification@@2PBDB
?_PD_repoId@SequenceProxyPullConsumer@AttNotification@@2PBDB
?_PD_repoId@SequenceProxyPullSupplier@AttNotification@@2PBDB
?_PD_repoId@SequenceProxyPushConsumer@AttNotification@@2PBDB
?_PD_repoId@SequenceProxyPushSupplier@AttNotification@@2PBDB
?_PD_repoId@Server@AttNotification@@2PBDB
?_PD_repoId@StructuredProxyPullConsumer@AttNotification@@2PBDB
?_PD_repoId@StructuredProxyPullSupplier@AttNotification@@2PBDB
?_PD_repoId@StructuredProxyPushConsumer@AttNotification@@2PBDB
?_PD_repoId@StructuredProxyPushSupplier@AttNotification@@2PBDB
?_PD_repoId@SupplierAdmin@AttNotification@@2PBDB
?_PD_repoId@UnsupportedServerProp@AttNotification@@2PBDB
?_PD_typeId@UnsupportedServerProp@AttNotification@@2PBDB
?_PR_getobj@Object@CORBA@@QAEPAVomniObjRef@@XZ
?_PR_is_valid@Object@CORBA@@SA_NPAV12@@Z
?_PR_setobj@Object@CORBA@@QAEXPAVomniObjRef@@@Z
?_add_ref@ServantBase@PortableServer@@$R47BA@PPPPPPPM@BA@AEXXZ
?_add_ref@ServantBase@PortableServer@@$R47BE@PPPPPPPM@BA@AEXXZ
?_add_ref@ServantBase@PortableServer@@$R47BI@PPPPPPPM@BA@AEXXZ
?_add_ref@ServantBase@PortableServer@@$R47BM@PPPPPPPM@BA@AEXXZ
?_add_ref@ServantBase@PortableServer@@$R47CA@PPPPPPPM@BA@AEXXZ
?_add_ref@ServantBase@PortableServer@@$R47CE@PPPPPPPM@BA@AEXXZ
?_add_ref@ServantBase@PortableServer@@$R47CI@PPPPPPPM@BA@AEXXZ
?_add_ref@ServantBase@PortableServer@@$R47CM@PPPPPPPM@BA@AEXXZ
?_add_ref@ServantBase@PortableServer@@$R47M@PPPPPPPM@BA@AEXXZ
?_dispatch@_impl_ConsumerAdmin@AttNotification@@$4PPPPPPPM@A@AE_NAAVomniCallHandle@@@Z
?_dispatch@_impl_ConsumerAdmin@AttNotification@@$R47CA@PPPPPPPM@7AE_NAAVomniCallHandle@@@Z
?_dispatch@_impl_ConsumerAdmin@AttNotification@@UAE_NAAVomniCallHandle@@@Z
?_dispatch@_impl_CosEvProxyPullConsumer@AttNotification@@$4PPPPPPPM@A@AE_NAAVomniCallHandle@@@Z
?_dispatch@_impl_CosEvProxyPullConsumer@AttNotification@@$R47BE@PPPPPPPM@7AE_NAAVomniCallHandle@@@Z
?_dispatch@_impl_CosEvProxyPullConsumer@AttNotification@@UAE_NAAVomniCallHandle@@@Z
?_dispatch@_impl_CosEvProxyPullSupplier@AttNotification@@$4PPPPPPPM@A@AE_NAAVomniCallHandle@@@Z
?_dispatch@_impl_CosEvProxyPullSupplier@AttNotification@@$R47BE@PPPPPPPM@7AE_NAAVomniCallHandle@@@Z
?_dispatch@_impl_CosEvProxyPullSupplier@AttNotification@@UAE_NAAVomniCallHandle@@@Z
?_dispatch@_impl_CosEvProxyPushConsumer@AttNotification@@$4PPPPPPPM@A@AE_NAAVomniCallHandle@@@Z
?_dispatch@_impl_CosEvProxyPushConsumer@AttNotification@@$R47BE@PPPPPPPM@7AE_NAAVomniCallHandle@@@Z
?_dispatch@_impl_CosEvProxyPushConsumer@AttNotification@@UAE_NAAVomniCallHandle@@@Z
?_dispatch@_impl_CosEvProxyPushSupplier@AttNotification@@$4PPPPPPPM@A@AE_NAAVomniCallHandle@@@Z
?_dispatch@_impl_CosEvProxyPushSupplier@AttNotification@@$R47BE@PPPPPPPM@7AE_NAAVomniCallHandle@@@Z
?_dispatch@_impl_CosEvProxyPushSupplier@AttNotification@@UAE_NAAVomniCallHandle@@@Z
?_dispatch@_impl_EventChannel@AttNotification@@$4PPPPPPPM@A@AE_NAAVomniCallHandle@@@Z
?_dispatch@_impl_EventChannel@AttNotification@@$R47BM@PPPPPPPM@M@AE_NAAVomniCallHandle@@@Z
?_dispatch@_impl_EventChannel@AttNotification@@UAE_NAAVomniCallHandle@@@Z
?_dispatch@_impl_EventChannelFactory@AttNotification@@$4PPPPPPPM@A@AE_NAAVomniCallHandle@@@Z
?_dispatch@_impl_EventChannelFactory@AttNotification@@$R47BI@PPPPPPPM@7AE_NAAVomniCallHandle@@@Z
?_dispatch@_impl_EventChannelFactory@AttNotification@@UAE_NAAVomniCallHandle@@@Z
?_dispatch@_impl_Filter@AttNotification@@$4PPPPPPPM@A@AE_NAAVomniCallHandle@@@Z
?_dispatch@_impl_Filter@AttNotification@@$R47BA@PPPPPPPM@M@AE_NAAVomniCallHandle@@@Z
?_dispatch@_impl_Filter@AttNotification@@UAE_NAAVomniCallHandle@@@Z
?_dispatch@_impl_FilterFactory@AttNotification@@$4PPPPPPPM@A@AE_NAAVomniCallHandle@@@Z
?_dispatch@_impl_FilterFactory@AttNotification@@$R47BA@PPPPPPPM@7AE_NAAVomniCallHandle@@@Z
?_dispatch@_impl_FilterFactory@AttNotification@@UAE_NAAVomniCallHandle@@@Z
?_dispatch@_impl_Interactive@AttNotification@@$4PPPPPPPM@A@AE_NAAVomniCallHandle@@@Z
?_dispatch@_impl_Interactive@AttNotification@@$R477PPPPPPPM@M@AE_NAAVomniCallHandle@@@Z
?_dispatch@_impl_Interactive@AttNotification@@UAE_NAAVomniCallHandle@@@Z
?_dispatch@_impl_MappingFilter@AttNotification@@$4PPPPPPPM@A@AE_NAAVomniCallHandle@@@Z
?_dispatch@_impl_MappingFilter@AttNotification@@$R47BA@PPPPPPPM@7AE_NAAVomniCallHandle@@@Z
?_dispatch@_impl_MappingFilter@AttNotification@@UAE_NAAVomniCallHandle@@@Z
?_dispatch@_impl_ProxyPullConsumer@AttNotification@@$4PPPPPPPM@A@AE_NAAVomniCallHandle@@@Z
?_dispatch@_impl_ProxyPullConsumer@AttNotification@@$R47CI@PPPPPPPM@7AE_NAAVomniCallHandle@@@Z
?_dispatch@_impl_ProxyPullConsumer@AttNotification@@UAE_NAAVomniCallHandle@@@Z
?_dispatch@_impl_ProxyPullSupplier@AttNotification@@$4PPPPPPPM@A@AE_NAAVomniCallHandle@@@Z
?_dispatch@_impl_ProxyPullSupplier@AttNotification@@$R47CI@PPPPPPPM@7AE_NAAVomniCallHandle@@@Z
?_dispatch@_impl_ProxyPullSupplier@AttNotification@@UAE_NAAVomniCallHandle@@@Z
?_dispatch@_impl_ProxyPushConsumer@AttNotification@@$4PPPPPPPM@A@AE_NAAVomniCallHandle@@@Z
?_dispatch@_impl_ProxyPushConsumer@AttNotification@@$R47CI@PPPPPPPM@7AE_NAAVomniCallHandle@@@Z
?_dispatch@_impl_ProxyPushConsumer@AttNotification@@UAE_NAAVomniCallHandle@@@Z
?_dispatch@_impl_ProxyPushSupplier@AttNotification@@$4PPPPPPPM@A@AE_NAAVomniCallHandle@@@Z
?_dispatch@_impl_ProxyPushSupplier@AttNotification@@$R47CI@PPPPPPPM@7AE_NAAVomniCallHandle@@@Z
?_dispatch@_impl_ProxyPushSupplier@AttNotification@@UAE_NAAVomniCallHandle@@@Z
?_dispatch@_impl_SequenceProxyPullConsumer@AttNotification@@$4PPPPPPPM@A@AE_NAAVomniCallHandle@@@Z
?_dispatch@_impl_SequenceProxyPullConsumer@AttNotification@@$R47CE@PPPPPPPM@7AE_NAAVomniCallHandle@@@Z
?_dispatch@_impl_SequenceProxyPullConsumer@AttNotification@@UAE_NAAVomniCallHandle@@@Z
?_dispatch@_impl_SequenceProxyPullSupplier@AttNotification@@$4PPPPPPPM@A@AE_NAAVomniCallHandle@@@Z
?_dispatch@_impl_SequenceProxyPullSupplier@AttNotification@@$R47CE@PPPPPPPM@7AE_NAAVomniCallHandle@@@Z
?_dispatch@_impl_SequenceProxyPullSupplier@AttNotification@@UAE_NAAVomniCallHandle@@@Z
?_dispatch@_impl_SequenceProxyPushConsumer@AttNotification@@$4PPPPPPPM@A@AE_NAAVomniCallHandle@@@Z
?_dispatch@_impl_SequenceProxyPushConsumer@AttNotification@@$R47CE@PPPPPPPM@7AE_NAAVomniCallHandle@@@Z
?_dispatch@_impl_SequenceProxyPushConsumer@AttNotification@@UAE_NAAVomniCallHandle@@@Z
?_dispatch@_impl_SequenceProxyPushSupplier@AttNotification@@$4PPPPPPPM@A@AE_NAAVomniCallHandle@@@Z
?_dispatch@_impl_SequenceProxyPushSupplier@AttNotification@@$R47CE@PPPPPPPM@7AE_NAAVomniCallHandle@@@Z
?_dispatch@_impl_SequenceProxyPushSupplier@AttNotification@@UAE_NAAVomniCallHandle@@@Z
?_dispatch@_impl_Server@AttNotification@@$4PPPPPPPM@A@AE_NAAVomniCallHandle@@@Z
?_dispatch@_impl_Server@AttNotification@@$R47M@PPPPPPPM@M@AE_NAAVomniCallHandle@@@Z
?_dispatch@_impl_Server@AttNotification@@UAE_NAAVomniCallHandle@@@Z
?_dispatch@_impl_StructuredProxyPullConsumer@AttNotification@@$4PPPPPPPM@A@AE_NAAVomniCallHandle@@@Z
?_dispatch@_impl_StructuredProxyPullConsumer@AttNotification@@$R47CE@PPPPPPPM@7AE_NAAVomniCallHandle@@@Z
?_dispatch@_impl_StructuredProxyPullConsumer@AttNotification@@UAE_NAAVomniCallHandle@@@Z
?_dispatch@_impl_StructuredProxyPullSupplier@AttNotification@@$4PPPPPPPM@A@AE_NAAVomniCallHandle@@@Z
?_dispatch@_impl_StructuredProxyPullSupplier@AttNotification@@$R47CE@PPPPPPPM@7AE_NAAVomniCallHandle@@@Z
?_dispatch@_impl_StructuredProxyPullSupplier@AttNotification@@UAE_NAAVomniCallHandle@@@Z
?_dispatch@_impl_StructuredProxyPushConsumer@AttNotification@@$4PPPPPPPM@A@AE_NAAVomniCallHandle@@@Z
?_dispatch@_impl_StructuredProxyPushConsumer@AttNotification@@$R47CE@PPPPPPPM@7AE_NAAVomniCallHandle@@@Z
?_dispatch@_impl_StructuredProxyPushConsumer@AttNotification@@UAE_NAAVomniCallHandle@@@Z
?_dispatch@_impl_StructuredProxyPushSupplier@AttNotification@@$4PPPPPPPM@A@AE_NAAVomniCallHandle@@@Z
?_dispatch@_impl_StructuredProxyPushSupplier@AttNotification@@$R47CE@PPPPPPPM@7AE_NAAVomniCallHandle@@@Z
?_dispatch@_impl_StructuredProxyPushSupplier@AttNotification@@UAE_NAAVomniCallHandle@@@Z
?_dispatch@_impl_SupplierAdmin@AttNotification@@$4PPPPPPPM@A@AE_NAAVomniCallHandle@@@Z
?_dispatch@_impl_SupplierAdmin@AttNotification@@$R47CA@PPPPPPPM@7AE_NAAVomniCallHandle@@@Z
?_dispatch@_impl_SupplierAdmin@AttNotification@@UAE_NAAVomniCallHandle@@@Z
?_do_get_interface@ServantBase@PortableServer@@$R07BA@PPPPPPPM@BA@AEPAVomniObjRef@@XZ
?_do_get_interface@ServantBase@PortableServer@@$R07BE@PPPPPPPM@BA@AEPAVomniObjRef@@XZ
?_do_get_interface@ServantBase@PortableServer@@$R07BI@PPPPPPPM@BA@AEPAVomniObjRef@@XZ
?_do_get_interface@ServantBase@PortableServer@@$R07BM@PPPPPPPM@BA@AEPAVomniObjRef@@XZ
?_do_get_interface@ServantBase@PortableServer@@$R07CA@PPPPPPPM@BA@AEPAVomniObjRef@@XZ
?_do_get_interface@ServantBase@PortableServer@@$R07CE@PPPPPPPM@BA@AEPAVomniObjRef@@XZ
?_do_get_interface@ServantBase@PortableServer@@$R07CI@PPPPPPPM@BA@AEPAVomniObjRef@@XZ
?_do_get_interface@ServantBase@PortableServer@@$R07CM@PPPPPPPM@BA@AEPAVomniObjRef@@XZ
?_do_get_interface@ServantBase@PortableServer@@$R07M@PPPPPPPM@BA@AEPAVomniObjRef@@XZ
?_downcast@ServantBase@PortableServer@@$R07BA@PPPPPPPM@BA@AEPAXXZ
?_downcast@ServantBase@PortableServer@@$R07BE@PPPPPPPM@BA@AEPAXXZ
?_downcast@ServantBase@PortableServer@@$R07BI@PPPPPPPM@BA@AEPAXXZ
?_downcast@ServantBase@PortableServer@@$R07BM@PPPPPPPM@BA@AEPAXXZ
?_downcast@ServantBase@PortableServer@@$R07CA@PPPPPPPM@BA@AEPAXXZ
?_downcast@ServantBase@PortableServer@@$R07CE@PPPPPPPM@BA@AEPAXXZ
?_downcast@ServantBase@PortableServer@@$R07CI@PPPPPPPM@BA@AEPAXXZ
?_downcast@ServantBase@PortableServer@@$R07CM@PPPPPPPM@BA@AEPAXXZ
?_downcast@ServantBase@PortableServer@@$R07M@PPPPPPPM@BA@AEPAXXZ
?_downcast@UnsupportedServerProp@AttNotification@@SAPAV12@PAVException@CORBA@@@Z
?_downcast@UnsupportedServerProp@AttNotification@@SAPBV12@PBVException@CORBA@@@Z
?_duplicate@ConsumerAdmin@AttNotification@@SAPAV_objref_ConsumerAdmin@2@PAV32@@Z
?_duplicate@CosEvProxyPullConsumer@AttNotification@@SAPAV_objref_CosEvProxyPullConsumer@2@PAV32@@Z
?_duplicate@CosEvProxyPullSupplier@AttNotification@@SAPAV_objref_CosEvProxyPullSupplier@2@PAV32@@Z
?_duplicate@CosEvProxyPushConsumer@AttNotification@@SAPAV_objref_CosEvProxyPushConsumer@2@PAV32@@Z
?_duplicate@CosEvProxyPushSupplier@AttNotification@@SAPAV_objref_CosEvProxyPushSupplier@2@PAV32@@Z
?_duplicate@EventChannel@AttNotification@@SAPAV_objref_EventChannel@2@PAV32@@Z
?_duplicate@EventChannelFactory@AttNotification@@SAPAV_objref_EventChannelFactory@2@PAV32@@Z
?_duplicate@Filter@AttNotification@@SAPAV_objref_Filter@2@PAV32@@Z
?_duplicate@FilterFactory@AttNotification@@SAPAV_objref_FilterFactory@2@PAV32@@Z
?_duplicate@Interactive@AttNotification@@SAPAV_objref_Interactive@2@PAV32@@Z
?_duplicate@MappingFilter@AttNotification@@SAPAV_objref_MappingFilter@2@PAV32@@Z
?_duplicate@ProxyPullConsumer@AttNotification@@SAPAV_objref_ProxyPullConsumer@2@PAV32@@Z
?_duplicate@ProxyPullSupplier@AttNotification@@SAPAV_objref_ProxyPullSupplier@2@PAV32@@Z
?_duplicate@ProxyPushConsumer@AttNotification@@SAPAV_objref_ProxyPushConsumer@2@PAV32@@Z
?_duplicate@ProxyPushSupplier@AttNotification@@SAPAV_objref_ProxyPushSupplier@2@PAV32@@Z
?_duplicate@SequenceProxyPullConsumer@AttNotification@@SAPAV_objref_SequenceProxyPullConsumer@2@PAV32@@Z
?_duplicate@SequenceProxyPullSupplier@AttNotification@@SAPAV_objref_SequenceProxyPullSupplier@2@PAV32@@Z
?_duplicate@SequenceProxyPushConsumer@AttNotification@@SAPAV_objref_SequenceProxyPushConsumer@2@PAV32@@Z
?_duplicate@SequenceProxyPushSupplier@AttNotification@@SAPAV_objref_SequenceProxyPushSupplier@2@PAV32@@Z
?_duplicate@Server@AttNotification@@SAPAV_objref_Server@2@PAV32@@Z
?_duplicate@StructuredProxyPullConsumer@AttNotification@@SAPAV_objref_StructuredProxyPullConsumer@2@PAV32@@Z
?_duplicate@StructuredProxyPullSupplier@AttNotification@@SAPAV_objref_StructuredProxyPullSupplier@2@PAV32@@Z
?_duplicate@StructuredProxyPushConsumer@AttNotification@@SAPAV_objref_StructuredProxyPushConsumer@2@PAV32@@Z
?_duplicate@StructuredProxyPushSupplier@AttNotification@@SAPAV_objref_StructuredProxyPushSupplier@2@PAV32@@Z
?_duplicate@SupplierAdmin@AttNotification@@SAPAV_objref_SupplierAdmin@2@PAV32@@Z
?_marshalObjRef@ConsumerAdmin@AttNotification@@SAXPAV_objref_ConsumerAdmin@2@AAVcdrStream@@@Z
?_marshalObjRef@CosEvProxyPullConsumer@AttNotification@@SAXPAV_objref_CosEvProxyPullConsumer@2@AAVcdrStream@@@Z
?_marshalObjRef@CosEvProxyPullSupplier@AttNotification@@SAXPAV_objref_CosEvProxyPullSupplier@2@AAVcdrStream@@@Z
?_marshalObjRef@CosEvProxyPushConsumer@AttNotification@@SAXPAV_objref_CosEvProxyPushConsumer@2@AAVcdrStream@@@Z
?_marshalObjRef@CosEvProxyPushSupplier@AttNotification@@SAXPAV_objref_CosEvProxyPushSupplier@2@AAVcdrStream@@@Z
?_marshalObjRef@EventChannel@AttNotification@@SAXPAV_objref_EventChannel@2@AAVcdrStream@@@Z
?_marshalObjRef@EventChannelFactory@AttNotification@@SAXPAV_objref_EventChannelFactory@2@AAVcdrStream@@@Z
?_marshalObjRef@Filter@AttNotification@@SAXPAV_objref_Filter@2@AAVcdrStream@@@Z
?_marshalObjRef@FilterFactory@AttNotification@@SAXPAV_objref_FilterFactory@2@AAVcdrStream@@@Z
?_marshalObjRef@Interactive@AttNotification@@SAXPAV_objref_Interactive@2@AAVcdrStream@@@Z
?_marshalObjRef@MappingFilter@AttNotification@@SAXPAV_objref_MappingFilter@2@AAVcdrStream@@@Z
?_marshalObjRef@ProxyPullConsumer@AttNotification@@SAXPAV_objref_ProxyPullConsumer@2@AAVcdrStream@@@Z
?_marshalObjRef@ProxyPullSupplier@AttNotification@@SAXPAV_objref_ProxyPullSupplier@2@AAVcdrStream@@@Z
?_marshalObjRef@ProxyPushConsumer@AttNotification@@SAXPAV_objref_ProxyPushConsumer@2@AAVcdrStream@@@Z
?_marshalObjRef@ProxyPushSupplier@AttNotification@@SAXPAV_objref_ProxyPushSupplier@2@AAVcdrStream@@@Z
?_marshalObjRef@SequenceProxyPullConsumer@AttNotification@@SAXPAV_objref_SequenceProxyPullConsumer@2@AAVcdrStream@@@Z
?_marshalObjRef@SequenceProxyPullSupplier@AttNotification@@SAXPAV_objref_SequenceProxyPullSupplier@2@AAVcdrStream@@@Z
?_marshalObjRef@SequenceProxyPushConsumer@AttNotification@@SAXPAV_objref_SequenceProxyPushConsumer@2@AAVcdrStream@@@Z
?_marshalObjRef@SequenceProxyPushSupplier@AttNotification@@SAXPAV_objref_SequenceProxyPushSupplier@2@AAVcdrStream@@@Z
?_marshalObjRef@Server@AttNotification@@SAXPAV_objref_Server@2@AAVcdrStream@@@Z
?_marshalObjRef@StructuredProxyPullConsumer@AttNotification@@SAXPAV_objref_StructuredProxyPullConsumer@2@AAVcdrStream@@@Z
?_marshalObjRef@StructuredProxyPullSupplier@AttNotification@@SAXPAV_objref_StructuredProxyPullSupplier@2@AAVcdrStream@@@Z
?_marshalObjRef@StructuredProxyPushConsumer@AttNotification@@SAXPAV_objref_StructuredProxyPushConsumer@2@AAVcdrStream@@@Z
?_marshalObjRef@StructuredProxyPushSupplier@AttNotification@@SAXPAV_objref_StructuredProxyPushSupplier@2@AAVcdrStream@@@Z
?_marshalObjRef@SupplierAdmin@AttNotification@@SAXPAV_objref_SupplierAdmin@2@AAVcdrStream@@@Z
?_mostDerivedRepoId@_impl_ConsumerAdmin@AttNotification@@$0PPPPPPPM@A@AEPBDXZ
?_mostDerivedRepoId@_impl_ConsumerAdmin@AttNotification@@$R07CA@PPPPPPPM@7AEPBDXZ
?_mostDerivedRepoId@_impl_ConsumerAdmin@AttNotification@@EAEPBDXZ
?_mostDerivedRepoId@_impl_CosEvProxyPullConsumer@AttNotification@@$0PPPPPPPM@A@AEPBDXZ
?_mostDerivedRepoId@_impl_CosEvProxyPullConsumer@AttNotification@@$R07BE@PPPPPPPM@7AEPBDXZ
?_mostDerivedRepoId@_impl_CosEvProxyPullConsumer@AttNotification@@EAEPBDXZ
?_mostDerivedRepoId@_impl_CosEvProxyPullSupplier@AttNotification@@$0PPPPPPPM@A@AEPBDXZ
?_mostDerivedRepoId@_impl_CosEvProxyPullSupplier@AttNotification@@$R07BE@PPPPPPPM@7AEPBDXZ
?_mostDerivedRepoId@_impl_CosEvProxyPullSupplier@AttNotification@@EAEPBDXZ
?_mostDerivedRepoId@_impl_CosEvProxyPushConsumer@AttNotification@@$0PPPPPPPM@A@AEPBDXZ
?_mostDerivedRepoId@_impl_CosEvProxyPushConsumer@AttNotification@@$R07BE@PPPPPPPM@7AEPBDXZ
?_mostDerivedRepoId@_impl_CosEvProxyPushConsumer@AttNotification@@EAEPBDXZ
?_mostDerivedRepoId@_impl_CosEvProxyPushSupplier@AttNotification@@$0PPPPPPPM@A@AEPBDXZ
?_mostDerivedRepoId@_impl_CosEvProxyPushSupplier@AttNotification@@$R07BE@PPPPPPPM@7AEPBDXZ
?_mostDerivedRepoId@_impl_CosEvProxyPushSupplier@AttNotification@@EAEPBDXZ
?_mostDerivedRepoId@_impl_EventChannel@AttNotification@@$0PPPPPPPM@A@AEPBDXZ
?_mostDerivedRepoId@_impl_EventChannel@AttNotification@@$R07BM@PPPPPPPM@M@AEPBDXZ
?_mostDerivedRepoId@_impl_EventChannel@AttNotification@@EAEPBDXZ
?_mostDerivedRepoId@_impl_EventChannelFactory@AttNotification@@$0PPPPPPPM@A@AEPBDXZ
?_mostDerivedRepoId@_impl_EventChannelFactory@AttNotification@@$R07BI@PPPPPPPM@7AEPBDXZ
?_mostDerivedRepoId@_impl_EventChannelFactory@AttNotification@@EAEPBDXZ
?_mostDerivedRepoId@_impl_Filter@AttNotification@@$0PPPPPPPM@A@AEPBDXZ
?_mostDerivedRepoId@_impl_Filter@AttNotification@@$R07BA@PPPPPPPM@M@AEPBDXZ
?_mostDerivedRepoId@_impl_Filter@AttNotification@@EAEPBDXZ
?_mostDerivedRepoId@_impl_FilterFactory@AttNotification@@$0PPPPPPPM@A@AEPBDXZ
?_mostDerivedRepoId@_impl_FilterFactory@AttNotification@@$R07BA@PPPPPPPM@7AEPBDXZ
?_mostDerivedRepoId@_impl_FilterFactory@AttNotification@@EAEPBDXZ
?_mostDerivedRepoId@_impl_Interactive@AttNotification@@$0PPPPPPPM@A@AEPBDXZ
?_mostDerivedRepoId@_impl_Interactive@AttNotification@@$R077PPPPPPPM@M@AEPBDXZ
?_mostDerivedRepoId@_impl_Interactive@AttNotification@@EAEPBDXZ
?_mostDerivedRepoId@_impl_MappingFilter@AttNotification@@$0PPPPPPPM@A@AEPBDXZ
?_mostDerivedRepoId@_impl_MappingFilter@AttNotification@@$R07BA@PPPPPPPM@7AEPBDXZ
?_mostDerivedRepoId@_impl_MappingFilter@AttNotification@@EAEPBDXZ
?_mostDerivedRepoId@_impl_ProxyPullConsumer@AttNotification@@$0PPPPPPPM@A@AEPBDXZ
?_mostDerivedRepoId@_impl_ProxyPullConsumer@AttNotification@@$R07CI@PPPPPPPM@7AEPBDXZ
?_mostDerivedRepoId@_impl_ProxyPullConsumer@AttNotification@@EAEPBDXZ
?_mostDerivedRepoId@_impl_ProxyPullSupplier@AttNotification@@$0PPPPPPPM@A@AEPBDXZ
?_mostDerivedRepoId@_impl_ProxyPullSupplier@AttNotification@@$R07CI@PPPPPPPM@7AEPBDXZ
?_mostDerivedRepoId@_impl_ProxyPullSupplier@AttNotification@@EAEPBDXZ
?_mostDerivedRepoId@_impl_ProxyPushConsumer@AttNotification@@$0PPPPPPPM@A@AEPBDXZ
?_mostDerivedRepoId@_impl_ProxyPushConsumer@AttNotification@@$R07CI@PPPPPPPM@7AEPBDXZ
?_mostDerivedRepoId@_impl_ProxyPushConsumer@AttNotification@@EAEPBDXZ
?_mostDerivedRepoId@_impl_ProxyPushSupplier@AttNotification@@$0PPPPPPPM@A@AEPBDXZ
?_mostDerivedRepoId@_impl_ProxyPushSupplier@AttNotification@@$R07CI@PPPPPPPM@7AEPBDXZ
?_mostDerivedRepoId@_impl_ProxyPushSupplier@AttNotification@@EAEPBDXZ
?_mostDerivedRepoId@_impl_SequenceProxyPullConsumer@AttNotification@@$0PPPPPPPM@A@AEPBDXZ
?_mostDerivedRepoId@_impl_SequenceProxyPullConsumer@AttNotification@@$R07CE@PPPPPPPM@7AEPBDXZ
?_mostDerivedRepoId@_impl_SequenceProxyPullConsumer@AttNotification@@EAEPBDXZ
?_mostDerivedRepoId@_impl_SequenceProxyPullSupplier@AttNotification@@$0PPPPPPPM@A@AEPBDXZ
?_mostDerivedRepoId@_impl_SequenceProxyPullSupplier@AttNotification@@$R07CE@PPPPPPPM@7AEPBDXZ
?_mostDerivedRepoId@_impl_SequenceProxyPullSupplier@AttNotification@@EAEPBDXZ
?_mostDerivedRepoId@_impl_SequenceProxyPushConsumer@AttNotification@@$0PPPPPPPM@A@AEPBDXZ
?_mostDerivedRepoId@_impl_SequenceProxyPushConsumer@AttNotification@@$R07CE@PPPPPPPM@7AEPBDXZ
?_mostDerivedRepoId@_impl_SequenceProxyPushConsumer@AttNotification@@EAEPBDXZ
?_mostDerivedRepoId@_impl_SequenceProxyPushSupplier@AttNotification@@$0PPPPPPPM@A@AEPBDXZ
?_mostDerivedRepoId@_impl_SequenceProxyPushSupplier@AttNotification@@$R07CE@PPPPPPPM@7AEPBDXZ
?_mostDerivedRepoId@_impl_SequenceProxyPushSupplier@AttNotification@@EAEPBDXZ
?_mostDerivedRepoId@_impl_Server@AttNotification@@$0PPPPPPPM@A@AEPBDXZ
?_mostDerivedRepoId@_impl_Server@AttNotification@@$R07M@PPPPPPPM@M@AEPBDXZ
?_mostDerivedRepoId@_impl_Server@AttNotification@@EAEPBDXZ
?_mostDerivedRepoId@_impl_StructuredProxyPullConsumer@AttNotification@@$0PPPPPPPM@A@AEPBDXZ
?_mostDerivedRepoId@_impl_StructuredProxyPullConsumer@AttNotification@@$R07CE@PPPPPPPM@7AEPBDXZ
?_mostDerivedRepoId@_impl_StructuredProxyPullConsumer@AttNotification@@EAEPBDXZ
?_mostDerivedRepoId@_impl_StructuredProxyPullSupplier@AttNotification@@$0PPPPPPPM@A@AEPBDXZ
?_mostDerivedRepoId@_impl_StructuredProxyPullSupplier@AttNotification@@$R07CE@PPPPPPPM@7AEPBDXZ
?_mostDerivedRepoId@_impl_StructuredProxyPullSupplier@AttNotification@@EAEPBDXZ
?_mostDerivedRepoId@_impl_StructuredProxyPushConsumer@AttNotification@@$0PPPPPPPM@A@AEPBDXZ
?_mostDerivedRepoId@_impl_StructuredProxyPushConsumer@AttNotification@@$R07CE@PPPPPPPM@7AEPBDXZ
?_mostDerivedRepoId@_impl_StructuredProxyPushConsumer@AttNotification@@EAEPBDXZ
?_mostDerivedRepoId@_impl_StructuredProxyPushSupplier@AttNotification@@$0PPPPPPPM@A@AEPBDXZ
?_mostDerivedRepoId@_impl_StructuredProxyPushSupplier@AttNotification@@$R07CE@PPPPPPPM@7AEPBDXZ
?_mostDerivedRepoId@_impl_StructuredProxyPushSupplier@AttNotification@@EAEPBDXZ
?_mostDerivedRepoId@_impl_SupplierAdmin@AttNotification@@$0PPPPPPPM@A@AEPBDXZ
?_mostDerivedRepoId@_impl_SupplierAdmin@AttNotification@@$R07CA@PPPPPPPM@7AEPBDXZ
?_mostDerivedRepoId@_impl_SupplierAdmin@AttNotification@@EAEPBDXZ
?_narrow@ConsumerAdmin@AttNotification@@SAPAV_objref_ConsumerAdmin@2@PAVObject@CORBA@@@Z
?_narrow@CosEvProxyPullConsumer@AttNotification@@SAPAV_objref_CosEvProxyPullConsumer@2@PAVObject@CORBA@@@Z
?_narrow@CosEvProxyPullSupplier@AttNotification@@SAPAV_objref_CosEvProxyPullSupplier@2@PAVObject@CORBA@@@Z
?_narrow@CosEvProxyPushConsumer@AttNotification@@SAPAV_objref_CosEvProxyPushConsumer@2@PAVObject@CORBA@@@Z
?_narrow@CosEvProxyPushSupplier@AttNotification@@SAPAV_objref_CosEvProxyPushSupplier@2@PAVObject@CORBA@@@Z
?_narrow@EventChannel@AttNotification@@SAPAV_objref_EventChannel@2@PAVObject@CORBA@@@Z
?_narrow@EventChannelFactory@AttNotification@@SAPAV_objref_EventChannelFactory@2@PAVObject@CORBA@@@Z
?_narrow@Filter@AttNotification@@SAPAV_objref_Filter@2@PAVObject@CORBA@@@Z
?_narrow@FilterFactory@AttNotification@@SAPAV_objref_FilterFactory@2@PAVObject@CORBA@@@Z
?_narrow@Interactive@AttNotification@@SAPAV_objref_Interactive@2@PAVObject@CORBA@@@Z
?_narrow@MappingFilter@AttNotification@@SAPAV_objref_MappingFilter@2@PAVObject@CORBA@@@Z
?_narrow@ProxyPullConsumer@AttNotification@@SAPAV_objref_ProxyPullConsumer@2@PAVObject@CORBA@@@Z
?_narrow@ProxyPullSupplier@AttNotification@@SAPAV_objref_ProxyPullSupplier@2@PAVObject@CORBA@@@Z
?_narrow@ProxyPushConsumer@AttNotification@@SAPAV_objref_ProxyPushConsumer@2@PAVObject@CORBA@@@Z
?_narrow@ProxyPushSupplier@AttNotification@@SAPAV_objref_ProxyPushSupplier@2@PAVObject@CORBA@@@Z
?_narrow@SequenceProxyPullConsumer@AttNotification@@SAPAV_objref_SequenceProxyPullConsumer@2@PAVObject@CORBA@@@Z
?_narrow@SequenceProxyPullSupplier@AttNotification@@SAPAV_objref_SequenceProxyPullSupplier@2@PAVObject@CORBA@@@Z
?_narrow@SequenceProxyPushConsumer@AttNotification@@SAPAV_objref_SequenceProxyPushConsumer@2@PAVObject@CORBA@@@Z
?_narrow@SequenceProxyPushSupplier@AttNotification@@SAPAV_objref_SequenceProxyPushSupplier@2@PAVObject@CORBA@@@Z
?_narrow@Server@AttNotification@@SAPAV_objref_Server@2@PAVObject@CORBA@@@Z
?_narrow@StructuredProxyPullConsumer@AttNotification@@SAPAV_objref_StructuredProxyPullConsumer@2@PAVObject@CORBA@@@Z
?_narrow@StructuredProxyPullSupplier@AttNotification@@SAPAV_objref_StructuredProxyPullSupplier@2@PAVObject@CORBA@@@Z
?_narrow@StructuredProxyPushConsumer@AttNotification@@SAPAV_objref_StructuredProxyPushConsumer@2@PAVObject@CORBA@@@Z
?_narrow@StructuredProxyPushSupplier@AttNotification@@SAPAV_objref_StructuredProxyPushSupplier@2@PAVObject@CORBA@@@Z
?_narrow@SupplierAdmin@AttNotification@@SAPAV_objref_SupplierAdmin@2@PAVObject@CORBA@@@Z
?_nil@ConsumerAdmin@AttNotification@@SAPAV_objref_ConsumerAdmin@2@XZ
?_nil@ConsumerAdmin_Helper@AttNotification@@SAPAV_objref_ConsumerAdmin@2@XZ
?_nil@CosEvProxyPullConsumer@AttNotification@@SAPAV_objref_CosEvProxyPullConsumer@2@XZ
?_nil@CosEvProxyPullConsumer_Helper@AttNotification@@SAPAV_objref_CosEvProxyPullConsumer@2@XZ
?_nil@CosEvProxyPullSupplier@AttNotification@@SAPAV_objref_CosEvProxyPullSupplier@2@XZ
?_nil@CosEvProxyPullSupplier_Helper@AttNotification@@SAPAV_objref_CosEvProxyPullSupplier@2@XZ
?_nil@CosEvProxyPushConsumer@AttNotification@@SAPAV_objref_CosEvProxyPushConsumer@2@XZ
?_nil@CosEvProxyPushConsumer_Helper@AttNotification@@SAPAV_objref_CosEvProxyPushConsumer@2@XZ
?_nil@CosEvProxyPushSupplier@AttNotification@@SAPAV_objref_CosEvProxyPushSupplier@2@XZ
?_nil@CosEvProxyPushSupplier_Helper@AttNotification@@SAPAV_objref_CosEvProxyPushSupplier@2@XZ
?_nil@EventChannel@AttNotification@@SAPAV_objref_EventChannel@2@XZ
?_nil@EventChannelFactory@AttNotification@@SAPAV_objref_EventChannelFactory@2@XZ
?_nil@EventChannelFactory_Helper@AttNotification@@SAPAV_objref_EventChannelFactory@2@XZ
?_nil@EventChannel_Helper@AttNotification@@SAPAV_objref_EventChannel@2@XZ
?_nil@Filter@AttNotification@@SAPAV_objref_Filter@2@XZ
?_nil@FilterFactory@AttNotification@@SAPAV_objref_FilterFactory@2@XZ
?_nil@FilterFactory_Helper@AttNotification@@SAPAV_objref_FilterFactory@2@XZ
?_nil@Filter_Helper@AttNotification@@SAPAV_objref_Filter@2@XZ
?_nil@Interactive@AttNotification@@SAPAV_objref_Interactive@2@XZ
?_nil@Interactive_Helper@AttNotification@@SAPAV_objref_Interactive@2@XZ
?_nil@MappingFilter@AttNotification@@SAPAV_objref_MappingFilter@2@XZ
?_nil@MappingFilter_Helper@AttNotification@@SAPAV_objref_MappingFilter@2@XZ
?_nil@ProxyPullConsumer@AttNotification@@SAPAV_objref_ProxyPullConsumer@2@XZ
?_nil@ProxyPullConsumer_Helper@AttNotification@@SAPAV_objref_ProxyPullConsumer@2@XZ
?_nil@ProxyPullSupplier@AttNotification@@SAPAV_objref_ProxyPullSupplier@2@XZ
?_nil@ProxyPullSupplier_Helper@AttNotification@@SAPAV_objref_ProxyPullSupplier@2@XZ
?_nil@ProxyPushConsumer@AttNotification@@SAPAV_objref_ProxyPushConsumer@2@XZ
?_nil@ProxyPushConsumer_Helper@AttNotification@@SAPAV_objref_ProxyPushConsumer@2@XZ
?_nil@ProxyPushSupplier@AttNotification@@SAPAV_objref_ProxyPushSupplier@2@XZ
?_nil@ProxyPushSupplier_Helper@AttNotification@@SAPAV_objref_ProxyPushSupplier@2@XZ
?_nil@SequenceProxyPullConsumer@AttNotification@@SAPAV_objref_SequenceProxyPullConsumer@2@XZ
?_nil@SequenceProxyPullConsumer_Helper@AttNotification@@SAPAV_objref_SequenceProxyPullConsumer@2@XZ
?_nil@SequenceProxyPullSupplier@AttNotification@@SAPAV_objref_SequenceProxyPullSupplier@2@XZ
?_nil@SequenceProxyPullSupplier_Helper@AttNotification@@SAPAV_objref_SequenceProxyPullSupplier@2@XZ
?_nil@SequenceProxyPushConsumer@AttNotification@@SAPAV_objref_SequenceProxyPushConsumer@2@XZ
?_nil@SequenceProxyPushConsumer_Helper@AttNotification@@SAPAV_objref_SequenceProxyPushConsumer@2@XZ
?_nil@SequenceProxyPushSupplier@AttNotification@@SAPAV_objref_SequenceProxyPushSupplier@2@XZ
?_nil@SequenceProxyPushSupplier_Helper@AttNotification@@SAPAV_objref_SequenceProxyPushSupplier@2@XZ
?_nil@Server@AttNotification@@SAPAV_objref_Server@2@XZ
?_nil@Server_Helper@AttNotification@@SAPAV_objref_Server@2@XZ
?_nil@StructuredProxyPullConsumer@AttNotification@@SAPAV_objref_StructuredProxyPullConsumer@2@XZ
?_nil@StructuredProxyPullConsumer_Helper@AttNotification@@SAPAV_objref_StructuredProxyPullConsumer@2@XZ
?_nil@StructuredProxyPullSupplier@AttNotification@@SAPAV_objref_StructuredProxyPullSupplier@2@XZ
?_nil@StructuredProxyPullSupplier_Helper@AttNotification@@SAPAV_objref_StructuredProxyPullSupplier@2@XZ
?_nil@StructuredProxyPushConsumer@AttNotification@@SAPAV_objref_StructuredProxyPushConsumer@2@XZ
?_nil@StructuredProxyPushConsumer_Helper@AttNotification@@SAPAV_objref_StructuredProxyPushConsumer@2@XZ
?_nil@StructuredProxyPushSupplier@AttNotification@@SAPAV_objref_StructuredProxyPushSupplier@2@XZ
?_nil@StructuredProxyPushSupplier_Helper@AttNotification@@SAPAV_objref_StructuredProxyPushSupplier@2@XZ
?_nil@SupplierAdmin@AttNotification@@SAPAV_objref_SupplierAdmin@2@XZ
?_nil@SupplierAdmin_Helper@AttNotification@@SAPAV_objref_SupplierAdmin@2@XZ
?_ptrToInterface@_impl_ConsumerAdmin@AttNotification@@$0PPPPPPPM@A@AEPAXPBD@Z
?_ptrToInterface@_impl_ConsumerAdmin@AttNotification@@$R07CA@PPPPPPPM@7AEPAXPBD@Z
?_ptrToInterface@_impl_ConsumerAdmin@AttNotification@@EAEPAXPBD@Z
?_ptrToInterface@_impl_CosEvProxyPullConsumer@AttNotification@@$0PPPPPPPM@A@AEPAXPBD@Z
?_ptrToInterface@_impl_CosEvProxyPullConsumer@AttNotification@@$R07BE@PPPPPPPM@7AEPAXPBD@Z
?_ptrToInterface@_impl_CosEvProxyPullConsumer@AttNotification@@EAEPAXPBD@Z
?_ptrToInterface@_impl_CosEvProxyPullSupplier@AttNotification@@$0PPPPPPPM@A@AEPAXPBD@Z
?_ptrToInterface@_impl_CosEvProxyPullSupplier@AttNotification@@$R07BE@PPPPPPPM@7AEPAXPBD@Z
?_ptrToInterface@_impl_CosEvProxyPullSupplier@AttNotification@@EAEPAXPBD@Z
?_ptrToInterface@_impl_CosEvProxyPushConsumer@AttNotification@@$0PPPPPPPM@A@AEPAXPBD@Z
?_ptrToInterface@_impl_CosEvProxyPushConsumer@AttNotification@@$R07BE@PPPPPPPM@7AEPAXPBD@Z
?_ptrToInterface@_impl_CosEvProxyPushConsumer@AttNotification@@EAEPAXPBD@Z
?_ptrToInterface@_impl_CosEvProxyPushSupplier@AttNotification@@$0PPPPPPPM@A@AEPAXPBD@Z
?_ptrToInterface@_impl_CosEvProxyPushSupplier@AttNotification@@$R07BE@PPPPPPPM@7AEPAXPBD@Z
?_ptrToInterface@_impl_CosEvProxyPushSupplier@AttNotification@@EAEPAXPBD@Z
?_ptrToInterface@_impl_EventChannel@AttNotification@@$0PPPPPPPM@A@AEPAXPBD@Z
?_ptrToInterface@_impl_EventChannel@AttNotification@@$R07BM@PPPPPPPM@M@AEPAXPBD@Z
?_ptrToInterface@_impl_EventChannel@AttNotification@@EAEPAXPBD@Z
?_ptrToInterface@_impl_EventChannelFactory@AttNotification@@$0PPPPPPPM@A@AEPAXPBD@Z
?_ptrToInterface@_impl_EventChannelFactory@AttNotification@@$R07BI@PPPPPPPM@7AEPAXPBD@Z
?_ptrToInterface@_impl_EventChannelFactory@AttNotification@@EAEPAXPBD@Z
?_ptrToInterface@_impl_Filter@AttNotification@@$0PPPPPPPM@A@AEPAXPBD@Z
?_ptrToInterface@_impl_Filter@AttNotification@@$R07BA@PPPPPPPM@M@AEPAXPBD@Z
?_ptrToInterface@_impl_Filter@AttNotification@@EAEPAXPBD@Z
?_ptrToInterface@_impl_FilterFactory@AttNotification@@$0PPPPPPPM@A@AEPAXPBD@Z
?_ptrToInterface@_impl_FilterFactory@AttNotification@@$R07BA@PPPPPPPM@7AEPAXPBD@Z
?_ptrToInterface@_impl_FilterFactory@AttNotification@@EAEPAXPBD@Z
?_ptrToInterface@_impl_Interactive@AttNotification@@$0PPPPPPPM@A@AEPAXPBD@Z
?_ptrToInterface@_impl_Interactive@AttNotification@@$R077PPPPPPPM@M@AEPAXPBD@Z
?_ptrToInterface@_impl_Interactive@AttNotification@@EAEPAXPBD@Z
?_ptrToInterface@_impl_MappingFilter@AttNotification@@$0PPPPPPPM@A@AEPAXPBD@Z
?_ptrToInterface@_impl_MappingFilter@AttNotification@@$R07BA@PPPPPPPM@7AEPAXPBD@Z
?_ptrToInterface@_impl_MappingFilter@AttNotification@@EAEPAXPBD@Z
?_ptrToInterface@_impl_ProxyPullConsumer@AttNotification@@$0PPPPPPPM@A@AEPAXPBD@Z
?_ptrToInterface@_impl_ProxyPullConsumer@AttNotification@@$R07CI@PPPPPPPM@7AEPAXPBD@Z
?_ptrToInterface@_impl_ProxyPullConsumer@AttNotification@@EAEPAXPBD@Z
?_ptrToInterface@_impl_ProxyPullSupplier@AttNotification@@$0PPPPPPPM@A@AEPAXPBD@Z
?_ptrToInterface@_impl_ProxyPullSupplier@AttNotification@@$R07CI@PPPPPPPM@7AEPAXPBD@Z
?_ptrToInterface@_impl_ProxyPullSupplier@AttNotification@@EAEPAXPBD@Z
?_ptrToInterface@_impl_ProxyPushConsumer@AttNotification@@$0PPPPPPPM@A@AEPAXPBD@Z
?_ptrToInterface@_impl_ProxyPushConsumer@AttNotification@@$R07CI@PPPPPPPM@7AEPAXPBD@Z
?_ptrToInterface@_impl_ProxyPushConsumer@AttNotification@@EAEPAXPBD@Z
?_ptrToInterface@_impl_ProxyPushSupplier@AttNotification@@$0PPPPPPPM@A@AEPAXPBD@Z
?_ptrToInterface@_impl_ProxyPushSupplier@AttNotification@@$R07CI@PPPPPPPM@7AEPAXPBD@Z
?_ptrToInterface@_impl_ProxyPushSupplier@AttNotification@@EAEPAXPBD@Z
?_ptrToInterface@_impl_SequenceProxyPullConsumer@AttNotification@@$0PPPPPPPM@A@AEPAXPBD@Z
?_ptrToInterface@_impl_SequenceProxyPullConsumer@AttNotification@@$R07CE@PPPPPPPM@7AEPAXPBD@Z
?_ptrToInterface@_impl_SequenceProxyPullConsumer@AttNotification@@EAEPAXPBD@Z
?_ptrToInterface@_impl_SequenceProxyPullSupplier@AttNotification@@$0PPPPPPPM@A@AEPAXPBD@Z
?_ptrToInterface@_impl_SequenceProxyPullSupplier@AttNotification@@$R07CE@PPPPPPPM@7AEPAXPBD@Z
?_ptrToInterface@_impl_SequenceProxyPullSupplier@AttNotification@@EAEPAXPBD@Z
?_ptrToInterface@_impl_SequenceProxyPushConsumer@AttNotification@@$0PPPPPPPM@A@AEPAXPBD@Z
?_ptrToInterface@_impl_SequenceProxyPushConsumer@AttNotification@@$R07CE@PPPPPPPM@7AEPAXPBD@Z
?_ptrToInterface@_impl_SequenceProxyPushConsumer@AttNotification@@EAEPAXPBD@Z
?_ptrToInterface@_impl_SequenceProxyPushSupplier@AttNotification@@$0PPPPPPPM@A@AEPAXPBD@Z
?_ptrToInterface@_impl_SequenceProxyPushSupplier@AttNotification@@$R07CE@PPPPPPPM@7AEPAXPBD@Z
?_ptrToInterface@_impl_SequenceProxyPushSupplier@AttNotification@@EAEPAXPBD@Z
?_ptrToInterface@_impl_Server@AttNotification@@$0PPPPPPPM@A@AEPAXPBD@Z
?_ptrToInterface@_impl_Server@AttNotification@@$R07M@PPPPPPPM@M@AEPAXPBD@Z
?_ptrToInterface@_impl_Server@AttNotification@@EAEPAXPBD@Z
?_ptrToInterface@_impl_StructuredProxyPullConsumer@AttNotification@@$0PPPPPPPM@A@AEPAXPBD@Z
?_ptrToInterface@_impl_StructuredProxyPullConsumer@AttNotification@@$R07CE@PPPPPPPM@7AEPAXPBD@Z
?_ptrToInterface@_impl_StructuredProxyPullConsumer@AttNotification@@EAEPAXPBD@Z
?_ptrToInterface@_impl_StructuredProxyPullSupplier@AttNotification@@$0PPPPPPPM@A@AEPAXPBD@Z
?_ptrToInterface@_impl_StructuredProxyPullSupplier@AttNotification@@$R07CE@PPPPPPPM@7AEPAXPBD@Z
?_ptrToInterface@_impl_StructuredProxyPullSupplier@AttNotification@@EAEPAXPBD@Z
?_ptrToInterface@_impl_StructuredProxyPushConsumer@AttNotification@@$0PPPPPPPM@A@AEPAXPBD@Z
?_ptrToInterface@_impl_StructuredProxyPushConsumer@AttNotification@@$R07CE@PPPPPPPM@7AEPAXPBD@Z
?_ptrToInterface@_impl_StructuredProxyPushConsumer@AttNotification@@EAEPAXPBD@Z
?_ptrToInterface@_impl_StructuredProxyPushSupplier@AttNotification@@$0PPPPPPPM@A@AEPAXPBD@Z
?_ptrToInterface@_impl_StructuredProxyPushSupplier@AttNotification@@$R07CE@PPPPPPPM@7AEPAXPBD@Z
?_ptrToInterface@_impl_StructuredProxyPushSupplier@AttNotification@@EAEPAXPBD@Z
?_ptrToInterface@_impl_SupplierAdmin@AttNotification@@$0PPPPPPPM@A@AEPAXPBD@Z
?_ptrToInterface@_impl_SupplierAdmin@AttNotification@@$R07CA@PPPPPPPM@7AEPAXPBD@Z
?_ptrToInterface@_impl_SupplierAdmin@AttNotification@@EAEPAXPBD@Z
?_ptrToObjRef@_objref_AdminPropertiesAdmin@CosNotification@@$0PPPPPPPM@A@AEPAXPBD@Z
?_ptrToObjRef@_objref_AdminPropertiesAdmin@CosNotification@@$0PPPPPPPM@BA@AEPAXPBD@Z
?_ptrToObjRef@_objref_ConsumerAdmin@AttNotification@@$0PPPPPPPM@A@AEPAXPBD@Z
?_ptrToObjRef@_objref_ConsumerAdmin@AttNotification@@$0PPPPPPPM@BA@AEPAXPBD@Z
?_ptrToObjRef@_objref_ConsumerAdmin@AttNotification@@EAEPAXPBD@Z
?_ptrToObjRef@_objref_ConsumerAdmin@CosEventChannelAdmin@@$0PPPPPPPM@A@AEPAXPBD@Z
?_ptrToObjRef@_objref_ConsumerAdmin@CosEventChannelAdmin@@$0PPPPPPPM@BA@AEPAXPBD@Z
?_ptrToObjRef@_objref_ConsumerAdmin@CosNotifyChannelAdmin@@$0PPPPPPPM@A@AEPAXPBD@Z
?_ptrToObjRef@_objref_ConsumerAdmin@CosNotifyChannelAdmin@@$0PPPPPPPM@BA@AEPAXPBD@Z
?_ptrToObjRef@_objref_CosEvProxyPullConsumer@AttNotification@@$0PPPPPPPM@A@AEPAXPBD@Z
?_ptrToObjRef@_objref_CosEvProxyPullConsumer@AttNotification@@$0PPPPPPPM@BA@AEPAXPBD@Z
?_ptrToObjRef@_objref_CosEvProxyPullConsumer@AttNotification@@EAEPAXPBD@Z
?_ptrToObjRef@_objref_CosEvProxyPullSupplier@AttNotification@@$0PPPPPPPM@A@AEPAXPBD@Z
?_ptrToObjRef@_objref_CosEvProxyPullSupplier@AttNotification@@$0PPPPPPPM@BA@AEPAXPBD@Z
?_ptrToObjRef@_objref_CosEvProxyPullSupplier@AttNotification@@EAEPAXPBD@Z
?_ptrToObjRef@_objref_CosEvProxyPushConsumer@AttNotification@@$0PPPPPPPM@A@AEPAXPBD@Z
?_ptrToObjRef@_objref_CosEvProxyPushConsumer@AttNotification@@$0PPPPPPPM@BA@AEPAXPBD@Z
?_ptrToObjRef@_objref_CosEvProxyPushConsumer@AttNotification@@EAEPAXPBD@Z
?_ptrToObjRef@_objref_CosEvProxyPushSupplier@AttNotification@@$0PPPPPPPM@A@AEPAXPBD@Z
?_ptrToObjRef@_objref_CosEvProxyPushSupplier@AttNotification@@$0PPPPPPPM@BA@AEPAXPBD@Z
?_ptrToObjRef@_objref_CosEvProxyPushSupplier@AttNotification@@EAEPAXPBD@Z
?_ptrToObjRef@_objref_EventChannel@AttNotification@@$0PPPPPPPM@A@AEPAXPBD@Z
?_ptrToObjRef@_objref_EventChannel@AttNotification@@$0PPPPPPPM@BA@AEPAXPBD@Z
?_ptrToObjRef@_objref_EventChannel@AttNotification@@EAEPAXPBD@Z
?_ptrToObjRef@_objref_EventChannel@CosEventChannelAdmin@@$0PPPPPPPM@A@AEPAXPBD@Z
?_ptrToObjRef@_objref_EventChannel@CosEventChannelAdmin@@$0PPPPPPPM@BA@AEPAXPBD@Z
?_ptrToObjRef@_objref_EventChannel@CosNotifyChannelAdmin@@$0PPPPPPPM@A@AEPAXPBD@Z
?_ptrToObjRef@_objref_EventChannel@CosNotifyChannelAdmin@@$0PPPPPPPM@BA@AEPAXPBD@Z
?_ptrToObjRef@_objref_EventChannelFactory@AttNotification@@$0PPPPPPPM@A@AEPAXPBD@Z
?_ptrToObjRef@_objref_EventChannelFactory@AttNotification@@$0PPPPPPPM@BA@AEPAXPBD@Z
?_ptrToObjRef@_objref_EventChannelFactory@AttNotification@@EAEPAXPBD@Z
?_ptrToObjRef@_objref_EventChannelFactory@CosNotifyChannelAdmin@@$0PPPPPPPM@A@AEPAXPBD@Z
?_ptrToObjRef@_objref_EventChannelFactory@CosNotifyChannelAdmin@@$0PPPPPPPM@BA@AEPAXPBD@Z
?_ptrToObjRef@_objref_Filter@AttNotification@@$0PPPPPPPM@A@AEPAXPBD@Z
?_ptrToObjRef@_objref_Filter@AttNotification@@$0PPPPPPPM@BA@AEPAXPBD@Z
?_ptrToObjRef@_objref_Filter@AttNotification@@EAEPAXPBD@Z
?_ptrToObjRef@_objref_Filter@CosNotifyFilter@@$0PPPPPPPM@A@AEPAXPBD@Z
?_ptrToObjRef@_objref_Filter@CosNotifyFilter@@$0PPPPPPPM@BA@AEPAXPBD@Z
?_ptrToObjRef@_objref_FilterAdmin@CosNotifyFilter@@$0PPPPPPPM@A@AEPAXPBD@Z
?_ptrToObjRef@_objref_FilterAdmin@CosNotifyFilter@@$0PPPPPPPM@BA@AEPAXPBD@Z
?_ptrToObjRef@_objref_FilterFactory@AttNotification@@$0PPPPPPPM@A@AEPAXPBD@Z
?_ptrToObjRef@_objref_FilterFactory@AttNotification@@$0PPPPPPPM@BA@AEPAXPBD@Z
?_ptrToObjRef@_objref_FilterFactory@AttNotification@@EAEPAXPBD@Z
?_ptrToObjRef@_objref_FilterFactory@CosNotifyFilter@@$0PPPPPPPM@A@AEPAXPBD@Z
?_ptrToObjRef@_objref_FilterFactory@CosNotifyFilter@@$0PPPPPPPM@BA@AEPAXPBD@Z
?_ptrToObjRef@_objref_Interactive@AttNotification@@$0PPPPPPPM@A@AEPAXPBD@Z
?_ptrToObjRef@_objref_Interactive@AttNotification@@$0PPPPPPPM@BA@AEPAXPBD@Z
?_ptrToObjRef@_objref_Interactive@AttNotification@@EAEPAXPBD@Z
?_ptrToObjRef@_objref_MappingFilter@AttNotification@@$0PPPPPPPM@A@AEPAXPBD@Z
?_ptrToObjRef@_objref_MappingFilter@AttNotification@@$0PPPPPPPM@BA@AEPAXPBD@Z
?_ptrToObjRef@_objref_MappingFilter@AttNotification@@EAEPAXPBD@Z
?_ptrToObjRef@_objref_MappingFilter@CosNotifyFilter@@$0PPPPPPPM@A@AEPAXPBD@Z
?_ptrToObjRef@_objref_MappingFilter@CosNotifyFilter@@$0PPPPPPPM@BA@AEPAXPBD@Z
?_ptrToObjRef@_objref_NotifyPublish@CosNotifyComm@@$0PPPPPPPM@A@AEPAXPBD@Z
?_ptrToObjRef@_objref_NotifyPublish@CosNotifyComm@@$0PPPPPPPM@BA@AEPAXPBD@Z
?_ptrToObjRef@_objref_NotifySubscribe@CosNotifyComm@@$0PPPPPPPM@A@AEPAXPBD@Z
?_ptrToObjRef@_objref_NotifySubscribe@CosNotifyComm@@$0PPPPPPPM@BA@AEPAXPBD@Z
?_ptrToObjRef@_objref_ProxyConsumer@CosNotifyChannelAdmin@@$0PPPPPPPM@A@AEPAXPBD@Z
?_ptrToObjRef@_objref_ProxyConsumer@CosNotifyChannelAdmin@@$0PPPPPPPM@BA@AEPAXPBD@Z
?_ptrToObjRef@_objref_ProxyPullConsumer@AttNotification@@$0PPPPPPPM@A@AEPAXPBD@Z
?_ptrToObjRef@_objref_ProxyPullConsumer@AttNotification@@$0PPPPPPPM@BA@AEPAXPBD@Z
?_ptrToObjRef@_objref_ProxyPullConsumer@AttNotification@@EAEPAXPBD@Z
?_ptrToObjRef@_objref_ProxyPullConsumer@CosEventChannelAdmin@@$0PPPPPPPM@A@AEPAXPBD@Z
?_ptrToObjRef@_objref_ProxyPullConsumer@CosEventChannelAdmin@@$0PPPPPPPM@BA@AEPAXPBD@Z
?_ptrToObjRef@_objref_ProxyPullConsumer@CosNotifyChannelAdmin@@$0PPPPPPPM@A@AEPAXPBD@Z
?_ptrToObjRef@_objref_ProxyPullConsumer@CosNotifyChannelAdmin@@$0PPPPPPPM@BA@AEPAXPBD@Z
?_ptrToObjRef@_objref_ProxyPullSupplier@AttNotification@@$0PPPPPPPM@A@AEPAXPBD@Z
?_ptrToObjRef@_objref_ProxyPullSupplier@AttNotification@@$0PPPPPPPM@BA@AEPAXPBD@Z
?_ptrToObjRef@_objref_ProxyPullSupplier@AttNotification@@EAEPAXPBD@Z
?_ptrToObjRef@_objref_ProxyPullSupplier@CosEventChannelAdmin@@$0PPPPPPPM@A@AEPAXPBD@Z
?_ptrToObjRef@_objref_ProxyPullSupplier@CosEventChannelAdmin@@$0PPPPPPPM@BA@AEPAXPBD@Z
?_ptrToObjRef@_objref_ProxyPullSupplier@CosNotifyChannelAdmin@@$0PPPPPPPM@A@AEPAXPBD@Z
?_ptrToObjRef@_objref_ProxyPullSupplier@CosNotifyChannelAdmin@@$0PPPPPPPM@BA@AEPAXPBD@Z
?_ptrToObjRef@_objref_ProxyPushConsumer@AttNotification@@$0PPPPPPPM@A@AEPAXPBD@Z
?_ptrToObjRef@_objref_ProxyPushConsumer@AttNotification@@$0PPPPPPPM@BA@AEPAXPBD@Z
?_ptrToObjRef@_objref_ProxyPushConsumer@AttNotification@@EAEPAXPBD@Z
?_ptrToObjRef@_objref_ProxyPushConsumer@CosEventChannelAdmin@@$0PPPPPPPM@A@AEPAXPBD@Z
?_ptrToObjRef@_objref_ProxyPushConsumer@CosEventChannelAdmin@@$0PPPPPPPM@BA@AEPAXPBD@Z
?_ptrToObjRef@_objref_ProxyPushConsumer@CosNotifyChannelAdmin@@$0PPPPPPPM@A@AEPAXPBD@Z
?_ptrToObjRef@_objref_ProxyPushConsumer@CosNotifyChannelAdmin@@$0PPPPPPPM@BA@AEPAXPBD@Z
?_ptrToObjRef@_objref_ProxyPushSupplier@AttNotification@@$0PPPPPPPM@A@AEPAXPBD@Z
?_ptrToObjRef@_objref_ProxyPushSupplier@AttNotification@@$0PPPPPPPM@BA@AEPAXPBD@Z
?_ptrToObjRef@_objref_ProxyPushSupplier@AttNotification@@EAEPAXPBD@Z
?_ptrToObjRef@_objref_ProxyPushSupplier@CosEventChannelAdmin@@$0PPPPPPPM@A@AEPAXPBD@Z
?_ptrToObjRef@_objref_ProxyPushSupplier@CosEventChannelAdmin@@$0PPPPPPPM@BA@AEPAXPBD@Z
?_ptrToObjRef@_objref_ProxyPushSupplier@CosNotifyChannelAdmin@@$0PPPPPPPM@A@AEPAXPBD@Z
?_ptrToObjRef@_objref_ProxyPushSupplier@CosNotifyChannelAdmin@@$0PPPPPPPM@BA@AEPAXPBD@Z
?_ptrToObjRef@_objref_ProxySupplier@CosNotifyChannelAdmin@@$0PPPPPPPM@A@AEPAXPBD@Z
?_ptrToObjRef@_objref_ProxySupplier@CosNotifyChannelAdmin@@$0PPPPPPPM@BA@AEPAXPBD@Z
?_ptrToObjRef@_objref_PullConsumer@CosEventComm@@$0PPPPPPPM@A@AEPAXPBD@Z
?_ptrToObjRef@_objref_PullConsumer@CosEventComm@@$0PPPPPPPM@BA@AEPAXPBD@Z
?_ptrToObjRef@_objref_PullConsumer@CosNotifyComm@@$0PPPPPPPM@A@AEPAXPBD@Z
?_ptrToObjRef@_objref_PullConsumer@CosNotifyComm@@$0PPPPPPPM@BA@AEPAXPBD@Z
?_ptrToObjRef@_objref_PullSupplier@CosEventComm@@$0PPPPPPPM@A@AEPAXPBD@Z
?_ptrToObjRef@_objref_PullSupplier@CosEventComm@@$0PPPPPPPM@BA@AEPAXPBD@Z
?_ptrToObjRef@_objref_PullSupplier@CosNotifyComm@@$0PPPPPPPM@A@AEPAXPBD@Z
?_ptrToObjRef@_objref_PullSupplier@CosNotifyComm@@$0PPPPPPPM@BA@AEPAXPBD@Z
?_ptrToObjRef@_objref_PushConsumer@CosEventComm@@$0PPPPPPPM@A@AEPAXPBD@Z
?_ptrToObjRef@_objref_PushConsumer@CosEventComm@@$0PPPPPPPM@BA@AEPAXPBD@Z
?_ptrToObjRef@_objref_PushConsumer@CosNotifyComm@@$0PPPPPPPM@A@AEPAXPBD@Z
?_ptrToObjRef@_objref_PushConsumer@CosNotifyComm@@$0PPPPPPPM@BA@AEPAXPBD@Z
?_ptrToObjRef@_objref_PushSupplier@CosEventComm@@$0PPPPPPPM@A@AEPAXPBD@Z
?_ptrToObjRef@_objref_PushSupplier@CosEventComm@@$0PPPPPPPM@BA@AEPAXPBD@Z
?_ptrToObjRef@_objref_PushSupplier@CosNotifyComm@@$0PPPPPPPM@A@AEPAXPBD@Z
?_ptrToObjRef@_objref_PushSupplier@CosNotifyComm@@$0PPPPPPPM@BA@AEPAXPBD@Z
?_ptrToObjRef@_objref_QoSAdmin@CosNotification@@$0PPPPPPPM@A@AEPAXPBD@Z
?_ptrToObjRef@_objref_QoSAdmin@CosNotification@@$0PPPPPPPM@BA@AEPAXPBD@Z
?_ptrToObjRef@_objref_SequenceProxyPullConsumer@AttNotification@@$0PPPPPPPM@A@AEPAXPBD@Z
?_ptrToObjRef@_objref_SequenceProxyPullConsumer@AttNotification@@$0PPPPPPPM@BA@AEPAXPBD@Z
?_ptrToObjRef@_objref_SequenceProxyPullConsumer@AttNotification@@EAEPAXPBD@Z
?_ptrToObjRef@_objref_SequenceProxyPullConsumer@CosNotifyChannelAdmin@@$0PPPPPPPM@A@AEPAXPBD@Z
?_ptrToObjRef@_objref_SequenceProxyPullConsumer@CosNotifyChannelAdmin@@$0PPPPPPPM@BA@AEPAXPBD@Z
?_ptrToObjRef@_objref_SequenceProxyPullSupplier@AttNotification@@$0PPPPPPPM@A@AEPAXPBD@Z
?_ptrToObjRef@_objref_SequenceProxyPullSupplier@AttNotification@@$0PPPPPPPM@BA@AEPAXPBD@Z
?_ptrToObjRef@_objref_SequenceProxyPullSupplier@AttNotification@@EAEPAXPBD@Z
?_ptrToObjRef@_objref_SequenceProxyPullSupplier@CosNotifyChannelAdmin@@$0PPPPPPPM@A@AEPAXPBD@Z
?_ptrToObjRef@_objref_SequenceProxyPullSupplier@CosNotifyChannelAdmin@@$0PPPPPPPM@BA@AEPAXPBD@Z
?_ptrToObjRef@_objref_SequenceProxyPushConsumer@AttNotification@@$0PPPPPPPM@A@AEPAXPBD@Z
?_ptrToObjRef@_objref_SequenceProxyPushConsumer@AttNotification@@$0PPPPPPPM@BA@AEPAXPBD@Z
?_ptrToObjRef@_objref_SequenceProxyPushConsumer@AttNotification@@EAEPAXPBD@Z
?_ptrToObjRef@_objref_SequenceProxyPushConsumer@CosNotifyChannelAdmin@@$0PPPPPPPM@A@AEPAXPBD@Z
?_ptrToObjRef@_objref_SequenceProxyPushConsumer@CosNotifyChannelAdmin@@$0PPPPPPPM@BA@AEPAXPBD@Z
?_ptrToObjRef@_objref_SequenceProxyPushSupplier@AttNotification@@$0PPPPPPPM@A@AEPAXPBD@Z
?_ptrToObjRef@_objref_SequenceProxyPushSupplier@AttNotification@@$0PPPPPPPM@BA@AEPAXPBD@Z
?_ptrToObjRef@_objref_SequenceProxyPushSupplier@AttNotification@@EAEPAXPBD@Z
?_ptrToObjRef@_objref_SequenceProxyPushSupplier@CosNotifyChannelAdmin@@$0PPPPPPPM@A@AEPAXPBD@Z
?_ptrToObjRef@_objref_SequenceProxyPushSupplier@CosNotifyChannelAdmin@@$0PPPPPPPM@BA@AEPAXPBD@Z
?_ptrToObjRef@_objref_SequencePullConsumer@CosNotifyComm@@$0PPPPPPPM@A@AEPAXPBD@Z
?_ptrToObjRef@_objref_SequencePullConsumer@CosNotifyComm@@$0PPPPPPPM@BA@AEPAXPBD@Z
?_ptrToObjRef@_objref_SequencePullSupplier@CosNotifyComm@@$0PPPPPPPM@A@AEPAXPBD@Z
?_ptrToObjRef@_objref_SequencePullSupplier@CosNotifyComm@@$0PPPPPPPM@BA@AEPAXPBD@Z
?_ptrToObjRef@_objref_SequencePushConsumer@CosNotifyComm@@$0PPPPPPPM@A@AEPAXPBD@Z
?_ptrToObjRef@_objref_SequencePushConsumer@CosNotifyComm@@$0PPPPPPPM@BA@AEPAXPBD@Z
?_ptrToObjRef@_objref_SequencePushSupplier@CosNotifyComm@@$0PPPPPPPM@A@AEPAXPBD@Z
?_ptrToObjRef@_objref_SequencePushSupplier@CosNotifyComm@@$0PPPPPPPM@BA@AEPAXPBD@Z
?_ptrToObjRef@_objref_Server@AttNotification@@$0PPPPPPPM@A@AEPAXPBD@Z
?_ptrToObjRef@_objref_Server@AttNotification@@$0PPPPPPPM@BA@AEPAXPBD@Z
?_ptrToObjRef@_objref_Server@AttNotification@@EAEPAXPBD@Z
?_ptrToObjRef@_objref_StructuredProxyPullConsumer@AttNotification@@$0PPPPPPPM@A@AEPAXPBD@Z
?_ptrToObjRef@_objref_StructuredProxyPullConsumer@AttNotification@@$0PPPPPPPM@BA@AEPAXPBD@Z
?_ptrToObjRef@_objref_StructuredProxyPullConsumer@AttNotification@@EAEPAXPBD@Z
?_ptrToObjRef@_objref_StructuredProxyPullConsumer@CosNotifyChannelAdmin@@$0PPPPPPPM@A@AEPAXPBD@Z
?_ptrToObjRef@_objref_StructuredProxyPullConsumer@CosNotifyChannelAdmin@@$0PPPPPPPM@BA@AEPAXPBD@Z
?_ptrToObjRef@_objref_StructuredProxyPullSupplier@AttNotification@@$0PPPPPPPM@A@AEPAXPBD@Z
?_ptrToObjRef@_objref_StructuredProxyPullSupplier@AttNotification@@$0PPPPPPPM@BA@AEPAXPBD@Z
?_ptrToObjRef@_objref_StructuredProxyPullSupplier@AttNotification@@EAEPAXPBD@Z
?_ptrToObjRef@_objref_StructuredProxyPullSupplier@CosNotifyChannelAdmin@@$0PPPPPPPM@A@AEPAXPBD@Z
?_ptrToObjRef@_objref_StructuredProxyPullSupplier@CosNotifyChannelAdmin@@$0PPPPPPPM@BA@AEPAXPBD@Z
?_ptrToObjRef@_objref_StructuredProxyPushConsumer@AttNotification@@$0PPPPPPPM@A@AEPAXPBD@Z
?_ptrToObjRef@_objref_StructuredProxyPushConsumer@AttNotification@@$0PPPPPPPM@BA@AEPAXPBD@Z
?_ptrToObjRef@_objref_StructuredProxyPushConsumer@AttNotification@@EAEPAXPBD@Z
?_ptrToObjRef@_objref_StructuredProxyPushConsumer@CosNotifyChannelAdmin@@$0PPPPPPPM@A@AEPAXPBD@Z
?_ptrToObjRef@_objref_StructuredProxyPushConsumer@CosNotifyChannelAdmin@@$0PPPPPPPM@BA@AEPAXPBD@Z
?_ptrToObjRef@_objref_StructuredProxyPushSupplier@AttNotification@@$0PPPPPPPM@A@AEPAXPBD@Z
?_ptrToObjRef@_objref_StructuredProxyPushSupplier@AttNotification@@$0PPPPPPPM@BA@AEPAXPBD@Z
?_ptrToObjRef@_objref_StructuredProxyPushSupplier@AttNotification@@EAEPAXPBD@Z
?_ptrToObjRef@_objref_StructuredProxyPushSupplier@CosNotifyChannelAdmin@@$0PPPPPPPM@A@AEPAXPBD@Z
?_ptrToObjRef@_objref_StructuredProxyPushSupplier@CosNotifyChannelAdmin@@$0PPPPPPPM@BA@AEPAXPBD@Z
?_ptrToObjRef@_objref_StructuredPullConsumer@CosNotifyComm@@$0PPPPPPPM@A@AEPAXPBD@Z
?_ptrToObjRef@_objref_StructuredPullConsumer@CosNotifyComm@@$0PPPPPPPM@BA@AEPAXPBD@Z
?_ptrToObjRef@_objref_StructuredPullSupplier@CosNotifyComm@@$0PPPPPPPM@A@AEPAXPBD@Z
?_ptrToObjRef@_objref_StructuredPullSupplier@CosNotifyComm@@$0PPPPPPPM@BA@AEPAXPBD@Z
?_ptrToObjRef@_objref_StructuredPushConsumer@CosNotifyComm@@$0PPPPPPPM@A@AEPAXPBD@Z
?_ptrToObjRef@_objref_StructuredPushConsumer@CosNotifyComm@@$0PPPPPPPM@BA@AEPAXPBD@Z
?_ptrToObjRef@_objref_StructuredPushSupplier@CosNotifyComm@@$0PPPPPPPM@A@AEPAXPBD@Z
?_ptrToObjRef@_objref_StructuredPushSupplier@CosNotifyComm@@$0PPPPPPPM@BA@AEPAXPBD@Z
?_ptrToObjRef@_objref_SupplierAdmin@AttNotification@@$0PPPPPPPM@A@AEPAXPBD@Z
?_ptrToObjRef@_objref_SupplierAdmin@AttNotification@@$0PPPPPPPM@BA@AEPAXPBD@Z
?_ptrToObjRef@_objref_SupplierAdmin@AttNotification@@EAEPAXPBD@Z
?_ptrToObjRef@_objref_SupplierAdmin@CosEventChannelAdmin@@$0PPPPPPPM@A@AEPAXPBD@Z
?_ptrToObjRef@_objref_SupplierAdmin@CosEventChannelAdmin@@$0PPPPPPPM@BA@AEPAXPBD@Z
?_ptrToObjRef@_objref_SupplierAdmin@CosNotifyChannelAdmin@@$0PPPPPPPM@A@AEPAXPBD@Z
?_ptrToObjRef@_objref_SupplierAdmin@CosNotifyChannelAdmin@@$0PPPPPPPM@BA@AEPAXPBD@Z
?_raise@UnsupportedServerProp@AttNotification@@UBEXXZ
?_remove_ref@ServantBase@PortableServer@@$R47BA@PPPPPPPM@BA@AEXXZ
?_remove_ref@ServantBase@PortableServer@@$R47BE@PPPPPPPM@BA@AEXXZ
?_remove_ref@ServantBase@PortableServer@@$R47BI@PPPPPPPM@BA@AEXXZ
?_remove_ref@ServantBase@PortableServer@@$R47BM@PPPPPPPM@BA@AEXXZ
?_remove_ref@ServantBase@PortableServer@@$R47CA@PPPPPPPM@BA@AEXXZ
?_remove_ref@ServantBase@PortableServer@@$R47CE@PPPPPPPM@BA@AEXXZ
?_remove_ref@ServantBase@PortableServer@@$R47CI@PPPPPPPM@BA@AEXXZ
?_remove_ref@ServantBase@PortableServer@@$R47CM@PPPPPPPM@BA@AEXXZ
?_remove_ref@ServantBase@PortableServer@@$R47M@PPPPPPPM@BA@AEXXZ
?_retn@?$_CORBA_ObjRef_Var@V_objref_EventChannel@AttNotification@@VEventChannel_Helper@2@@@QAEPAV_objref_EventChannel@AttNotification@@XZ
?_retn@?$_CORBA_ObjRef_Var@V_objref_EventChannelFactory@AttNotification@@VEventChannelFactory_Helper@2@@@QAEPAV_objref_EventChannelFactory@AttNotification@@XZ
?_retn@?$_CORBA_ObjRef_Var@V_objref_FilterFactory@AttNotification@@VFilterFactory_Helper@2@@@QAEPAV_objref_FilterFactory@AttNotification@@XZ
?_retn@?$_CORBA_ObjRef_Var@V_objref_Interactive@AttNotification@@VInteractive_Helper@2@@@QAEPAV_objref_Interactive@AttNotification@@XZ
?_retn@EventTypeSeq_var@CosNotification@@QAEPAVEventTypeSeq@2@XZ
?_retn@IactSeq_var@AttNotification@@QAEPAVIactSeq@2@XZ
?_retn@NameSeq_var@AttNotification@@QAEPAVNameSeq@2@XZ
?_retn@PropertySeq_var@CosNotification@@QAEPAVPropertySeq@2@XZ
?_retn@_CORBA_String_var@@QAEPADXZ
?_unchecked_narrow@ConsumerAdmin@AttNotification@@SAPAV_objref_ConsumerAdmin@2@PAVObject@CORBA@@@Z
?_unchecked_narrow@CosEvProxyPullConsumer@AttNotification@@SAPAV_objref_CosEvProxyPullConsumer@2@PAVObject@CORBA@@@Z
?_unchecked_narrow@CosEvProxyPullSupplier@AttNotification@@SAPAV_objref_CosEvProxyPullSupplier@2@PAVObject@CORBA@@@Z
?_unchecked_narrow@CosEvProxyPushConsumer@AttNotification@@SAPAV_objref_CosEvProxyPushConsumer@2@PAVObject@CORBA@@@Z
?_unchecked_narrow@CosEvProxyPushSupplier@AttNotification@@SAPAV_objref_CosEvProxyPushSupplier@2@PAVObject@CORBA@@@Z
?_unchecked_narrow@EventChannel@AttNotification@@SAPAV_objref_EventChannel@2@PAVObject@CORBA@@@Z
?_unchecked_narrow@EventChannelFactory@AttNotification@@SAPAV_objref_EventChannelFactory@2@PAVObject@CORBA@@@Z
?_unchecked_narrow@Filter@AttNotification@@SAPAV_objref_Filter@2@PAVObject@CORBA@@@Z
?_unchecked_narrow@FilterFactory@AttNotification@@SAPAV_objref_FilterFactory@2@PAVObject@CORBA@@@Z
?_unchecked_narrow@Interactive@AttNotification@@SAPAV_objref_Interactive@2@PAVObject@CORBA@@@Z
?_unchecked_narrow@MappingFilter@AttNotification@@SAPAV_objref_MappingFilter@2@PAVObject@CORBA@@@Z
?_unchecked_narrow@ProxyPullConsumer@AttNotification@@SAPAV_objref_ProxyPullConsumer@2@PAVObject@CORBA@@@Z
?_unchecked_narrow@ProxyPullSupplier@AttNotification@@SAPAV_objref_ProxyPullSupplier@2@PAVObject@CORBA@@@Z
?_unchecked_narrow@ProxyPushConsumer@AttNotification@@SAPAV_objref_ProxyPushConsumer@2@PAVObject@CORBA@@@Z
?_unchecked_narrow@ProxyPushSupplier@AttNotification@@SAPAV_objref_ProxyPushSupplier@2@PAVObject@CORBA@@@Z
?_unchecked_narrow@SequenceProxyPullConsumer@AttNotification@@SAPAV_objref_SequenceProxyPullConsumer@2@PAVObject@CORBA@@@Z
?_unchecked_narrow@SequenceProxyPullSupplier@AttNotification@@SAPAV_objref_SequenceProxyPullSupplier@2@PAVObject@CORBA@@@Z
?_unchecked_narrow@SequenceProxyPushConsumer@AttNotification@@SAPAV_objref_SequenceProxyPushConsumer@2@PAVObject@CORBA@@@Z
?_unchecked_narrow@SequenceProxyPushSupplier@AttNotification@@SAPAV_objref_SequenceProxyPushSupplier@2@PAVObject@CORBA@@@Z
?_unchecked_narrow@Server@AttNotification@@SAPAV_objref_Server@2@PAVObject@CORBA@@@Z
?_unchecked_narrow@StructuredProxyPullConsumer@AttNotification@@SAPAV_objref_StructuredProxyPullConsumer@2@PAVObject@CORBA@@@Z
?_unchecked_narrow@StructuredProxyPullSupplier@AttNotification@@SAPAV_objref_StructuredProxyPullSupplier@2@PAVObject@CORBA@@@Z
?_unchecked_narrow@StructuredProxyPushConsumer@AttNotification@@SAPAV_objref_StructuredProxyPushConsumer@2@PAVObject@CORBA@@@Z
?_unchecked_narrow@StructuredProxyPushSupplier@AttNotification@@SAPAV_objref_StructuredProxyPushSupplier@2@PAVObject@CORBA@@@Z
?_unchecked_narrow@SupplierAdmin@AttNotification@@SAPAV_objref_SupplierAdmin@2@PAVObject@CORBA@@@Z
?_unmarshalObjRef@ConsumerAdmin@AttNotification@@SAPAV_objref_ConsumerAdmin@2@AAVcdrStream@@@Z
?_unmarshalObjRef@CosEvProxyPullConsumer@AttNotification@@SAPAV_objref_CosEvProxyPullConsumer@2@AAVcdrStream@@@Z
?_unmarshalObjRef@CosEvProxyPullSupplier@AttNotification@@SAPAV_objref_CosEvProxyPullSupplier@2@AAVcdrStream@@@Z
?_unmarshalObjRef@CosEvProxyPushConsumer@AttNotification@@SAPAV_objref_CosEvProxyPushConsumer@2@AAVcdrStream@@@Z
?_unmarshalObjRef@CosEvProxyPushSupplier@AttNotification@@SAPAV_objref_CosEvProxyPushSupplier@2@AAVcdrStream@@@Z
?_unmarshalObjRef@EventChannel@AttNotification@@SAPAV_objref_EventChannel@2@AAVcdrStream@@@Z
?_unmarshalObjRef@EventChannelFactory@AttNotification@@SAPAV_objref_EventChannelFactory@2@AAVcdrStream@@@Z
?_unmarshalObjRef@Filter@AttNotification@@SAPAV_objref_Filter@2@AAVcdrStream@@@Z
?_unmarshalObjRef@FilterFactory@AttNotification@@SAPAV_objref_FilterFactory@2@AAVcdrStream@@@Z
?_unmarshalObjRef@Interactive@AttNotification@@SAPAV_objref_Interactive@2@AAVcdrStream@@@Z
?_unmarshalObjRef@MappingFilter@AttNotification@@SAPAV_objref_MappingFilter@2@AAVcdrStream@@@Z
?_unmarshalObjRef@ProxyPullConsumer@AttNotification@@SAPAV_objref_ProxyPullConsumer@2@AAVcdrStream@@@Z
?_unmarshalObjRef@ProxyPullSupplier@AttNotification@@SAPAV_objref_ProxyPullSupplier@2@AAVcdrStream@@@Z
?_unmarshalObjRef@ProxyPushConsumer@AttNotification@@SAPAV_objref_ProxyPushConsumer@2@AAVcdrStream@@@Z
?_unmarshalObjRef@ProxyPushSupplier@AttNotification@@SAPAV_objref_ProxyPushSupplier@2@AAVcdrStream@@@Z
?_unmarshalObjRef@SequenceProxyPullConsumer@AttNotification@@SAPAV_objref_SequenceProxyPullConsumer@2@AAVcdrStream@@@Z
?_unmarshalObjRef@SequenceProxyPullSupplier@AttNotification@@SAPAV_objref_SequenceProxyPullSupplier@2@AAVcdrStream@@@Z
?_unmarshalObjRef@SequenceProxyPushConsumer@AttNotification@@SAPAV_objref_SequenceProxyPushConsumer@2@AAVcdrStream@@@Z
?_unmarshalObjRef@SequenceProxyPushSupplier@AttNotification@@SAPAV_objref_SequenceProxyPushSupplier@2@AAVcdrStream@@@Z
?_unmarshalObjRef@Server@AttNotification@@SAPAV_objref_Server@2@AAVcdrStream@@@Z
?_unmarshalObjRef@StructuredProxyPullConsumer@AttNotification@@SAPAV_objref_StructuredProxyPullConsumer@2@AAVcdrStream@@@Z
?_unmarshalObjRef@StructuredProxyPullSupplier@AttNotification@@SAPAV_objref_StructuredProxyPullSupplier@2@AAVcdrStream@@@Z
?_unmarshalObjRef@StructuredProxyPushConsumer@AttNotification@@SAPAV_objref_StructuredProxyPushConsumer@2@AAVcdrStream@@@Z
?_unmarshalObjRef@StructuredProxyPushSupplier@AttNotification@@SAPAV_objref_StructuredProxyPushSupplier@2@AAVcdrStream@@@Z
?_unmarshalObjRef@SupplierAdmin@AttNotification@@SAPAV_objref_SupplierAdmin@2@AAVcdrStream@@@Z
?_user_exns@_0RL_cd_F52CE7BA0E4ED8DC_00000000@@2QBQBDB
?_user_exns@_0RL_cd_F52CE7BA0E4ED8DC_01000000@@2QBQBDB
?_user_exns@_0RL_cd_F52CE7BA0E4ED8DC_20000000@@2QBQBDB
?_user_exns@_0RL_cd_F52CE7BA0E4ED8DC_21000000@@2QBQBDB
?_user_exns@_0RL_cd_F52CE7BA0E4ED8DC_41000000@@2QBQBDB
?_user_exns@_0RL_cd_F52CE7BA0E4ED8DC_50000000@@2QBQBDB
?_user_exns@_0RL_cd_F52CE7BA0E4ED8DC_61000000@@2QBQBDB
?_user_exns@_0RL_cd_F52CE7BA0E4ED8DC_70000000@@2QBQBDB
?_user_exns@_0RL_cd_F52CE7BA0E4ED8DC_90000000@@2QBQBDB
?_user_exns@_0RL_cd_F52CE7BA0E4ED8DC_91000000@@2QBQBDB
?_user_exns@_0RL_cd_F52CE7BA0E4ED8DC_b1000000@@2QBQBDB
?_user_exns@_0RL_cd_F52CE7BA0E4ED8DC_c0000000@@2QBQBDB
?_user_exns@_0RL_cd_F52CE7BA0E4ED8DC_e0000000@@2QBQBDB
?align_to@omni@@YAKKW4alignment_t@1@@Z
?alloc@_CORBA_String_helper@@SAPADH@Z
?allocbuf@?$_CORBA_Sequence@UEventType@CosNotification@@@@SAPAUEventType@CosNotification@@K@Z
?allocbuf@?$_CORBA_Sequence@UProperty@CosNotification@@@@SAPAUProperty@CosNotification@@K@Z
?allocbuf@?$_CORBA_Sequence@UPropertyError@CosNotification@@@@SAPAUPropertyError@CosNotification@@K@Z
?allocbuf@?$_CORBA_Sequence_ObjRef@V_objref_Interactive@AttNotification@@V?$_CORBA_ObjRef_Element@V_objref_Interactive@AttNotification@@VInteractive_Helper@2@@@VInteractive_Helper@2@@@SAPAPAV_objref_Interactive@AttNotification@@K@Z
?child_names@_objref_Interactive@AttNotification@@QAEPAVNameSeq@2@XZ
?children@_objref_Interactive@AttNotification@@QAEPAVIactSeq@2@_N@Z
?copybuffer@?$_CORBA_Sequence@UEventType@CosNotification@@@@IAEXK@Z
?copybuffer@?$_CORBA_Sequence@UProperty@CosNotification@@@@IAEXK@Z
?copybuffer@?$_CORBA_Sequence@UPropertyError@CosNotification@@@@IAEXK@Z
?copybuffer@?$_CORBA_Sequence_ObjRef@V_objref_Interactive@AttNotification@@V?$_CORBA_ObjRef_Element@V_objref_Interactive@AttNotification@@VInteractive_Helper@2@@@VInteractive_Helper@2@@@IAEXK@Z
?destroy@_objref_Server@AttNotification@@QAEXXZ
?do_command@_objref_Interactive@AttNotification@@QAEPADPBDAA_N1V?$_CORBA_ObjRef_OUT_arg@V_objref_Interactive@AttNotification@@VInteractive_Helper@2@@@@Z
?dup@_CORBA_String_helper@@SAPADPBD@Z
?duplicate@ConsumerAdmin_Helper@AttNotification@@SAXPAV_objref_ConsumerAdmin@2@@Z
?duplicate@CosEvProxyPullConsumer_Helper@AttNotification@@SAXPAV_objref_CosEvProxyPullConsumer@2@@Z
?duplicate@CosEvProxyPullSupplier_Helper@AttNotification@@SAXPAV_objref_CosEvProxyPullSupplier@2@@Z
?duplicate@CosEvProxyPushConsumer_Helper@AttNotification@@SAXPAV_objref_CosEvProxyPushConsumer@2@@Z
?duplicate@CosEvProxyPushSupplier_Helper@AttNotification@@SAXPAV_objref_CosEvProxyPushSupplier@2@@Z
?duplicate@EventChannelFactory_Helper@AttNotification@@SAXPAV_objref_EventChannelFactory@2@@Z
?duplicate@EventChannel_Helper@AttNotification@@SAXPAV_objref_EventChannel@2@@Z
?duplicate@FilterFactory_Helper@AttNotification@@SAXPAV_objref_FilterFactory@2@@Z
?duplicate@Filter_Helper@AttNotification@@SAXPAV_objref_Filter@2@@Z
?duplicate@Interactive_Helper@AttNotification@@SAXPAV_objref_Interactive@2@@Z
?duplicate@MappingFilter_Helper@AttNotification@@SAXPAV_objref_MappingFilter@2@@Z
?duplicate@ProxyPullConsumer_Helper@AttNotification@@SAXPAV_objref_ProxyPullConsumer@2@@Z
?duplicate@ProxyPullSupplier_Helper@AttNotification@@SAXPAV_objref_ProxyPullSupplier@2@@Z
?duplicate@ProxyPushConsumer_Helper@AttNotification@@SAXPAV_objref_ProxyPushConsumer@2@@Z
?duplicate@ProxyPushSupplier_Helper@AttNotification@@SAXPAV_objref_ProxyPushSupplier@2@@Z
?duplicate@SequenceProxyPullConsumer_Helper@AttNotification@@SAXPAV_objref_SequenceProxyPullConsumer@2@@Z
?duplicate@SequenceProxyPullSupplier_Helper@AttNotification@@SAXPAV_objref_SequenceProxyPullSupplier@2@@Z
?duplicate@SequenceProxyPushConsumer_Helper@AttNotification@@SAXPAV_objref_SequenceProxyPushConsumer@2@@Z
?duplicate@SequenceProxyPushSupplier_Helper@AttNotification@@SAXPAV_objref_SequenceProxyPushSupplier@2@@Z
?duplicate@Server_Helper@AttNotification@@SAXPAV_objref_Server@2@@Z
?duplicate@StructuredProxyPullConsumer_Helper@AttNotification@@SAXPAV_objref_StructuredProxyPullConsumer@2@@Z
?duplicate@StructuredProxyPullSupplier_Helper@AttNotification@@SAXPAV_objref_StructuredProxyPullSupplier@2@@Z
?duplicate@StructuredProxyPushConsumer_Helper@AttNotification@@SAXPAV_objref_StructuredProxyPushConsumer@2@@Z
?duplicate@StructuredProxyPushSupplier_Helper@AttNotification@@SAXPAV_objref_StructuredProxyPushSupplier@2@@Z
?duplicate@SupplierAdmin_Helper@AttNotification@@SAXPAV_objref_SupplierAdmin@2@@Z
?free@_CORBA_String_helper@@SAXPAD@Z
?freebuf@?$_CORBA_Sequence@E@@SAXPAE@Z
?freebuf@?$_CORBA_Sequence@UEventType@CosNotification@@@@SAXPAUEventType@CosNotification@@@Z
?freebuf@?$_CORBA_Sequence@UNameComponent@CosNaming@@@@SAXPAUNameComponent@CosNaming@@@Z
?freebuf@?$_CORBA_Sequence@UProperty@CosNotification@@@@SAXPAUProperty@CosNotification@@@Z
?freebuf@?$_CORBA_Sequence@UPropertyError@CosNotification@@@@SAXPAUPropertyError@CosNotification@@@Z
?freebuf@?$_CORBA_Sequence_ObjRef@V_objref_Interactive@AttNotification@@V?$_CORBA_ObjRef_Element@V_objref_Interactive@AttNotification@@VInteractive_Helper@2@@@VInteractive_Helper@2@@@SAXPAPAV_objref_Interactive@AttNotification@@@Z
?freebuf@_CORBA_Sequence_String@@SAXPAPAD@Z
?get_channel_factory@_objref_Server@AttNotification@@QAEPAV_objref_EventChannelFactory@2@XZ
?get_default_channel@_objref_Server@AttNotification@@QAEPAV_objref_EventChannel@2@XZ
?get_filter_factory@_objref_Server@AttNotification@@QAEPAV_objref_FilterFactory@2@XZ
?get_server_props@_objref_Server@AttNotification@@QAEPAVPropertySeq@CosNotification@@XZ
?in@PropertySeq_var@CosNotification@@QBEABVPropertySeq@2@XZ
?in@_CORBA_String_var@@QBEPBDXZ
?insertToAnyFn@UnsupportedServerProp@AttNotification@@2P6AXAAVAny@CORBA@@ABVException@4@@ZA
?insertToAnyFnNCP@UnsupportedServerProp@AttNotification@@2P6AXAAVAny@CORBA@@PBVException@4@@ZA
?is_a@_pof_ConsumerAdmin@AttNotification@@UBE_NPBD@Z
?is_a@_pof_CosEvProxyPullConsumer@AttNotification@@UBE_NPBD@Z
?is_a@_pof_CosEvProxyPullSupplier@AttNotification@@UBE_NPBD@Z
?is_a@_pof_CosEvProxyPushConsumer@AttNotification@@UBE_NPBD@Z
?is_a@_pof_CosEvProxyPushSupplier@AttNotification@@UBE_NPBD@Z
?is_a@_pof_EventChannel@AttNotification@@UBE_NPBD@Z
?is_a@_pof_EventChannelFactory@AttNotification@@UBE_NPBD@Z
?is_a@_pof_Filter@AttNotification@@UBE_NPBD@Z
?is_a@_pof_FilterFactory@AttNotification@@UBE_NPBD@Z
?is_a@_pof_Interactive@AttNotification@@UBE_NPBD@Z
?is_a@_pof_MappingFilter@AttNotification@@UBE_NPBD@Z
?is_a@_pof_ProxyPullConsumer@AttNotification@@UBE_NPBD@Z
?is_a@_pof_ProxyPullSupplier@AttNotification@@UBE_NPBD@Z
?is_a@_pof_ProxyPushConsumer@AttNotification@@UBE_NPBD@Z
?is_a@_pof_ProxyPushSupplier@AttNotification@@UBE_NPBD@Z
?is_a@_pof_SequenceProxyPullConsumer@AttNotification@@UBE_NPBD@Z
?is_a@_pof_SequenceProxyPullSupplier@AttNotification@@UBE_NPBD@Z
?is_a@_pof_SequenceProxyPushConsumer@AttNotification@@UBE_NPBD@Z
?is_a@_pof_SequenceProxyPushSupplier@AttNotification@@UBE_NPBD@Z
?is_a@_pof_Server@AttNotification@@UBE_NPBD@Z
?is_a@_pof_StructuredProxyPullConsumer@AttNotification@@UBE_NPBD@Z
?is_a@_pof_StructuredProxyPullSupplier@AttNotification@@UBE_NPBD@Z
?is_a@_pof_StructuredProxyPushConsumer@AttNotification@@UBE_NPBD@Z
?is_a@_pof_StructuredProxyPushSupplier@AttNotification@@UBE_NPBD@Z
?is_a@_pof_SupplierAdmin@AttNotification@@UBE_NPBD@Z
?is_nil@CORBA@@YA_NPAVObject@1@@Z
?is_nil@ConsumerAdmin_Helper@AttNotification@@SA_NPAV_objref_ConsumerAdmin@2@@Z
?is_nil@CosEvProxyPullConsumer_Helper@AttNotification@@SA_NPAV_objref_CosEvProxyPullConsumer@2@@Z
?is_nil@CosEvProxyPullSupplier_Helper@AttNotification@@SA_NPAV_objref_CosEvProxyPullSupplier@2@@Z
?is_nil@CosEvProxyPushConsumer_Helper@AttNotification@@SA_NPAV_objref_CosEvProxyPushConsumer@2@@Z
?is_nil@CosEvProxyPushSupplier_Helper@AttNotification@@SA_NPAV_objref_CosEvProxyPushSupplier@2@@Z
?is_nil@EventChannelFactory_Helper@AttNotification@@SA_NPAV_objref_EventChannelFactory@2@@Z
?is_nil@EventChannel_Helper@AttNotification@@SA_NPAV_objref_EventChannel@2@@Z
?is_nil@FilterFactory_Helper@AttNotification@@SA_NPAV_objref_FilterFactory@2@@Z
?is_nil@Filter_Helper@AttNotification@@SA_NPAV_objref_Filter@2@@Z
?is_nil@Interactive_Helper@AttNotification@@SA_NPAV_objref_Interactive@2@@Z
?is_nil@MappingFilter_Helper@AttNotification@@SA_NPAV_objref_MappingFilter@2@@Z
?is_nil@ProxyPullConsumer_Helper@AttNotification@@SA_NPAV_objref_ProxyPullConsumer@2@@Z
?is_nil@ProxyPullSupplier_Helper@AttNotification@@SA_NPAV_objref_ProxyPullSupplier@2@@Z
?is_nil@ProxyPushConsumer_Helper@AttNotification@@SA_NPAV_objref_ProxyPushConsumer@2@@Z
?is_nil@ProxyPushSupplier_Helper@AttNotification@@SA_NPAV_objref_ProxyPushSupplier@2@@Z
?is_nil@SequenceProxyPullConsumer_Helper@AttNotification@@SA_NPAV_objref_SequenceProxyPullConsumer@2@@Z
?is_nil@SequenceProxyPullSupplier_Helper@AttNotification@@SA_NPAV_objref_SequenceProxyPullSupplier@2@@Z
?is_nil@SequenceProxyPushConsumer_Helper@AttNotification@@SA_NPAV_objref_SequenceProxyPushConsumer@2@@Z
?is_nil@SequenceProxyPushSupplier_Helper@AttNotification@@SA_NPAV_objref_SequenceProxyPushSupplier@2@@Z
?is_nil@Server_Helper@AttNotification@@SA_NPAV_objref_Server@2@@Z
?is_nil@StructuredProxyPullConsumer_Helper@AttNotification@@SA_NPAV_objref_StructuredProxyPullConsumer@2@@Z
?is_nil@StructuredProxyPullSupplier_Helper@AttNotification@@SA_NPAV_objref_StructuredProxyPullSupplier@2@@Z
?is_nil@StructuredProxyPushConsumer_Helper@AttNotification@@SA_NPAV_objref_StructuredProxyPushConsumer@2@@Z
?is_nil@StructuredProxyPushSupplier_Helper@AttNotification@@SA_NPAV_objref_StructuredProxyPushSupplier@2@@Z
?is_nil@SupplierAdmin_Helper@AttNotification@@SA_NPAV_objref_SupplierAdmin@2@@Z
?length@?$_CORBA_Sequence@UEventType@CosNotification@@@@QAEXK@Z
?length@?$_CORBA_Sequence@UProperty@CosNotification@@@@QAEXK@Z
?length@?$_CORBA_Sequence@UPropertyError@CosNotification@@@@QAEXK@Z
?length@?$_CORBA_Sequence_ObjRef@V_objref_Interactive@AttNotification@@V?$_CORBA_ObjRef_Element@V_objref_Interactive@AttNotification@@VInteractive_Helper@2@@@VInteractive_Helper@2@@@QAEXK@Z
?marshalArguments@_0RL_cd_F52CE7BA0E4ED8DC_00000000@@UAEXAAVcdrStream@@@Z
?marshalArguments@_0RL_cd_F52CE7BA0E4ED8DC_50000000@@UAEXAAVcdrStream@@@Z
?marshalArguments@_0RL_cd_F52CE7BA0E4ED8DC_b1000000@@UAEXAAVcdrStream@@@Z
?marshalBoolean@cdrStream@@QAEX_N@Z
?marshalObjRef@ConsumerAdmin_Helper@AttNotification@@SAXPAV_objref_ConsumerAdmin@2@AAVcdrStream@@@Z
?marshalObjRef@CosEvProxyPullConsumer_Helper@AttNotification@@SAXPAV_objref_CosEvProxyPullConsumer@2@AAVcdrStream@@@Z
?marshalObjRef@CosEvProxyPullSupplier_Helper@AttNotification@@SAXPAV_objref_CosEvProxyPullSupplier@2@AAVcdrStream@@@Z
?marshalObjRef@CosEvProxyPushConsumer_Helper@AttNotification@@SAXPAV_objref_CosEvProxyPushConsumer@2@AAVcdrStream@@@Z
?marshalObjRef@CosEvProxyPushSupplier_Helper@AttNotification@@SAXPAV_objref_CosEvProxyPushSupplier@2@AAVcdrStream@@@Z
?marshalObjRef@EventChannelFactory_Helper@AttNotification@@SAXPAV_objref_EventChannelFactory@2@AAVcdrStream@@@Z
?marshalObjRef@EventChannel_Helper@AttNotification@@SAXPAV_objref_EventChannel@2@AAVcdrStream@@@Z
?marshalObjRef@FilterFactory_Helper@AttNotification@@SAXPAV_objref_FilterFactory@2@AAVcdrStream@@@Z
?marshalObjRef@Filter_Helper@AttNotification@@SAXPAV_objref_Filter@2@AAVcdrStream@@@Z
?marshalObjRef@Interactive_Helper@AttNotification@@SAXPAV_objref_Interactive@2@AAVcdrStream@@@Z
?marshalObjRef@MappingFilter_Helper@AttNotification@@SAXPAV_objref_MappingFilter@2@AAVcdrStream@@@Z
?marshalObjRef@ProxyPullConsumer_Helper@AttNotification@@SAXPAV_objref_ProxyPullConsumer@2@AAVcdrStream@@@Z
?marshalObjRef@ProxyPullSupplier_Helper@AttNotification@@SAXPAV_objref_ProxyPullSupplier@2@AAVcdrStream@@@Z
?marshalObjRef@ProxyPushConsumer_Helper@AttNotification@@SAXPAV_objref_ProxyPushConsumer@2@AAVcdrStream@@@Z
?marshalObjRef@ProxyPushSupplier_Helper@AttNotification@@SAXPAV_objref_ProxyPushSupplier@2@AAVcdrStream@@@Z
?marshalObjRef@SequenceProxyPullConsumer_Helper@AttNotification@@SAXPAV_objref_SequenceProxyPullConsumer@2@AAVcdrStream@@@Z
?marshalObjRef@SequenceProxyPullSupplier_Helper@AttNotification@@SAXPAV_objref_SequenceProxyPullSupplier@2@AAVcdrStream@@@Z
?marshalObjRef@SequenceProxyPushConsumer_Helper@AttNotification@@SAXPAV_objref_SequenceProxyPushConsumer@2@AAVcdrStream@@@Z
?marshalObjRef@SequenceProxyPushSupplier_Helper@AttNotification@@SAXPAV_objref_SequenceProxyPushSupplier@2@AAVcdrStream@@@Z
?marshalObjRef@Server_Helper@AttNotification@@SAXPAV_objref_Server@2@AAVcdrStream@@@Z
?marshalObjRef@StructuredProxyPullConsumer_Helper@AttNotification@@SAXPAV_objref_StructuredProxyPullConsumer@2@AAVcdrStream@@@Z
?marshalObjRef@StructuredProxyPullSupplier_Helper@AttNotification@@SAXPAV_objref_StructuredProxyPullSupplier@2@AAVcdrStream@@@Z
?marshalObjRef@StructuredProxyPushConsumer_Helper@AttNotification@@SAXPAV_objref_StructuredProxyPushConsumer@2@AAVcdrStream@@@Z
?marshalObjRef@StructuredProxyPushSupplier_Helper@AttNotification@@SAXPAV_objref_StructuredProxyPushSupplier@2@AAVcdrStream@@@Z
?marshalObjRef@SupplierAdmin_Helper@AttNotification@@SAXPAV_objref_SupplierAdmin@2@AAVcdrStream@@@Z
?marshalReturnedValues@_0RL_cd_F52CE7BA0E4ED8DC_00000000@@UAEXAAVcdrStream@@@Z
?marshalReturnedValues@_0RL_cd_F52CE7BA0E4ED8DC_20000000@@UAEXAAVcdrStream@@@Z
?marshalReturnedValues@_0RL_cd_F52CE7BA0E4ED8DC_21000000@@UAEXAAVcdrStream@@@Z
?marshalReturnedValues@_0RL_cd_F52CE7BA0E4ED8DC_41000000@@UAEXAAVcdrStream@@@Z
?marshalReturnedValues@_0RL_cd_F52CE7BA0E4ED8DC_50000000@@UAEXAAVcdrStream@@@Z
?marshalReturnedValues@_0RL_cd_F52CE7BA0E4ED8DC_61000000@@UAEXAAVcdrStream@@@Z
?marshalReturnedValues@_0RL_cd_F52CE7BA0E4ED8DC_70000000@@UAEXAAVcdrStream@@@Z
?marshalReturnedValues@_0RL_cd_F52CE7BA0E4ED8DC_90000000@@UAEXAAVcdrStream@@@Z
?marshalReturnedValues@_0RL_cd_F52CE7BA0E4ED8DC_91000000@@UAEXAAVcdrStream@@@Z
?marshalReturnedValues@_0RL_cd_F52CE7BA0E4ED8DC_c0000000@@UAEXAAVcdrStream@@@Z
?marshalReturnedValues@_0RL_cd_F52CE7BA0E4ED8DC_e0000000@@UAEXAAVcdrStream@@@Z
?marshalString@cdrStream@@QAEXPBDH@Z
?my_name@_objref_Interactive@AttNotification@@QAEPAVNameSeq@2@XZ
?newObjRef@_pof_ConsumerAdmin@AttNotification@@UAEPAVomniObjRef@@PAVomniIOR@@PAVomniIdentity@@@Z
?newObjRef@_pof_CosEvProxyPullConsumer@AttNotification@@UAEPAVomniObjRef@@PAVomniIOR@@PAVomniIdentity@@@Z
?newObjRef@_pof_CosEvProxyPullSupplier@AttNotification@@UAEPAVomniObjRef@@PAVomniIOR@@PAVomniIdentity@@@Z
?newObjRef@_pof_CosEvProxyPushConsumer@AttNotification@@UAEPAVomniObjRef@@PAVomniIOR@@PAVomniIdentity@@@Z
?newObjRef@_pof_CosEvProxyPushSupplier@AttNotification@@UAEPAVomniObjRef@@PAVomniIOR@@PAVomniIdentity@@@Z
?newObjRef@_pof_EventChannel@AttNotification@@UAEPAVomniObjRef@@PAVomniIOR@@PAVomniIdentity@@@Z
?newObjRef@_pof_EventChannelFactory@AttNotification@@UAEPAVomniObjRef@@PAVomniIOR@@PAVomniIdentity@@@Z
?newObjRef@_pof_Filter@AttNotification@@UAEPAVomniObjRef@@PAVomniIOR@@PAVomniIdentity@@@Z
?newObjRef@_pof_FilterFactory@AttNotification@@UAEPAVomniObjRef@@PAVomniIOR@@PAVomniIdentity@@@Z
?newObjRef@_pof_Interactive@AttNotification@@UAEPAVomniObjRef@@PAVomniIOR@@PAVomniIdentity@@@Z
?newObjRef@_pof_MappingFilter@AttNotification@@UAEPAVomniObjRef@@PAVomniIOR@@PAVomniIdentity@@@Z
?newObjRef@_pof_ProxyPullConsumer@AttNotification@@UAEPAVomniObjRef@@PAVomniIOR@@PAVomniIdentity@@@Z
?newObjRef@_pof_ProxyPullSupplier@AttNotification@@UAEPAVomniObjRef@@PAVomniIOR@@PAVomniIdentity@@@Z
?newObjRef@_pof_ProxyPushConsumer@AttNotification@@UAEPAVomniObjRef@@PAVomniIOR@@PAVomniIdentity@@@Z
?newObjRef@_pof_ProxyPushSupplier@AttNotification@@UAEPAVomniObjRef@@PAVomniIOR@@PAVomniIdentity@@@Z
?newObjRef@_pof_SequenceProxyPullConsumer@AttNotification@@UAEPAVomniObjRef@@PAVomniIOR@@PAVomniIdentity@@@Z
?newObjRef@_pof_SequenceProxyPullSupplier@AttNotification@@UAEPAVomniObjRef@@PAVomniIOR@@PAVomniIdentity@@@Z
?newObjRef@_pof_SequenceProxyPushConsumer@AttNotification@@UAEPAVomniObjRef@@PAVomniIOR@@PAVomniIdentity@@@Z
?newObjRef@_pof_SequenceProxyPushSupplier@AttNotification@@UAEPAVomniObjRef@@PAVomniIOR@@PAVomniIdentity@@@Z
?newObjRef@_pof_Server@AttNotification@@UAEPAVomniObjRef@@PAVomniIOR@@PAVomniIdentity@@@Z
?newObjRef@_pof_StructuredProxyPullConsumer@AttNotification@@UAEPAVomniObjRef@@PAVomniIOR@@PAVomniIdentity@@@Z
?newObjRef@_pof_StructuredProxyPullSupplier@AttNotification@@UAEPAVomniObjRef@@PAVomniIOR@@PAVomniIdentity@@@Z
?newObjRef@_pof_StructuredProxyPushConsumer@AttNotification@@UAEPAVomniObjRef@@PAVomniIOR@@PAVomniIdentity@@@Z
?newObjRef@_pof_StructuredProxyPushSupplier@AttNotification@@UAEPAVomniObjRef@@PAVomniIOR@@PAVomniIdentity@@@Z
?newObjRef@_pof_SupplierAdmin@AttNotification@@UAEPAVomniObjRef@@PAVomniIOR@@PAVomniIdentity@@@Z
?obtain_offered_types@_objref_EventChannel@AttNotification@@QAEPAVEventTypeSeq@CosNotification@@XZ
?obtain_stats@_objref_EventChannel@AttNotification@@QAE?AUChannelStats@2@XZ
?obtain_subscription_types@_objref_EventChannel@AttNotification@@QAEPAVEventTypeSeq@CosNotification@@XZ
?operation_name@omniCallHandle@@QBEPBDXZ
?out@?$_CORBA_ObjRef_Var@V_objref_Interactive@AttNotification@@VInteractive_Helper@2@@@QAEAAPAV_objref_Interactive@AttNotification@@XZ
?ptrStrMatch@omni@@YA_NPBD0@Z
?release@CORBA@@YAXPAVObject@1@@Z
?release@ConsumerAdmin_Helper@AttNotification@@SAXPAV_objref_ConsumerAdmin@2@@Z
?release@CosEvProxyPullConsumer_Helper@AttNotification@@SAXPAV_objref_CosEvProxyPullConsumer@2@@Z
?release@CosEvProxyPullSupplier_Helper@AttNotification@@SAXPAV_objref_CosEvProxyPullSupplier@2@@Z
?release@CosEvProxyPushConsumer_Helper@AttNotification@@SAXPAV_objref_CosEvProxyPushConsumer@2@@Z
?release@CosEvProxyPushSupplier_Helper@AttNotification@@SAXPAV_objref_CosEvProxyPushSupplier@2@@Z
?release@EventChannelFactory_Helper@AttNotification@@SAXPAV_objref_EventChannelFactory@2@@Z
?release@EventChannel_Helper@AttNotification@@SAXPAV_objref_EventChannel@2@@Z
?release@FilterFactory_Helper@AttNotification@@SAXPAV_objref_FilterFactory@2@@Z
?release@Filter_Helper@AttNotification@@SAXPAV_objref_Filter@2@@Z
?release@Interactive_Helper@AttNotification@@SAXPAV_objref_Interactive@2@@Z
?release@MappingFilter_Helper@AttNotification@@SAXPAV_objref_MappingFilter@2@@Z
?release@ProxyPullConsumer_Helper@AttNotification@@SAXPAV_objref_ProxyPullConsumer@2@@Z
?release@ProxyPullSupplier_Helper@AttNotification@@SAXPAV_objref_ProxyPullSupplier@2@@Z
?release@ProxyPushConsumer_Helper@AttNotification@@SAXPAV_objref_ProxyPushConsumer@2@@Z
?release@ProxyPushSupplier_Helper@AttNotification@@SAXPAV_objref_ProxyPushSupplier@2@@Z
?release@SequenceProxyPullConsumer_Helper@AttNotification@@SAXPAV_objref_SequenceProxyPullConsumer@2@@Z
?release@SequenceProxyPullSupplier_Helper@AttNotification@@SAXPAV_objref_SequenceProxyPullSupplier@2@@Z
?release@SequenceProxyPushConsumer_Helper@AttNotification@@SAXPAV_objref_SequenceProxyPushConsumer@2@@Z
?release@SequenceProxyPushSupplier_Helper@AttNotification@@SAXPAV_objref_SequenceProxyPushSupplier@2@@Z
?release@Server_Helper@AttNotification@@SAXPAV_objref_Server@2@@Z
?release@StructuredProxyPullConsumer_Helper@AttNotification@@SAXPAV_objref_StructuredProxyPullConsumer@2@@Z
?release@StructuredProxyPullSupplier_Helper@AttNotification@@SAXPAV_objref_StructuredProxyPullSupplier@2@@Z
?release@StructuredProxyPushConsumer_Helper@AttNotification@@SAXPAV_objref_StructuredProxyPushConsumer@2@@Z
?release@StructuredProxyPushSupplier_Helper@AttNotification@@SAXPAV_objref_StructuredProxyPushSupplier@2@@Z
?release@SupplierAdmin_Helper@AttNotification@@SAXPAV_objref_SupplierAdmin@2@@Z
?results_to_file@_objref_Server@AttNotification@@QAE_NXZ
?safe_cleanup@_objref_Interactive@AttNotification@@QAE_NXZ
?set_server_props@_objref_Server@AttNotification@@QAEXABVPropertySeq@CosNotification@@@Z
?strMatch@omni@@YA_NPBD0@Z
?unmarshalArguments@_0RL_cd_F52CE7BA0E4ED8DC_00000000@@UAEXAAVcdrStream@@@Z
?unmarshalArguments@_0RL_cd_F52CE7BA0E4ED8DC_50000000@@UAEXAAVcdrStream@@@Z
?unmarshalArguments@_0RL_cd_F52CE7BA0E4ED8DC_b1000000@@UAEXAAVcdrStream@@@Z
?unmarshalBoolean@cdrStream@@QAE_NXZ
?unmarshalObjRef@ConsumerAdmin_Helper@AttNotification@@SAPAV_objref_ConsumerAdmin@2@AAVcdrStream@@@Z
?unmarshalObjRef@CosEvProxyPullConsumer_Helper@AttNotification@@SAPAV_objref_CosEvProxyPullConsumer@2@AAVcdrStream@@@Z
?unmarshalObjRef@CosEvProxyPullSupplier_Helper@AttNotification@@SAPAV_objref_CosEvProxyPullSupplier@2@AAVcdrStream@@@Z
?unmarshalObjRef@CosEvProxyPushConsumer_Helper@AttNotification@@SAPAV_objref_CosEvProxyPushConsumer@2@AAVcdrStream@@@Z
?unmarshalObjRef@CosEvProxyPushSupplier_Helper@AttNotification@@SAPAV_objref_CosEvProxyPushSupplier@2@AAVcdrStream@@@Z
?unmarshalObjRef@EventChannelFactory_Helper@AttNotification@@SAPAV_objref_EventChannelFactory@2@AAVcdrStream@@@Z
?unmarshalObjRef@EventChannel_Helper@AttNotification@@SAPAV_objref_EventChannel@2@AAVcdrStream@@@Z
?unmarshalObjRef@FilterFactory_Helper@AttNotification@@SAPAV_objref_FilterFactory@2@AAVcdrStream@@@Z
?unmarshalObjRef@Filter_Helper@AttNotification@@SAPAV_objref_Filter@2@AAVcdrStream@@@Z
?unmarshalObjRef@Interactive_Helper@AttNotification@@SAPAV_objref_Interactive@2@AAVcdrStream@@@Z
?unmarshalObjRef@MappingFilter_Helper@AttNotification@@SAPAV_objref_MappingFilter@2@AAVcdrStream@@@Z
?unmarshalObjRef@ProxyPullConsumer_Helper@AttNotification@@SAPAV_objref_ProxyPullConsumer@2@AAVcdrStream@@@Z
?unmarshalObjRef@ProxyPullSupplier_Helper@AttNotification@@SAPAV_objref_ProxyPullSupplier@2@AAVcdrStream@@@Z
?unmarshalObjRef@ProxyPushConsumer_Helper@AttNotification@@SAPAV_objref_ProxyPushConsumer@2@AAVcdrStream@@@Z
?unmarshalObjRef@ProxyPushSupplier_Helper@AttNotification@@SAPAV_objref_ProxyPushSupplier@2@AAVcdrStream@@@Z
?unmarshalObjRef@SequenceProxyPullConsumer_Helper@AttNotification@@SAPAV_objref_SequenceProxyPullConsumer@2@AAVcdrStream@@@Z
?unmarshalObjRef@SequenceProxyPullSupplier_Helper@AttNotification@@SAPAV_objref_SequenceProxyPullSupplier@2@AAVcdrStream@@@Z
?unmarshalObjRef@SequenceProxyPushConsumer_Helper@AttNotification@@SAPAV_objref_SequenceProxyPushConsumer@2@AAVcdrStream@@@Z
?unmarshalObjRef@SequenceProxyPushSupplier_Helper@AttNotification@@SAPAV_objref_SequenceProxyPushSupplier@2@AAVcdrStream@@@Z
?unmarshalObjRef@Server_Helper@AttNotification@@SAPAV_objref_Server@2@AAVcdrStream@@@Z
?unmarshalObjRef@StructuredProxyPullConsumer_Helper@AttNotification@@SAPAV_objref_StructuredProxyPullConsumer@2@AAVcdrStream@@@Z
?unmarshalObjRef@StructuredProxyPullSupplier_Helper@AttNotification@@SAPAV_objref_StructuredProxyPullSupplier@2@AAVcdrStream@@@Z
?unmarshalObjRef@StructuredProxyPushConsumer_Helper@AttNotification@@SAPAV_objref_StructuredProxyPushConsumer@2@AAVcdrStream@@@Z
?unmarshalObjRef@StructuredProxyPushSupplier_Helper@AttNotification@@SAPAV_objref_StructuredProxyPushSupplier@2@AAVcdrStream@@@Z
?unmarshalObjRef@SupplierAdmin_Helper@AttNotification@@SAPAV_objref_SupplierAdmin@2@AAVcdrStream@@@Z
?unmarshalReturnedValues@_0RL_cd_F52CE7BA0E4ED8DC_00000000@@UAEXAAVcdrStream@@@Z
?unmarshalReturnedValues@_0RL_cd_F52CE7BA0E4ED8DC_20000000@@UAEXAAVcdrStream@@@Z
?unmarshalReturnedValues@_0RL_cd_F52CE7BA0E4ED8DC_21000000@@UAEXAAVcdrStream@@@Z
?unmarshalReturnedValues@_0RL_cd_F52CE7BA0E4ED8DC_41000000@@UAEXAAVcdrStream@@@Z
?unmarshalReturnedValues@_0RL_cd_F52CE7BA0E4ED8DC_50000000@@UAEXAAVcdrStream@@@Z
?unmarshalReturnedValues@_0RL_cd_F52CE7BA0E4ED8DC_61000000@@UAEXAAVcdrStream@@@Z
?unmarshalReturnedValues@_0RL_cd_F52CE7BA0E4ED8DC_70000000@@UAEXAAVcdrStream@@@Z
?unmarshalReturnedValues@_0RL_cd_F52CE7BA0E4ED8DC_90000000@@UAEXAAVcdrStream@@@Z
?unmarshalReturnedValues@_0RL_cd_F52CE7BA0E4ED8DC_91000000@@UAEXAAVcdrStream@@@Z
?unmarshalReturnedValues@_0RL_cd_F52CE7BA0E4ED8DC_c0000000@@UAEXAAVcdrStream@@@Z
?unmarshalReturnedValues@_0RL_cd_F52CE7BA0E4ED8DC_e0000000@@UAEXAAVcdrStream@@@Z
?unmarshalString@cdrStream@@QAEPADH@Z
?userException@_0RL_cd_F52CE7BA0E4ED8DC_b1000000@@UAEXAAVcdrStream@@PAVIOP_C@omni@@PBD@Z
