LIBRARY shareddebug/AttNotificationDynamic416_vc9_rtd
VERSION 1.6
EXPORTS
??0?$_CORBA_ObjRef_Element@V_objref_Interactive@AttNotification@@VInteractive_Helper@2@@@QAE@AAPAV_objref_Interactive@AttNotification@@_N@Z
??0?$_CORBA_Sequence@UPropertyError@CosNotification@@@@IAE@XZ
??0?$_CORBA_Sequence_ObjRef@V_objref_Interactive@AttNotification@@V?$_CORBA_ObjRef_Element@V_objref_Interactive@AttNotification@@VInteractive_Helper@2@@@VInteractive_Helper@2@@@IAE@ABV0@@Z
??0?$_CORBA_Sequence_ObjRef@V_objref_Interactive@AttNotification@@V?$_CORBA_ObjRef_Element@V_objref_Interactive@AttNotification@@VInteractive_Helper@2@@@VInteractive_Helper@2@@@IAE@XZ
??0?$_CORBA_Unbounded_Sequence@UPropertyError@CosNotification@@@@QAE@XZ
??0?$_CORBA_Unbounded_Sequence_ObjRef@V_objref_Interactive@AttNotification@@V?$_CORBA_ObjRef_Element@V_objref_Interactive@AttNotification@@VInteractive_Helper@2@@@VInteractive_Helper@2@@@QAE@ABV0@@Z
??0?$_CORBA_Unbounded_Sequence_ObjRef@V_objref_Interactive@AttNotification@@V?$_CORBA_ObjRef_Element@V_objref_Interactive@AttNotification@@VInteractive_Helper@2@@@VInteractive_Helper@2@@@QAE@XZ
??0Exception@CORBA@@IAE@XZ
??0IactSeq@AttNotification@@QAE@ABV01@@Z
??0IactSeq@AttNotification@@QAE@XZ
??0NameSeq@AttNotification@@QAE@ABV01@@Z
??0NameSeq@AttNotification@@QAE@XZ
??0PropertyErrorSeq@CosNotification@@QAE@XZ
??0UnsupportedServerProp@AttNotification@@QAE@XZ
??0UserException@CORBA@@IAE@XZ
??0_0RL_insertToAny_Singleton__cAttNotification_mUnsupportedServerProp@@QAE@XZ
??0_CORBA_Sequence_String@@IAE@ABV0@@Z
??0_CORBA_Sequence_String@@IAE@XZ
??0_CORBA_String_element@@QAE@AAPAD_N@Z
??0_CORBA_Unbounded_Sequence_String@@QAE@ABV0@@Z
??0_CORBA_Unbounded_Sequence_String@@QAE@XZ
??0_Tracker@TypeCode@CORBA@@QAE@PBD@Z
??1?$_CORBA_ObjRef_Element@V_objref_Interactive@AttNotification@@VInteractive_Helper@2@@@QAE@XZ
??1?$_CORBA_ObjRef_Member@V_objref_IDLType@CORBA@@VIDLType_Helper@2@@@QAE@XZ
??1?$_CORBA_PseudoObj_Member@VDynAny@DynamicAny@@V?$_CORBA_PseudoObj_Var@VDynAny@DynamicAny@@@@@@QAE@XZ
??1?$_CORBA_PseudoObj_Member@VPolicy@CORBA@@V?$_CORBA_PseudoObj_Var@VPolicy@CORBA@@@@@@QAE@XZ
??1?$_CORBA_Sequence@E@@QAE@XZ
??1?$_CORBA_Sequence@UEventType@CosNotification@@@@QAE@XZ
??1?$_CORBA_Sequence@UNameComponent@CosNaming@@@@QAE@XZ
??1?$_CORBA_Sequence@UProperty@CosNotification@@@@QAE@XZ
??1?$_CORBA_Sequence_ObjRef@V_objref_Interactive@AttNotification@@V?$_CORBA_ObjRef_Element@V_objref_Interactive@AttNotification@@VInteractive_Helper@2@@@VInteractive_Helper@2@@@QAE@XZ
??1?$_CORBA_Unbounded_Sequence@UEventType@CosNotification@@@@QAE@XZ
??1?$_CORBA_Unbounded_Sequence@UNameComponent@CosNaming@@@@QAE@XZ
??1?$_CORBA_Unbounded_Sequence@UProperty@CosNotification@@@@QAE@XZ
??1?$_CORBA_Unbounded_Sequence_ObjRef@V_objref_Interactive@AttNotification@@V?$_CORBA_ObjRef_Element@V_objref_Interactive@AttNotification@@VInteractive_Helper@2@@@VInteractive_Helper@2@@@QAE@XZ
??1Binding@CosNaming@@QAE@XZ
??1ConstraintExp@CosNotifyFilter@@QAE@XZ
??1ConstraintInfo@CosNotifyFilter@@QAE@XZ
??1EventHeader@CosNotification@@QAE@XZ
??1EventType@CosNotification@@QAE@XZ
??1EventTypeSeq@CosNotification@@QAE@XZ
??1FixedEventHeader@CosNotification@@QAE@XZ
??1IactSeq@AttNotification@@QAE@XZ
??1MappingConstraintInfo@CosNotifyFilter@@QAE@XZ
??1MappingConstraintPair@CosNotifyFilter@@QAE@XZ
??1Name@CosNaming@@QAE@XZ
??1NameComponent@CosNaming@@QAE@XZ
??1NameDynAnyPair@DynamicAny@@QAE@XZ
??1NameSeq@AttNotification@@QAE@XZ
??1NameValuePair@DynamicAny@@QAE@XZ
??1NamedPropertyRange@CosNotification@@QAE@XZ
??1Property@CosNotification@@QAE@XZ
??1PropertyError@CosNotification@@QAE@XZ
??1PropertyRange@CosNotification@@QAE@XZ
??1PropertySeq@CosNotification@@QAE@XZ
??1ServiceContext@IOP@@QAE@XZ
??1StructMember@CORBA@@QAE@XZ
??1StructuredEvent@CosNotification@@QAE@XZ
??1TaggedComponent@IOP@@QAE@XZ
??1TaggedProfile@IOP@@QAE@XZ
??1UnionMember@CORBA@@QAE@XZ
??1ValueMember@CORBA@@QAE@XZ
??1_CORBA_Sequence_Octet@@IAE@XZ
??1_CORBA_Sequence_String@@QAE@XZ
??1_CORBA_String_element@@QAE@XZ
??1_CORBA_String_member@@QAE@XZ
??1_CORBA_Unbounded_Sequence_Octet@@QAE@XZ
??1_CORBA_Unbounded_Sequence_String@@QAE@XZ
??4?$_CORBA_ObjRef_Element@V_objref_Interactive@AttNotification@@VInteractive_Helper@2@@@QAEAAV0@ABV0@@Z
??4?$_CORBA_ObjRef_Element@V_objref_Interactive@AttNotification@@VInteractive_Helper@2@@@QAEAAV0@PAV_objref_Interactive@AttNotification@@@Z
??4_CORBA_String_element@@QAEAAV0@ABV0@@Z
??4_CORBA_String_element@@QAEAAV0@PAD@Z
??A?$_CORBA_Sequence_ObjRef@V_objref_Interactive@AttNotification@@V?$_CORBA_ObjRef_Element@V_objref_Interactive@AttNotification@@VInteractive_Helper@2@@@VInteractive_Helper@2@@@QAE?AV?$_CORBA_ObjRef_Element@V_objref_Interactive@AttNotification@@VInteractive_Helper@2@@@K@Z
??A?$_CORBA_Sequence_ObjRef@V_objref_Interactive@AttNotification@@V?$_CORBA_ObjRef_Element@V_objref_Interactive@AttNotification@@VInteractive_Helper@2@@@VInteractive_Helper@2@@@QBE?AV?$_CORBA_ObjRef_Element@V_objref_Interactive@AttNotification@@VInteractive_Helper@2@@@K@Z
??A_CORBA_Sequence_String@@QAE?AV_CORBA_String_element@@K@Z
??A_CORBA_Sequence_String@@QBE?BV_CORBA_String_element@@K@Z
??_2?$_CORBA_Sequence_ObjRef@V_objref_Interactive@AttNotification@@V?$_CORBA_ObjRef_Element@V_objref_Interactive@AttNotification@@VInteractive_Helper@2@@@VInteractive_Helper@2@@@QBEXAAVcdrStream@@@Z
??_2@YAXKAAVcdrStream@@@Z
??_2@YA_NABVAny@CORBA@@AAPAUChannelStats@AttNotification@@@Z
??_2@YA_NABVAny@CORBA@@AAPAVIactSeq@AttNotification@@@Z
??_2@YA_NABVAny@CORBA@@AAPAVNameSeq@AttNotification@@@Z
??_2@YA_NABVAny@CORBA@@AAPAV_objref_ConsumerAdmin@AttNotification@@@Z
??_2@YA_NABVAny@CORBA@@AAPAV_objref_CosEvProxyPullConsumer@AttNotification@@@Z
??_2@YA_NABVAny@CORBA@@AAPAV_objref_CosEvProxyPullSupplier@AttNotification@@@Z
??_2@YA_NABVAny@CORBA@@AAPAV_objref_CosEvProxyPushConsumer@AttNotification@@@Z
??_2@YA_NABVAny@CORBA@@AAPAV_objref_CosEvProxyPushSupplier@AttNotification@@@Z
??_2@YA_NABVAny@CORBA@@AAPAV_objref_EventChannel@AttNotification@@@Z
??_2@YA_NABVAny@CORBA@@AAPAV_objref_EventChannelFactory@AttNotification@@@Z
??_2@YA_NABVAny@CORBA@@AAPAV_objref_Filter@AttNotification@@@Z
??_2@YA_NABVAny@CORBA@@AAPAV_objref_FilterFactory@AttNotification@@@Z
??_2@YA_NABVAny@CORBA@@AAPAV_objref_Interactive@AttNotification@@@Z
??_2@YA_NABVAny@CORBA@@AAPAV_objref_MappingFilter@AttNotification@@@Z
??_2@YA_NABVAny@CORBA@@AAPAV_objref_ProxyPullConsumer@AttNotification@@@Z
??_2@YA_NABVAny@CORBA@@AAPAV_objref_ProxyPullSupplier@AttNotification@@@Z
??_2@YA_NABVAny@CORBA@@AAPAV_objref_ProxyPushConsumer@AttNotification@@@Z
??_2@YA_NABVAny@CORBA@@AAPAV_objref_ProxyPushSupplier@AttNotification@@@Z
??_2@YA_NABVAny@CORBA@@AAPAV_objref_SequenceProxyPullConsumer@AttNotification@@@Z
??_2@YA_NABVAny@CORBA@@AAPAV_objref_SequenceProxyPullSupplier@AttNotification@@@Z
??_2@YA_NABVAny@CORBA@@AAPAV_objref_SequenceProxyPushConsumer@AttNotification@@@Z
??_2@YA_NABVAny@CORBA@@AAPAV_objref_SequenceProxyPushSupplier@AttNotification@@@Z
??_2@YA_NABVAny@CORBA@@AAPAV_objref_Server@AttNotification@@@Z
??_2@YA_NABVAny@CORBA@@AAPAV_objref_StructuredProxyPullConsumer@AttNotification@@@Z
??_2@YA_NABVAny@CORBA@@AAPAV_objref_StructuredProxyPullSupplier@AttNotification@@@Z
??_2@YA_NABVAny@CORBA@@AAPAV_objref_StructuredProxyPushConsumer@AttNotification@@@Z
??_2@YA_NABVAny@CORBA@@AAPAV_objref_StructuredProxyPushSupplier@AttNotification@@@Z
??_2@YA_NABVAny@CORBA@@AAPAV_objref_SupplierAdmin@AttNotification@@@Z
??_2@YA_NABVAny@CORBA@@AAPBUChannelStats@AttNotification@@@Z
??_2@YA_NABVAny@CORBA@@AAPBVIactSeq@AttNotification@@@Z
??_2@YA_NABVAny@CORBA@@AAPBVNameSeq@AttNotification@@@Z
??_2@YA_NABVAny@CORBA@@AAPBVUnsupportedServerProp@AttNotification@@@Z
??_3?$_CORBA_Sequence_ObjRef@V_objref_Interactive@AttNotification@@V?$_CORBA_ObjRef_Element@V_objref_Interactive@AttNotification@@VInteractive_Helper@2@@@VInteractive_Helper@2@@@QAEXAAVcdrStream@@@Z
??_3@YAXAAKAAVcdrStream@@@Z
??_3@YAXAAVAny@CORBA@@ABUChannelStats@AttNotification@@@Z
??_3@YAXAAVAny@CORBA@@ABVIactSeq@AttNotification@@@Z
??_3@YAXAAVAny@CORBA@@ABVNameSeq@AttNotification@@@Z
??_3@YAXAAVAny@CORBA@@ABVUnsupportedServerProp@AttNotification@@@Z
??_3@YAXAAVAny@CORBA@@PAPAV_objref_ConsumerAdmin@AttNotification@@@Z
??_3@YAXAAVAny@CORBA@@PAPAV_objref_CosEvProxyPullConsumer@AttNotification@@@Z
??_3@YAXAAVAny@CORBA@@PAPAV_objref_CosEvProxyPullSupplier@AttNotification@@@Z
??_3@YAXAAVAny@CORBA@@PAPAV_objref_CosEvProxyPushConsumer@AttNotification@@@Z
??_3@YAXAAVAny@CORBA@@PAPAV_objref_CosEvProxyPushSupplier@AttNotification@@@Z
??_3@YAXAAVAny@CORBA@@PAPAV_objref_EventChannel@AttNotification@@@Z
??_3@YAXAAVAny@CORBA@@PAPAV_objref_EventChannelFactory@AttNotification@@@Z
??_3@YAXAAVAny@CORBA@@PAPAV_objref_Filter@AttNotification@@@Z
??_3@YAXAAVAny@CORBA@@PAPAV_objref_FilterFactory@AttNotification@@@Z
??_3@YAXAAVAny@CORBA@@PAPAV_objref_Interactive@AttNotification@@@Z
??_3@YAXAAVAny@CORBA@@PAPAV_objref_MappingFilter@AttNotification@@@Z
??_3@YAXAAVAny@CORBA@@PAPAV_objref_ProxyPullConsumer@AttNotification@@@Z
??_3@YAXAAVAny@CORBA@@PAPAV_objref_ProxyPullSupplier@AttNotification@@@Z
??_3@YAXAAVAny@CORBA@@PAPAV_objref_ProxyPushConsumer@AttNotification@@@Z
??_3@YAXAAVAny@CORBA@@PAPAV_objref_ProxyPushSupplier@AttNotification@@@Z
??_3@YAXAAVAny@CORBA@@PAPAV_objref_SequenceProxyPullConsumer@AttNotification@@@Z
??_3@YAXAAVAny@CORBA@@PAPAV_objref_SequenceProxyPullSupplier@AttNotification@@@Z
??_3@YAXAAVAny@CORBA@@PAPAV_objref_SequenceProxyPushConsumer@AttNotification@@@Z
??_3@YAXAAVAny@CORBA@@PAPAV_objref_SequenceProxyPushSupplier@AttNotification@@@Z
??_3@YAXAAVAny@CORBA@@PAPAV_objref_Server@AttNotification@@@Z
??_3@YAXAAVAny@CORBA@@PAPAV_objref_StructuredProxyPullConsumer@AttNotification@@@Z
??_3@YAXAAVAny@CORBA@@PAPAV_objref_StructuredProxyPullSupplier@AttNotification@@@Z
??_3@YAXAAVAny@CORBA@@PAPAV_objref_StructuredProxyPushConsumer@AttNotification@@@Z
??_3@YAXAAVAny@CORBA@@PAPAV_objref_StructuredProxyPushSupplier@AttNotification@@@Z
??_3@YAXAAVAny@CORBA@@PAPAV_objref_SupplierAdmin@AttNotification@@@Z
??_3@YAXAAVAny@CORBA@@PAUChannelStats@AttNotification@@@Z
??_3@YAXAAVAny@CORBA@@PAVIactSeq@AttNotification@@@Z
??_3@YAXAAVAny@CORBA@@PAVNameSeq@AttNotification@@@Z
??_3@YAXAAVAny@CORBA@@PAV_objref_ConsumerAdmin@AttNotification@@@Z
??_3@YAXAAVAny@CORBA@@PAV_objref_CosEvProxyPullConsumer@AttNotification@@@Z
??_3@YAXAAVAny@CORBA@@PAV_objref_CosEvProxyPullSupplier@AttNotification@@@Z
??_3@YAXAAVAny@CORBA@@PAV_objref_CosEvProxyPushConsumer@AttNotification@@@Z
??_3@YAXAAVAny@CORBA@@PAV_objref_CosEvProxyPushSupplier@AttNotification@@@Z
??_3@YAXAAVAny@CORBA@@PAV_objref_EventChannel@AttNotification@@@Z
??_3@YAXAAVAny@CORBA@@PAV_objref_EventChannelFactory@AttNotification@@@Z
??_3@YAXAAVAny@CORBA@@PAV_objref_Filter@AttNotification@@@Z
??_3@YAXAAVAny@CORBA@@PAV_objref_FilterFactory@AttNotification@@@Z
??_3@YAXAAVAny@CORBA@@PAV_objref_Interactive@AttNotification@@@Z
??_3@YAXAAVAny@CORBA@@PAV_objref_MappingFilter@AttNotification@@@Z
??_3@YAXAAVAny@CORBA@@PAV_objref_ProxyPullConsumer@AttNotification@@@Z
??_3@YAXAAVAny@CORBA@@PAV_objref_ProxyPullSupplier@AttNotification@@@Z
??_3@YAXAAVAny@CORBA@@PAV_objref_ProxyPushConsumer@AttNotification@@@Z
??_3@YAXAAVAny@CORBA@@PAV_objref_ProxyPushSupplier@AttNotification@@@Z
??_3@YAXAAVAny@CORBA@@PAV_objref_SequenceProxyPullConsumer@AttNotification@@@Z
??_3@YAXAAVAny@CORBA@@PAV_objref_SequenceProxyPullSupplier@AttNotification@@@Z
??_3@YAXAAVAny@CORBA@@PAV_objref_SequenceProxyPushConsumer@AttNotification@@@Z
??_3@YAXAAVAny@CORBA@@PAV_objref_SequenceProxyPushSupplier@AttNotification@@@Z
??_3@YAXAAVAny@CORBA@@PAV_objref_Server@AttNotification@@@Z
??_3@YAXAAVAny@CORBA@@PAV_objref_StructuredProxyPullConsumer@AttNotification@@@Z
??_3@YAXAAVAny@CORBA@@PAV_objref_StructuredProxyPullSupplier@AttNotification@@@Z
??_3@YAXAAVAny@CORBA@@PAV_objref_StructuredProxyPushConsumer@AttNotification@@@Z
??_3@YAXAAVAny@CORBA@@PAV_objref_StructuredProxyPushSupplier@AttNotification@@@Z
??_3@YAXAAVAny@CORBA@@PAV_objref_SupplierAdmin@AttNotification@@@Z
??_3@YAXAAVAny@CORBA@@PBVUnsupportedServerProp@AttNotification@@@Z
?_NP_is_nil@Object@CORBA@@QBE_NXZ
?_NP_is_pseudo@Object@CORBA@@QBE_NXZ
?_PR_getobj@Object@CORBA@@QAEPAVomniObjRef@@XZ
?_tc_ChannelStats@AttNotification@@3QAVTypeCode@CORBA@@A
?_tc_ConsumerAdmin@AttNotification@@3QAVTypeCode@CORBA@@A
?_tc_CosEvProxyPullConsumer@AttNotification@@3QAVTypeCode@CORBA@@A
?_tc_CosEvProxyPullSupplier@AttNotification@@3QAVTypeCode@CORBA@@A
?_tc_CosEvProxyPushConsumer@AttNotification@@3QAVTypeCode@CORBA@@A
?_tc_CosEvProxyPushSupplier@AttNotification@@3QAVTypeCode@CORBA@@A
?_tc_EventChannel@AttNotification@@3QAVTypeCode@CORBA@@A
?_tc_EventChannelFactory@AttNotification@@3QAVTypeCode@CORBA@@A
?_tc_Filter@AttNotification@@3QAVTypeCode@CORBA@@A
?_tc_FilterFactory@AttNotification@@3QAVTypeCode@CORBA@@A
?_tc_IactSeq@AttNotification@@3QAVTypeCode@CORBA@@A
?_tc_Interactive@AttNotification@@3QAVTypeCode@CORBA@@A
?_tc_MappingFilter@AttNotification@@3QAVTypeCode@CORBA@@A
?_tc_NameSeq@AttNotification@@3QAVTypeCode@CORBA@@A
?_tc_ProxyPullConsumer@AttNotification@@3QAVTypeCode@CORBA@@A
?_tc_ProxyPullSupplier@AttNotification@@3QAVTypeCode@CORBA@@A
?_tc_ProxyPushConsumer@AttNotification@@3QAVTypeCode@CORBA@@A
?_tc_ProxyPushSupplier@AttNotification@@3QAVTypeCode@CORBA@@A
?_tc_SequenceProxyPullConsumer@AttNotification@@3QAVTypeCode@CORBA@@A
?_tc_SequenceProxyPullSupplier@AttNotification@@3QAVTypeCode@CORBA@@A
?_tc_SequenceProxyPushConsumer@AttNotification@@3QAVTypeCode@CORBA@@A
?_tc_SequenceProxyPushSupplier@AttNotification@@3QAVTypeCode@CORBA@@A
?_tc_Server@AttNotification@@3QAVTypeCode@CORBA@@A
?_tc_ServerProperties@AttNotification@@3QAVTypeCode@CORBA@@A
?_tc_StructuredProxyPullConsumer@AttNotification@@3QAVTypeCode@CORBA@@A
?_tc_StructuredProxyPullSupplier@AttNotification@@3QAVTypeCode@CORBA@@A
?_tc_StructuredProxyPushConsumer@AttNotification@@3QAVTypeCode@CORBA@@A
?_tc_StructuredProxyPushSupplier@AttNotification@@3QAVTypeCode@CORBA@@A
?_tc_SupplierAdmin@AttNotification@@3QAVTypeCode@CORBA@@A
?_tc_UnsupportedServerProp@AttNotification@@3QAVTypeCode@CORBA@@A
?align_to@omni@@YAKKW4alignment_t@1@@Z
?alloc@_CORBA_String_helper@@SAPADH@Z
?allocbuf@?$_CORBA_Sequence_ObjRef@V_objref_Interactive@AttNotification@@V?$_CORBA_ObjRef_Element@V_objref_Interactive@AttNotification@@VInteractive_Helper@2@@@VInteractive_Helper@2@@@SAPAPAV_objref_Interactive@AttNotification@@K@Z
?allocbuf@_CORBA_Sequence_String@@SAPAPADK@Z
?copybuffer@?$_CORBA_Sequence_ObjRef@V_objref_Interactive@AttNotification@@V?$_CORBA_ObjRef_Element@V_objref_Interactive@AttNotification@@VInteractive_Helper@2@@@VInteractive_Helper@2@@@IAEXK@Z
?copybuffer@_CORBA_Sequence_String@@AAEXK@Z
?dup@_CORBA_String_helper@@SAPADPBD@Z
?free@_CORBA_String_helper@@SAXPAD@Z
?freebuf@?$_CORBA_Sequence@E@@SAXPAE@Z
?freebuf@?$_CORBA_Sequence@UEventType@CosNotification@@@@SAXPAUEventType@CosNotification@@@Z
?freebuf@?$_CORBA_Sequence@UNameComponent@CosNaming@@@@SAXPAUNameComponent@CosNaming@@@Z
?freebuf@?$_CORBA_Sequence@UProperty@CosNotification@@@@SAXPAUProperty@CosNotification@@@Z
?freebuf@?$_CORBA_Sequence_ObjRef@V_objref_Interactive@AttNotification@@V?$_CORBA_ObjRef_Element@V_objref_Interactive@AttNotification@@VInteractive_Helper@2@@@VInteractive_Helper@2@@@SAXPAPAV_objref_Interactive@AttNotification@@@Z
?freebuf@_CORBA_Sequence_String@@SAXPAPAD@Z
?length@?$_CORBA_Sequence_ObjRef@V_objref_Interactive@AttNotification@@V?$_CORBA_ObjRef_Element@V_objref_Interactive@AttNotification@@VInteractive_Helper@2@@@VInteractive_Helper@2@@@QAEXK@Z
?length@_CORBA_Sequence_String@@QAEXK@Z
?release@CORBA@@YAXPAVObject@1@@Z
