LIBRARY shared/COSNotify416_vc9_rt
VERSION 1.6
EXPORTS
??0?$RDI_Hash@JPAVConsumerAdmin_i@@@@QAE@P6AIPBX@ZP6AH00@ZII@Z
??0?$RDI_Hash@JPAVEventChannel_i@@@@QAE@P6AIPBX@ZP6AH00@ZII@Z
??0?$RDI_Hash@JPAVFilter_i@@@@QAE@P6AIPBX@ZP6AH00@ZII@Z
??0?$RDI_Hash@JPAVProxyPullConsumer_i@@@@QAE@P6AIPBX@ZP6AH00@ZII@Z
??0?$RDI_Hash@JPAVProxyPullSupplier_i@@@@QAE@P6AIPBX@ZP6AH00@ZII@Z
??0?$RDI_Hash@JPAVProxyPushConsumer_i@@@@QAE@P6AIPBX@ZP6AH00@ZII@Z
??0?$RDI_Hash@JPAVProxyPushSupplier_i@@@@QAE@P6AIPBX@ZP6AH00@ZII@Z
??0?$RDI_Hash@JPAVSequenceProxyPullConsumer_i@@@@QAE@P6AIPBX@ZP6AH00@ZII@Z
??0?$RDI_Hash@JPAVSequenceProxyPullSupplier_i@@@@QAE@P6AIPBX@ZP6AH00@ZII@Z
??0?$RDI_Hash@JPAVSequenceProxyPushConsumer_i@@@@QAE@P6AIPBX@ZP6AH00@ZII@Z
??0?$RDI_Hash@JPAVSequenceProxyPushSupplier_i@@@@QAE@P6AIPBX@ZP6AH00@ZII@Z
??0?$RDI_Hash@JPAVStructuredProxyPullConsumer_i@@@@QAE@P6AIPBX@ZP6AH00@ZII@Z
??0?$RDI_Hash@JPAVStructuredProxyPullSupplier_i@@@@QAE@P6AIPBX@ZP6AH00@ZII@Z
??0?$RDI_Hash@JPAVStructuredProxyPushConsumer_i@@@@QAE@P6AIPBX@ZP6AH00@ZII@Z
??0?$RDI_Hash@JPAVStructuredProxyPushSupplier_i@@@@QAE@P6AIPBX@ZP6AH00@ZII@Z
??0?$RDI_Hash@JPAVSupplierAdmin_i@@@@QAE@P6AIPBX@ZP6AH00@ZII@Z
??0?$RDI_Hash@JPAV_objref_NotifySubscribe@CosNotifyComm@@@@QAE@P6AIPBX@ZP6AH00@ZII@Z
??0?$RDI_Hash@JUFAdminFilterEntry_s@@@@QAE@P6AIPBX@ZP6AH00@ZII@Z
??0?$RDI_Hash@JURDINfyCB@@@@QAE@P6AIPBX@ZP6AH00@ZII@Z
??0?$RDI_Hash@PAVRDIOplockEntry@@H@@QAE@P6AIPBX@ZP6AH00@ZII@Z
??0?$RDI_Hash@UEventType@CosNotification@@K@@QAE@P6AIPBX@ZP6AH00@ZII@Z
??0?$RDI_Hash@UEventType@CosNotification@@UVNode_t@RDI_TypeMap@@@@QAE@P6AIPBX@ZP6AH00@ZII@Z
??0?$RDI_Hash@UKey_t@RDI_StructuredEvent@@UVal_t@2@@@QAE@P6AIPBX@ZP6AH00@ZII@Z
??0?$RDI_Hash@VRDI_EventType@@K@@QAE@P6AIPBX@ZP6AH00@ZII@Z
??0?$RDI_Hash@VRDI_EventType@@PAX@@QAE@P6AIPBX@ZP6AH00@ZII@Z
??0?$RDI_HashCursor@JPAVConsumerAdmin_i@@@@QAE@ABV0@@Z
??0?$RDI_HashCursor@JPAVConsumerAdmin_i@@@@QAE@PBV?$RDI_Hash@JPAVConsumerAdmin_i@@@@@Z
??0?$RDI_HashCursor@JPAVConsumerAdmin_i@@@@QAE@XZ
??0?$RDI_HashCursor@JPAVEventChannel_i@@@@QAE@ABV0@@Z
??0?$RDI_HashCursor@JPAVEventChannel_i@@@@QAE@PBV?$RDI_Hash@JPAVEventChannel_i@@@@@Z
??0?$RDI_HashCursor@JPAVEventChannel_i@@@@QAE@XZ
??0?$RDI_HashCursor@JPAVFilter_i@@@@QAE@ABV0@@Z
??0?$RDI_HashCursor@JPAVFilter_i@@@@QAE@PBV?$RDI_Hash@JPAVFilter_i@@@@@Z
??0?$RDI_HashCursor@JPAVFilter_i@@@@QAE@XZ
??0?$RDI_HashCursor@JPAVProxyPullConsumer_i@@@@QAE@ABV0@@Z
??0?$RDI_HashCursor@JPAVProxyPullConsumer_i@@@@QAE@PBV?$RDI_Hash@JPAVProxyPullConsumer_i@@@@@Z
??0?$RDI_HashCursor@JPAVProxyPullConsumer_i@@@@QAE@XZ
??0?$RDI_HashCursor@JPAVProxyPullSupplier_i@@@@QAE@ABV0@@Z
??0?$RDI_HashCursor@JPAVProxyPullSupplier_i@@@@QAE@PBV?$RDI_Hash@JPAVProxyPullSupplier_i@@@@@Z
??0?$RDI_HashCursor@JPAVProxyPullSupplier_i@@@@QAE@XZ
??0?$RDI_HashCursor@JPAVProxyPushConsumer_i@@@@QAE@ABV0@@Z
??0?$RDI_HashCursor@JPAVProxyPushConsumer_i@@@@QAE@PBV?$RDI_Hash@JPAVProxyPushConsumer_i@@@@@Z
??0?$RDI_HashCursor@JPAVProxyPushConsumer_i@@@@QAE@XZ
??0?$RDI_HashCursor@JPAVProxyPushSupplier_i@@@@QAE@ABV0@@Z
??0?$RDI_HashCursor@JPAVProxyPushSupplier_i@@@@QAE@PBV?$RDI_Hash@JPAVProxyPushSupplier_i@@@@@Z
??0?$RDI_HashCursor@JPAVProxyPushSupplier_i@@@@QAE@XZ
??0?$RDI_HashCursor@JPAVSequenceProxyPullConsumer_i@@@@QAE@ABV0@@Z
??0?$RDI_HashCursor@JPAVSequenceProxyPullConsumer_i@@@@QAE@PBV?$RDI_Hash@JPAVSequenceProxyPullConsumer_i@@@@@Z
??0?$RDI_HashCursor@JPAVSequenceProxyPullConsumer_i@@@@QAE@XZ
??0?$RDI_HashCursor@JPAVSequenceProxyPullSupplier_i@@@@QAE@ABV0@@Z
??0?$RDI_HashCursor@JPAVSequenceProxyPullSupplier_i@@@@QAE@PBV?$RDI_Hash@JPAVSequenceProxyPullSupplier_i@@@@@Z
??0?$RDI_HashCursor@JPAVSequenceProxyPullSupplier_i@@@@QAE@XZ
??0?$RDI_HashCursor@JPAVSequenceProxyPushConsumer_i@@@@QAE@ABV0@@Z
??0?$RDI_HashCursor@JPAVSequenceProxyPushConsumer_i@@@@QAE@PBV?$RDI_Hash@JPAVSequenceProxyPushConsumer_i@@@@@Z
??0?$RDI_HashCursor@JPAVSequenceProxyPushConsumer_i@@@@QAE@XZ
??0?$RDI_HashCursor@JPAVSequenceProxyPushSupplier_i@@@@QAE@ABV0@@Z
??0?$RDI_HashCursor@JPAVSequenceProxyPushSupplier_i@@@@QAE@PBV?$RDI_Hash@JPAVSequenceProxyPushSupplier_i@@@@@Z
??0?$RDI_HashCursor@JPAVSequenceProxyPushSupplier_i@@@@QAE@XZ
??0?$RDI_HashCursor@JPAVStructuredProxyPullConsumer_i@@@@QAE@ABV0@@Z
??0?$RDI_HashCursor@JPAVStructuredProxyPullConsumer_i@@@@QAE@PBV?$RDI_Hash@JPAVStructuredProxyPullConsumer_i@@@@@Z
??0?$RDI_HashCursor@JPAVStructuredProxyPullConsumer_i@@@@QAE@XZ
??0?$RDI_HashCursor@JPAVStructuredProxyPullSupplier_i@@@@QAE@ABV0@@Z
??0?$RDI_HashCursor@JPAVStructuredProxyPullSupplier_i@@@@QAE@PBV?$RDI_Hash@JPAVStructuredProxyPullSupplier_i@@@@@Z
??0?$RDI_HashCursor@JPAVStructuredProxyPullSupplier_i@@@@QAE@XZ
??0?$RDI_HashCursor@JPAVStructuredProxyPushConsumer_i@@@@QAE@ABV0@@Z
??0?$RDI_HashCursor@JPAVStructuredProxyPushConsumer_i@@@@QAE@PBV?$RDI_Hash@JPAVStructuredProxyPushConsumer_i@@@@@Z
??0?$RDI_HashCursor@JPAVStructuredProxyPushConsumer_i@@@@QAE@XZ
??0?$RDI_HashCursor@JPAVStructuredProxyPushSupplier_i@@@@QAE@ABV0@@Z
??0?$RDI_HashCursor@JPAVStructuredProxyPushSupplier_i@@@@QAE@PBV?$RDI_Hash@JPAVStructuredProxyPushSupplier_i@@@@@Z
??0?$RDI_HashCursor@JPAVStructuredProxyPushSupplier_i@@@@QAE@XZ
??0?$RDI_HashCursor@JPAVSupplierAdmin_i@@@@QAE@ABV0@@Z
??0?$RDI_HashCursor@JPAVSupplierAdmin_i@@@@QAE@PBV?$RDI_Hash@JPAVSupplierAdmin_i@@@@@Z
??0?$RDI_HashCursor@JPAVSupplierAdmin_i@@@@QAE@XZ
??0?$RDI_HashCursor@JPAV_objref_NotifySubscribe@CosNotifyComm@@@@QAE@ABV0@@Z
??0?$RDI_HashCursor@JPAV_objref_NotifySubscribe@CosNotifyComm@@@@QAE@PBV?$RDI_Hash@JPAV_objref_NotifySubscribe@CosNotifyComm@@@@@Z
??0?$RDI_HashCursor@JPAV_objref_NotifySubscribe@CosNotifyComm@@@@QAE@XZ
??0?$RDI_HashCursor@JUFAdminFilterEntry_s@@@@QAE@ABV0@@Z
??0?$RDI_HashCursor@JUFAdminFilterEntry_s@@@@QAE@PBV?$RDI_Hash@JUFAdminFilterEntry_s@@@@@Z
??0?$RDI_HashCursor@JUFAdminFilterEntry_s@@@@QAE@XZ
??0?$RDI_HashCursor@JURDINfyCB@@@@QAE@ABV0@@Z
??0?$RDI_HashCursor@JURDINfyCB@@@@QAE@PBV?$RDI_Hash@JURDINfyCB@@@@@Z
??0?$RDI_HashCursor@JURDINfyCB@@@@QAE@XZ
??0?$RDI_HashCursor@UEventType@CosNotification@@K@@QAE@ABV0@@Z
??0?$RDI_HashCursor@UEventType@CosNotification@@K@@QAE@PBV?$RDI_Hash@UEventType@CosNotification@@K@@@Z
??0?$RDI_HashCursor@UEventType@CosNotification@@K@@QAE@XZ
??0?$RDI_HashCursor@UEventType@CosNotification@@UVNode_t@RDI_TypeMap@@@@QAE@ABV0@@Z
??0?$RDI_HashCursor@UEventType@CosNotification@@UVNode_t@RDI_TypeMap@@@@QAE@PBV?$RDI_Hash@UEventType@CosNotification@@UVNode_t@RDI_TypeMap@@@@@Z
??0?$RDI_HashCursor@UEventType@CosNotification@@UVNode_t@RDI_TypeMap@@@@QAE@XZ
??0?$RDI_HashCursor@UKey_t@RDI_StructuredEvent@@UVal_t@2@@@QAE@PBV?$RDI_Hash@UKey_t@RDI_StructuredEvent@@UVal_t@2@@@@Z
??0?$RDI_HashCursor@VRDI_EventType@@K@@QAE@ABV0@@Z
??0?$RDI_HashCursor@VRDI_EventType@@K@@QAE@PBV?$RDI_Hash@VRDI_EventType@@K@@@Z
??0?$RDI_HashCursor@VRDI_EventType@@K@@QAE@XZ
??0?$RDI_HashCursor@VRDI_EventType@@PAX@@QAE@ABV0@@Z
??0?$RDI_HashCursor@VRDI_EventType@@PAX@@QAE@PBV?$RDI_Hash@VRDI_EventType@@PAX@@@Z
??0?$RDI_HashCursor@VRDI_EventType@@PAX@@QAE@XZ
??0?$RDI_KeyValuePair@UEventType@CosNotification@@K@@QAE@XZ
??0?$RDI_KeyValuePair@UEventType@CosNotification@@UVNode_t@RDI_TypeMap@@@@QAE@XZ
??0?$RDI_KeyValuePair@UKey_t@RDI_StructuredEvent@@UVal_t@2@@@QAE@XZ
??0?$RDI_KeyValuePair@VRDI_EventType@@K@@QAE@XZ
??0?$RDI_KeyValuePair@VRDI_EventType@@PAX@@QAE@XZ
??0?$RDI_List@PAVEventProxyPullConsumer_i@@@@QAE@III@Z
??0?$RDI_List@PAVEventProxyPullSupplier_i@@@@QAE@III@Z
??0?$RDI_List@PAVEventProxyPushConsumer_i@@@@QAE@III@Z
??0?$RDI_List@PAVEventProxyPushSupplier_i@@@@QAE@III@Z
??0?$RDI_List@PAVRDI_StructuredEvent@@@@QAE@III@Z
??0?$RDI_List@UProxyDispatch_t@EventChannel_i@@@@QAE@III@Z
??0?$RDI_ListCursor@PAVEventProxyPullConsumer_i@@@@QAE@ABV0@@Z
??0?$RDI_ListCursor@PAVEventProxyPullConsumer_i@@@@QAE@PBV?$RDI_List@PAVEventProxyPullConsumer_i@@@@@Z
??0?$RDI_ListCursor@PAVEventProxyPullConsumer_i@@@@QAE@XZ
??0?$RDI_ListCursor@PAVEventProxyPullSupplier_i@@@@QAE@ABV0@@Z
??0?$RDI_ListCursor@PAVEventProxyPullSupplier_i@@@@QAE@PBV?$RDI_List@PAVEventProxyPullSupplier_i@@@@@Z
??0?$RDI_ListCursor@PAVEventProxyPullSupplier_i@@@@QAE@XZ
??0?$RDI_ListCursor@PAVEventProxyPushConsumer_i@@@@QAE@ABV0@@Z
??0?$RDI_ListCursor@PAVEventProxyPushConsumer_i@@@@QAE@PBV?$RDI_List@PAVEventProxyPushConsumer_i@@@@@Z
??0?$RDI_ListCursor@PAVEventProxyPushConsumer_i@@@@QAE@XZ
??0?$RDI_ListCursor@PAVEventProxyPushSupplier_i@@@@QAE@ABV0@@Z
??0?$RDI_ListCursor@PAVEventProxyPushSupplier_i@@@@QAE@PBV?$RDI_List@PAVEventProxyPushSupplier_i@@@@@Z
??0?$RDI_ListCursor@PAVEventProxyPushSupplier_i@@@@QAE@XZ
??0?$RDI_SafeList@VConsumerAdmin_i@@@@QAE@XZ
??0?$_CORBA_ObjRef_Element@V_objref_Interactive@AttNotification@@VInteractive_Helper@2@@@QAE@AAPAV_objref_Interactive@AttNotification@@_N@Z
??0?$_CORBA_ObjRef_OUT_arg@V_objref_Interactive@AttNotification@@VInteractive_Helper@2@@@QAE@AAPAV_objref_Interactive@AttNotification@@@Z
??0?$_CORBA_ObjRef_OUT_arg@V_objref_Interactive@AttNotification@@VInteractive_Helper@2@@@QAE@ABV0@@Z
??0?$_CORBA_ObjRef_Var@V_objref_ConsumerAdmin@AttNotification@@VConsumerAdmin_Helper@2@@@QAE@XZ
??0?$_CORBA_ObjRef_Var@V_objref_EventChannel@AttNotification@@VEventChannel_Helper@2@@@QAE@PAV_objref_EventChannel@AttNotification@@@Z
??0?$_CORBA_ObjRef_Var@V_objref_EventChannel@AttNotification@@VEventChannel_Helper@2@@@QAE@XZ
??0?$_CORBA_ObjRef_Var@V_objref_EventChannel@CosNotifyChannelAdmin@@VEventChannel_Helper@2@@@QAE@XZ
??0?$_CORBA_ObjRef_Var@V_objref_EventChannelFactory@AttNotification@@VEventChannelFactory_Helper@2@@@QAE@XZ
??0?$_CORBA_ObjRef_Var@V_objref_Filter@AttNotification@@VFilter_Helper@2@@@QAE@PAV_objref_Filter@AttNotification@@@Z
??0?$_CORBA_ObjRef_Var@V_objref_Filter@CosNotifyFilter@@VFilter_Helper@2@@@QAE@PAV_objref_Filter@CosNotifyFilter@@@Z
??0?$_CORBA_ObjRef_Var@V_objref_FilterFactory@AttNotification@@VFilterFactory_Helper@2@@@QAE@XZ
??0?$_CORBA_ObjRef_Var@V_objref_MappingFilter@CosNotifyFilter@@VMappingFilter_Helper@2@@@QAE@XZ
??0?$_CORBA_ObjRef_Var@V_objref_NamingContext@CosNaming@@VNamingContext_Helper@2@@@QAE@XZ
??0?$_CORBA_ObjRef_Var@V_objref_NotifyPublish@CosNotifyComm@@VNotifyPublish_Helper@2@@@QAE@XZ
??0?$_CORBA_ObjRef_Var@V_objref_NotifySubscribe@CosNotifyComm@@VNotifySubscribe_Helper@2@@@QAE@XZ
??0?$_CORBA_ObjRef_Var@V_objref_PullConsumer@CosEventComm@@VPullConsumer_Helper@2@@@QAE@XZ
??0?$_CORBA_ObjRef_Var@V_objref_PullConsumer@CosNotifyComm@@VPullConsumer_Helper@2@@@QAE@XZ
??0?$_CORBA_ObjRef_Var@V_objref_PullSupplier@CosEventComm@@VPullSupplier_Helper@2@@@QAE@XZ
??0?$_CORBA_ObjRef_Var@V_objref_PullSupplier@CosNotifyComm@@VPullSupplier_Helper@2@@@QAE@XZ
??0?$_CORBA_ObjRef_Var@V_objref_PushConsumer@CosEventComm@@VPushConsumer_Helper@2@@@QAE@XZ
??0?$_CORBA_ObjRef_Var@V_objref_PushConsumer@CosNotifyComm@@VPushConsumer_Helper@2@@@QAE@XZ
??0?$_CORBA_ObjRef_Var@V_objref_PushSupplier@CosEventComm@@VPushSupplier_Helper@2@@@QAE@XZ
??0?$_CORBA_ObjRef_Var@V_objref_PushSupplier@CosNotifyComm@@VPushSupplier_Helper@2@@@QAE@XZ
??0?$_CORBA_ObjRef_Var@V_objref_SequencePullConsumer@CosNotifyComm@@VSequencePullConsumer_Helper@2@@@QAE@XZ
??0?$_CORBA_ObjRef_Var@V_objref_SequencePullSupplier@CosNotifyComm@@VSequencePullSupplier_Helper@2@@@QAE@XZ
??0?$_CORBA_ObjRef_Var@V_objref_SequencePushConsumer@CosNotifyComm@@VSequencePushConsumer_Helper@2@@@QAE@XZ
??0?$_CORBA_ObjRef_Var@V_objref_SequencePushSupplier@CosNotifyComm@@VSequencePushSupplier_Helper@2@@@QAE@XZ
??0?$_CORBA_ObjRef_Var@V_objref_Server@AttNotification@@VServer_Helper@2@@@QAE@PAV_objref_Server@AttNotification@@@Z
??0?$_CORBA_ObjRef_Var@V_objref_StructuredPullConsumer@CosNotifyComm@@VStructuredPullConsumer_Helper@2@@@QAE@XZ
??0?$_CORBA_ObjRef_Var@V_objref_StructuredPullSupplier@CosNotifyComm@@VStructuredPullSupplier_Helper@2@@@QAE@XZ
??0?$_CORBA_ObjRef_Var@V_objref_StructuredPushConsumer@CosNotifyComm@@VStructuredPushConsumer_Helper@2@@@QAE@XZ
??0?$_CORBA_ObjRef_Var@V_objref_StructuredPushSupplier@CosNotifyComm@@VStructuredPushSupplier_Helper@2@@@QAE@XZ
??0?$_CORBA_ObjRef_Var@V_objref_SupplierAdmin@AttNotification@@VSupplierAdmin_Helper@2@@@QAE@XZ
??0?$_CORBA_PseudoObj_Var@VDynAny@DynamicAny@@@@QAE@PAVDynAny@DynamicAny@@@Z
??0?$_CORBA_PseudoObj_Var@VDynAny@DynamicAny@@@@QAE@XZ
??0?$_CORBA_PseudoObj_Var@VDynAnyFactory@DynamicAny@@@@QAE@PAVDynAnyFactory@DynamicAny@@@Z
??0?$_CORBA_PseudoObj_Var@VDynArray@DynamicAny@@@@QAE@XZ
??0?$_CORBA_PseudoObj_Var@VDynEnum@DynamicAny@@@@QAE@PAVDynEnum@DynamicAny@@@Z
??0?$_CORBA_PseudoObj_Var@VDynEnum@DynamicAny@@@@QAE@XZ
??0?$_CORBA_PseudoObj_Var@VDynSequence@DynamicAny@@@@QAE@XZ
??0?$_CORBA_PseudoObj_Var@VDynStruct@DynamicAny@@@@QAE@PAVDynStruct@DynamicAny@@@Z
??0?$_CORBA_PseudoObj_Var@VDynStruct@DynamicAny@@@@QAE@XZ
??0?$_CORBA_PseudoObj_Var@VDynUnion@DynamicAny@@@@QAE@XZ
??0?$_CORBA_PseudoObj_Var@VPOAManager@PortableServer@@@@QAE@PAVPOAManager@PortableServer@@@Z
??0?$_CORBA_Sequence@J@@IAE@XZ
??0?$_CORBA_Sequence@PAVConstraintImpl@@@@IAE@XZ
??0?$_CORBA_Sequence@PAVConsumerAdmin_i@@@@IAE@XZ
??0?$_CORBA_Sequence@PAVEventProxyPullConsumer_i@@@@IAE@XZ
??0?$_CORBA_Sequence@PAVEventProxyPullSupplier_i@@@@IAE@XZ
??0?$_CORBA_Sequence@PAVEventProxyPushConsumer_i@@@@IAE@XZ
??0?$_CORBA_Sequence@PAVEventProxyPushSupplier_i@@@@IAE@XZ
??0?$_CORBA_Sequence@PAVFilter_i@@@@IAE@XZ
??0?$_CORBA_Sequence@PAVProxyPullConsumer_i@@@@IAE@XZ
??0?$_CORBA_Sequence@PAVProxyPullSupplier_i@@@@IAE@XZ
??0?$_CORBA_Sequence@PAVProxyPushConsumer_i@@@@IAE@XZ
??0?$_CORBA_Sequence@PAVProxyPushSupplier_i@@@@IAE@XZ
??0?$_CORBA_Sequence@PAVRDINotifySubscribe@@@@IAE@XZ
??0?$_CORBA_Sequence@PAVSequenceProxyPullConsumer_i@@@@IAE@XZ
??0?$_CORBA_Sequence@PAVSequenceProxyPullSupplier_i@@@@IAE@XZ
??0?$_CORBA_Sequence@PAVSequenceProxyPushConsumer_i@@@@IAE@XZ
??0?$_CORBA_Sequence@PAVSequenceProxyPushSupplier_i@@@@IAE@XZ
??0?$_CORBA_Sequence@PAVStructuredProxyPullConsumer_i@@@@IAE@XZ
??0?$_CORBA_Sequence@PAVStructuredProxyPullSupplier_i@@@@IAE@XZ
??0?$_CORBA_Sequence@PAVStructuredProxyPushConsumer_i@@@@IAE@XZ
??0?$_CORBA_Sequence@PAVStructuredProxyPushSupplier_i@@@@IAE@XZ
??0?$_CORBA_Sequence@PAVSupplierAdmin_i@@@@IAE@XZ
??0?$_CORBA_Sequence@PAV_objref_ConsumerAdmin@CosNotifyChannelAdmin@@@@IAE@XZ
??0?$_CORBA_Sequence@PAV_objref_Filter@CosNotifyFilter@@@@IAE@XZ
??0?$_CORBA_Sequence@PAV_objref_NotifySubscribe@CosNotifyComm@@@@IAE@XZ
??0?$_CORBA_Sequence@PAV_objref_ProxyPullConsumer@CosEventChannelAdmin@@@@IAE@XZ
??0?$_CORBA_Sequence@PAV_objref_ProxyPullConsumer@CosNotifyChannelAdmin@@@@IAE@XZ
??0?$_CORBA_Sequence@PAV_objref_ProxyPullSupplier@CosEventChannelAdmin@@@@IAE@XZ
??0?$_CORBA_Sequence@PAV_objref_ProxyPullSupplier@CosNotifyChannelAdmin@@@@IAE@XZ
??0?$_CORBA_Sequence@PAV_objref_ProxyPushConsumer@CosEventChannelAdmin@@@@IAE@XZ
??0?$_CORBA_Sequence@PAV_objref_ProxyPushConsumer@CosNotifyChannelAdmin@@@@IAE@XZ
??0?$_CORBA_Sequence@PAV_objref_ProxyPushSupplier@CosEventChannelAdmin@@@@IAE@XZ
??0?$_CORBA_Sequence@PAV_objref_ProxyPushSupplier@CosNotifyChannelAdmin@@@@IAE@XZ
??0?$_CORBA_Sequence@PAV_objref_SequenceProxyPullConsumer@CosNotifyChannelAdmin@@@@IAE@XZ
??0?$_CORBA_Sequence@PAV_objref_SequenceProxyPullSupplier@CosNotifyChannelAdmin@@@@IAE@XZ
??0?$_CORBA_Sequence@PAV_objref_SequenceProxyPushConsumer@CosNotifyChannelAdmin@@@@IAE@XZ
??0?$_CORBA_Sequence@PAV_objref_SequenceProxyPushSupplier@CosNotifyChannelAdmin@@@@IAE@XZ
??0?$_CORBA_Sequence@PAV_objref_StructuredProxyPullConsumer@CosNotifyChannelAdmin@@@@IAE@XZ
??0?$_CORBA_Sequence@PAV_objref_StructuredProxyPullSupplier@CosNotifyChannelAdmin@@@@IAE@XZ
??0?$_CORBA_Sequence@PAV_objref_StructuredProxyPushConsumer@CosNotifyChannelAdmin@@@@IAE@XZ
??0?$_CORBA_Sequence@PAV_objref_StructuredProxyPushSupplier@CosNotifyChannelAdmin@@@@IAE@XZ
??0?$_CORBA_Sequence@PAV_objref_SupplierAdmin@CosNotifyChannelAdmin@@@@IAE@XZ
??0?$_CORBA_Sequence@UConstraintInfo@CosNotifyFilter@@@@IAE@XZ
??0?$_CORBA_Sequence@UEventType@CosNotification@@@@IAE@ABV0@@Z
??0?$_CORBA_Sequence@UEventType@CosNotification@@@@IAE@XZ
??0?$_CORBA_Sequence@UNameComponent@CosNaming@@@@IAE@XZ
??0?$_CORBA_Sequence@UNamedPropertyRange@CosNotification@@@@IAE@XZ
??0?$_CORBA_Sequence@UProperty@CosNotification@@@@IAE@ABV0@@Z
??0?$_CORBA_Sequence@UProperty@CosNotification@@@@IAE@XZ
??0?$_CORBA_Sequence@UPropertyError@CosNotification@@@@IAE@ABV0@@Z
??0?$_CORBA_Sequence@UPropertyError@CosNotification@@@@IAE@XZ
??0?$_CORBA_Sequence@UStructuredEvent@CosNotification@@@@IAE@K_N@Z
??0?$_CORBA_Sequence@UStructuredEvent@CosNotification@@@@IAE@XZ
??0?$_CORBA_Sequence_ObjRef@V_objref_Interactive@AttNotification@@V?$_CORBA_ObjRef_Element@V_objref_Interactive@AttNotification@@VInteractive_Helper@2@@@VInteractive_Helper@2@@@IAE@XZ
??0?$_CORBA_Unbounded_Sequence@J@@QAE@XZ
??0?$_CORBA_Unbounded_Sequence@PAVConstraintImpl@@@@QAE@XZ
??0?$_CORBA_Unbounded_Sequence@PAVConsumerAdmin_i@@@@QAE@XZ
??0?$_CORBA_Unbounded_Sequence@PAVEventProxyPullConsumer_i@@@@QAE@XZ
??0?$_CORBA_Unbounded_Sequence@PAVEventProxyPullSupplier_i@@@@QAE@XZ
??0?$_CORBA_Unbounded_Sequence@PAVEventProxyPushConsumer_i@@@@QAE@XZ
??0?$_CORBA_Unbounded_Sequence@PAVEventProxyPushSupplier_i@@@@QAE@XZ
??0?$_CORBA_Unbounded_Sequence@PAVFilter_i@@@@QAE@XZ
??0?$_CORBA_Unbounded_Sequence@PAVProxyPullConsumer_i@@@@QAE@XZ
??0?$_CORBA_Unbounded_Sequence@PAVProxyPullSupplier_i@@@@QAE@XZ
??0?$_CORBA_Unbounded_Sequence@PAVProxyPushConsumer_i@@@@QAE@XZ
??0?$_CORBA_Unbounded_Sequence@PAVProxyPushSupplier_i@@@@QAE@XZ
??0?$_CORBA_Unbounded_Sequence@PAVRDINotifySubscribe@@@@QAE@XZ
??0?$_CORBA_Unbounded_Sequence@PAVSequenceProxyPullConsumer_i@@@@QAE@XZ
??0?$_CORBA_Unbounded_Sequence@PAVSequenceProxyPullSupplier_i@@@@QAE@XZ
??0?$_CORBA_Unbounded_Sequence@PAVSequenceProxyPushConsumer_i@@@@QAE@XZ
??0?$_CORBA_Unbounded_Sequence@PAVSequenceProxyPushSupplier_i@@@@QAE@XZ
??0?$_CORBA_Unbounded_Sequence@PAVStructuredProxyPullConsumer_i@@@@QAE@XZ
??0?$_CORBA_Unbounded_Sequence@PAVStructuredProxyPullSupplier_i@@@@QAE@XZ
??0?$_CORBA_Unbounded_Sequence@PAVStructuredProxyPushConsumer_i@@@@QAE@XZ
??0?$_CORBA_Unbounded_Sequence@PAVStructuredProxyPushSupplier_i@@@@QAE@XZ
??0?$_CORBA_Unbounded_Sequence@PAVSupplierAdmin_i@@@@QAE@XZ
??0?$_CORBA_Unbounded_Sequence@PAV_objref_ConsumerAdmin@CosNotifyChannelAdmin@@@@QAE@XZ
??0?$_CORBA_Unbounded_Sequence@PAV_objref_Filter@CosNotifyFilter@@@@QAE@XZ
??0?$_CORBA_Unbounded_Sequence@PAV_objref_NotifySubscribe@CosNotifyComm@@@@QAE@XZ
??0?$_CORBA_Unbounded_Sequence@PAV_objref_ProxyPullConsumer@CosEventChannelAdmin@@@@QAE@XZ
??0?$_CORBA_Unbounded_Sequence@PAV_objref_ProxyPullConsumer@CosNotifyChannelAdmin@@@@QAE@XZ
??0?$_CORBA_Unbounded_Sequence@PAV_objref_ProxyPullSupplier@CosEventChannelAdmin@@@@QAE@XZ
??0?$_CORBA_Unbounded_Sequence@PAV_objref_ProxyPullSupplier@CosNotifyChannelAdmin@@@@QAE@XZ
??0?$_CORBA_Unbounded_Sequence@PAV_objref_ProxyPushConsumer@CosEventChannelAdmin@@@@QAE@XZ
??0?$_CORBA_Unbounded_Sequence@PAV_objref_ProxyPushConsumer@CosNotifyChannelAdmin@@@@QAE@XZ
??0?$_CORBA_Unbounded_Sequence@PAV_objref_ProxyPushSupplier@CosEventChannelAdmin@@@@QAE@XZ
??0?$_CORBA_Unbounded_Sequence@PAV_objref_ProxyPushSupplier@CosNotifyChannelAdmin@@@@QAE@XZ
??0?$_CORBA_Unbounded_Sequence@PAV_objref_SequenceProxyPullConsumer@CosNotifyChannelAdmin@@@@QAE@XZ
??0?$_CORBA_Unbounded_Sequence@PAV_objref_SequenceProxyPullSupplier@CosNotifyChannelAdmin@@@@QAE@XZ
??0?$_CORBA_Unbounded_Sequence@PAV_objref_SequenceProxyPushConsumer@CosNotifyChannelAdmin@@@@QAE@XZ
??0?$_CORBA_Unbounded_Sequence@PAV_objref_SequenceProxyPushSupplier@CosNotifyChannelAdmin@@@@QAE@XZ
??0?$_CORBA_Unbounded_Sequence@PAV_objref_StructuredProxyPullConsumer@CosNotifyChannelAdmin@@@@QAE@XZ
??0?$_CORBA_Unbounded_Sequence@PAV_objref_StructuredProxyPullSupplier@CosNotifyChannelAdmin@@@@QAE@XZ
??0?$_CORBA_Unbounded_Sequence@PAV_objref_StructuredProxyPushConsumer@CosNotifyChannelAdmin@@@@QAE@XZ
??0?$_CORBA_Unbounded_Sequence@PAV_objref_StructuredProxyPushSupplier@CosNotifyChannelAdmin@@@@QAE@XZ
??0?$_CORBA_Unbounded_Sequence@PAV_objref_SupplierAdmin@CosNotifyChannelAdmin@@@@QAE@XZ
??0?$_CORBA_Unbounded_Sequence@UConstraintInfo@CosNotifyFilter@@@@QAE@XZ
??0?$_CORBA_Unbounded_Sequence@UEventType@CosNotification@@@@QAE@ABV0@@Z
??0?$_CORBA_Unbounded_Sequence@UEventType@CosNotification@@@@QAE@XZ
??0?$_CORBA_Unbounded_Sequence@UNameComponent@CosNaming@@@@QAE@XZ
??0?$_CORBA_Unbounded_Sequence@UNamedPropertyRange@CosNotification@@@@QAE@XZ
??0?$_CORBA_Unbounded_Sequence@UProperty@CosNotification@@@@QAE@ABV0@@Z
??0?$_CORBA_Unbounded_Sequence@UProperty@CosNotification@@@@QAE@XZ
??0?$_CORBA_Unbounded_Sequence@UPropertyError@CosNotification@@@@QAE@ABV0@@Z
??0?$_CORBA_Unbounded_Sequence@UPropertyError@CosNotification@@@@QAE@XZ
??0?$_CORBA_Unbounded_Sequence@UStructuredEvent@CosNotification@@@@QAE@K@Z
??0?$_CORBA_Unbounded_Sequence@UStructuredEvent@CosNotification@@@@QAE@XZ
??0?$_CORBA_Unbounded_Sequence_ObjRef@V_objref_Interactive@AttNotification@@V?$_CORBA_ObjRef_Element@V_objref_Interactive@AttNotification@@VInteractive_Helper@2@@@VInteractive_Helper@2@@@QAE@XZ
??0?$_CORBA_Unbounded_Sequence_w_FixSizeElement@J$03$03@@QAE@XZ
??0?$omnivector@PAVomniObjTableEntry@@@@QAE@XZ
??0ANode_t@RDI_TypeMap@@QAE@PAVConsumerAdmin_i@@PAUFNode_t@1@@Z
??0AdminIDSeq@CosNotifyChannelAdmin@@QAE@XZ
??0AdminLimit@CosNotifyChannelAdmin@@QAE@XZ
??0AdminNotFound@CosNotifyChannelAdmin@@QAE@XZ
??0AdminPropertiesAdmin@POA_CosNotification@@QAE@XZ
??0AlreadyConnected@CosEventChannelAdmin@@QAE@XZ
??0AnyProxyBoundWorker@@QAE@PAVProxyPushSupplier_i@@P81@AEXXZ@Z
??0AnyPullWorker@@QAE@PAVProxyPullConsumer_i@@P81@AEXXZ@Z
??0Any_var@CORBA@@QAE@XZ
??0BAD_OPERATION@CORBA@@QAE@ABV01@@Z
??0BAD_OPERATION@CORBA@@QAE@KW4CompletionStatus@1@@Z
??0BAD_PARAM@CORBA@@QAE@ABV01@@Z
??0BAD_PARAM@CORBA@@QAE@KW4CompletionStatus@1@@Z
??0CAdminGroupMgr@@QAE@II@Z
??0CEntry_t@RDI_ChangePool@@QAE@XZ
??0CallbackIDSeq@CosNotifyFilter@@QAE@XZ
??0ChannelIDSeq@CosNotifyChannelAdmin@@QAE@XZ
??0ChannelNotFound@CosNotifyChannelAdmin@@QAE@XZ
??0ConnectionAlreadyActive@CosNotifyChannelAdmin@@QAE@XZ
??0ConnectionAlreadyInactive@CosNotifyChannelAdmin@@QAE@XZ
??0ConstraintExp@CosNotifyFilter@@QAE@XZ
??0ConstraintIDSeq@CosNotifyFilter@@QAE@XZ
??0ConstraintImpl@@QAE@XZ
??0ConstraintInfo@CosNotifyFilter@@QAE@XZ
??0ConstraintInfoSeq@CosNotifyFilter@@QAE@XZ
??0ConsumerAdmin@POA_AttNotification@@QAE@XZ
??0ConsumerAdmin@POA_CosEventChannelAdmin@@QAE@XZ
??0ConsumerAdmin@POA_CosNotifyChannelAdmin@@QAE@XZ
??0ConsumerAdmin_i@@QAE@PAVEventChannel_i@@W4InterFilterGroupOperator@CosNotifyChannelAdmin@@ABJ@Z
??0CosEvProxyPullConsumer@POA_AttNotification@@QAE@XZ
??0CosEvProxyPullSupplier@POA_AttNotification@@QAE@XZ
??0CosEvProxyPushConsumer@POA_AttNotification@@QAE@XZ
??0CosEvProxyPushSupplier@POA_AttNotification@@QAE@XZ
??0Disconnected@CosEventComm@@QAE@XZ
??0EventBatch@CosNotification@@QAE@K@Z
??0EventBatch@CosNotification@@QAE@XZ
??0EventChannel@POA_AttNotification@@QAE@XZ
??0EventChannel@POA_CosEventChannelAdmin@@QAE@XZ
??0EventChannel@POA_CosNotifyChannelAdmin@@QAE@XZ
??0EventChannelBoundWorker@@QAE@PAVEventChannel_i@@P81@AEXXZW4priority_t@omni_thread@@@Z
??0EventChannelDispatch@@QAE@PAVEventChannel_i@@IP81@AEXXZI1@Z
??0EventChannelFactory@POA_AttNotification@@QAE@XZ
??0EventChannelFactory@POA_CosNotifyChannelAdmin@@QAE@XZ
??0EventChannelFactory_i@@QAE@PAVFilterFactory_i@@ABVRDI_NotifQoS@@ABVRDI_AdminQoS@@PAVRDI_ServerQoS@@@Z
??0EventChannelWorker@@QAE@PAVEventChannel_i@@P81@AEXXZW4priority_t@omni_thread@@@Z
??0EventChannel_i@@QAE@PAVEventChannelFactory_i@@PAVFilterFactory_i@@ABVPropertySeq@CosNotification@@2PAVRDI_ServerQoS@@ABJ@Z
??0EventHeader@CosNotification@@QAE@ABU01@@Z
??0EventHeader@CosNotification@@QAE@XZ
??0EventProxyPullConsumer_i@@QAE@PAVSupplierAdmin_i@@PAVEventChannel_i@@ABJ@Z
??0EventProxyPullSupplier_i@@QAE@PAVConsumerAdmin_i@@PAVEventChannel_i@@ABJ@Z
??0EventProxyPushConsumer_i@@QAE@PAVSupplierAdmin_i@@PAVEventChannel_i@@ABJ@Z
??0EventProxyPushSupplier_i@@QAE@PAVConsumerAdmin_i@@PAVEventChannel_i@@ABJ@Z
??0EventPullWorker@@QAE@PAVEventProxyPullConsumer_i@@P81@AEXXZ@Z
??0EventPushWorker@@QAE@PAVEventProxyPushSupplier_i@@P81@AEXXZ@Z
??0EventQueueWorker@@QAE@PAVRDI_EventQueue@@P81@AEXXZW4priority_t@omni_thread@@@Z
??0EventType@CosNotification@@QAE@ABU01@@Z
??0EventType@CosNotification@@QAE@XZ
??0EventTypeSeq@CosNotification@@QAE@ABV01@@Z
??0EventTypeSeq@CosNotification@@QAE@XZ
??0Exception@CORBA@@IAE@XZ
??0Exception@CORBA@@QAE@ABV01@@Z
??0FAdminHelper@@QAE@PBD@Z
??0FList_t@RDI_TypeMap@@QAE@XZ
??0FNode_t@RDI_TypeMap@@QAE@PAVFilter_i@@@Z
??0Filter@POA_AttNotification@@QAE@XZ
??0Filter@POA_CosNotifyFilter@@QAE@XZ
??0FilterAdmin@POA_CosNotifyFilter@@QAE@XZ
??0FilterFactory@POA_AttNotification@@QAE@XZ
??0FilterFactory@POA_CosNotifyFilter@@QAE@XZ
??0FilterFactory_i@@QAE@PBD@Z
??0FilterIDSeq@CosNotifyFilter@@QAE@XZ
??0FilterNotFound@CosNotifyFilter@@QAE@XZ
??0Filter_i@@QAE@PBDPAVFilterFactory_i@@@Z
??0FixedEventHeader@CosNotification@@QAE@ABU01@@Z
??0FixedEventHeader@CosNotification@@QAE@XZ
??0FlexLexer@@QAE@XZ
??0IMP_LIMIT@CORBA@@QAE@ABV01@@Z
??0IMP_LIMIT@CORBA@@QAE@KW4CompletionStatus@1@@Z
??0INV_OBJREF@CORBA@@QAE@ABV01@@Z
??0INV_OBJREF@CORBA@@QAE@KW4CompletionStatus@1@@Z
??0IactSeq@AttNotification@@QAE@XZ
??0Interactive@POA_AttNotification@@QAE@XZ
??0InvalidGrammar@CosNotifyFilter@@QAE@XZ
??0Key_t@RDI_StructuredEvent@@QAE@PBD@Z
??0MappingFilter@POA_AttNotification@@QAE@XZ
??0MappingFilter@POA_CosNotifyFilter@@QAE@XZ
??0MappingFilter_i@@QAE@PBDABVAny@CORBA@@PAVFilterFactory_i@@@Z
??0NO_MEMORY@CORBA@@QAE@ABV01@@Z
??0NO_MEMORY@CORBA@@QAE@KW4CompletionStatus@1@@Z
??0Name@CosNaming@@QAE@XZ
??0NameComponent@CosNaming@@QAE@XZ
??0NameSeq@AttNotification@@QAE@ABV01@@Z
??0NameSeq@AttNotification@@QAE@XZ
??0NamedPropertyRange@CosNotification@@QAE@XZ
??0NamedPropertyRangeSeq@CosNotification@@QAE@XZ
??0NamedPropertyRangeSeq_out@CosNotification@@QAE@ABV01@@Z
??0NotConnected@CosNotifyChannelAdmin@@QAE@XZ
??0NotifyPublish@POA_CosNotifyComm@@QAE@XZ
??0NotifySubscribe@POA_CosNotifyComm@@QAE@XZ
??0ObjectId_var@PortableServer@@QAE@PAVObjectId@1@@Z
??0Object_var@CORBA@@QAE@PAVObject@1@@Z
??0Object_var@CORBA@@QAE@XZ
??0PNode_t@RDI_TypeMap@@QAE@PAVRDIProxySupplier@@PAUFNode_t@1@@Z
??0Property@CosNotification@@QAE@XZ
??0PropertyError@CosNotification@@QAE@XZ
??0PropertyErrorSeq@CosNotification@@QAE@ABV01@@Z
??0PropertyErrorSeq@CosNotification@@QAE@XZ
??0PropertyRange@CosNotification@@QAE@XZ
??0PropertySeq@CosNotification@@QAE@ABV01@@Z
??0PropertySeq@CosNotification@@QAE@XZ
??0ProxyConsumer@POA_CosNotifyChannelAdmin@@QAE@XZ
??0ProxyDispatch_t@EventChannel_i@@QAE@ABU01@@Z
??0ProxyDispatch_t@EventChannel_i@@QAE@PAVRDI_StructuredEvent@@PAVConsumerAdmin_i@@W4RDI_FilterState_t@@@Z
??0ProxyEntry_t@RDI_ChangePool@@QAE@PAVRDIProxyConsumer@@@Z
??0ProxyEntry_t@RDI_ChangePool@@QAE@PAVRDIProxySupplier@@@Z
??0ProxyEntry_t@RDI_NotifyConsumer@@QAE@PAVRDIProxyPushSupplier@@@Z
??0ProxyEntry_t@RDI_PullSupplier@@QAE@PAVRDIProxyPullConsumer@@@Z
??0ProxyIDSeq@CosNotifyChannelAdmin@@QAE@XZ
??0ProxyNotFound@CosNotifyChannelAdmin@@QAE@XZ
??0ProxyPullConsumer@POA_AttNotification@@QAE@XZ
??0ProxyPullConsumer@POA_CosEventChannelAdmin@@QAE@XZ
??0ProxyPullConsumer@POA_CosNotifyChannelAdmin@@QAE@XZ
??0ProxyPullConsumer_i@@QAE@PAVSupplierAdmin_i@@PAVEventChannel_i@@ABJ@Z
??0ProxyPullSupplier@POA_AttNotification@@QAE@XZ
??0ProxyPullSupplier@POA_CosEventChannelAdmin@@QAE@XZ
??0ProxyPullSupplier@POA_CosNotifyChannelAdmin@@QAE@XZ
??0ProxyPullSupplier_i@@QAE@PAVConsumerAdmin_i@@PAVEventChannel_i@@ABJ@Z
??0ProxyPushConsumer@POA_AttNotification@@QAE@XZ
??0ProxyPushConsumer@POA_CosEventChannelAdmin@@QAE@XZ
??0ProxyPushConsumer@POA_CosNotifyChannelAdmin@@QAE@XZ
??0ProxyPushConsumer_i@@QAE@PAVSupplierAdmin_i@@PAVEventChannel_i@@ABJ@Z
??0ProxyPushSupplier@POA_AttNotification@@QAE@XZ
??0ProxyPushSupplier@POA_CosEventChannelAdmin@@QAE@XZ
??0ProxyPushSupplier@POA_CosNotifyChannelAdmin@@QAE@XZ
??0ProxyPushSupplier_i@@QAE@PAVConsumerAdmin_i@@PAVEventChannel_i@@ABJ@Z
??0ProxySupplier@POA_CosNotifyChannelAdmin@@QAE@XZ
??0PullConsumer@POA_CosEventComm@@QAE@XZ
??0PullConsumer@POA_CosNotifyComm@@QAE@XZ
??0PullSupplier@POA_CosEventComm@@QAE@XZ
??0PullSupplier@POA_CosNotifyComm@@QAE@XZ
??0PushConsumer@POA_CosEventComm@@QAE@XZ
??0PushConsumer@POA_CosNotifyComm@@QAE@XZ
??0PushSupplier@POA_CosEventComm@@QAE@XZ
??0PushSupplier@POA_CosNotifyComm@@QAE@XZ
??0QoSAdmin@POA_CosNotification@@QAE@XZ
??0RDINotifQueue@@QAE@ABV0@@Z
??0RDINotifQueue@@QAE@K@Z
??0RDINotifServer@@QAE@PAVRDI_Config@@PAVFilterFactory_i@@PAV_objref_FilterFactory@AttNotification@@PAVEventChannelFactory_i@@PAV_objref_EventChannelFactory@4@PAVEventChannel_i@@PAV_objref_EventChannel@4@PAVRDI_ServerQoS@@@Z
??0RDINotifServerWorker@@QAE@PAVRDINotifServer@@P81@AEXXZW4priority_t@omni_thread@@@Z
??0RDINotifySubscribe@@QAE@XZ
??0RDIOplockEntry@@QAE@XZ
??0RDIParseCmd@@QAE@PBD@Z
??0RDIPriorityQueue@@QAE@ABV0@@Z
??0RDIPriorityQueue@@QAE@K_N0@Z
??0RDIProxyConsumer@@QAE@PBD0PAVSupplierAdmin_i@@PAVEventChannel_i@@W4RDI_ObjectKind@@W4ProxyType@CosNotifyChannelAdmin@@ABJ@Z
??0RDIProxyPullConsumer@@QAE@XZ
??0RDIProxyPushSupplier@@QAE@XZ
??0RDIProxySupplier@@QAE@PBD0PAVConsumerAdmin_i@@PAVEventChannel_i@@W4RDI_ObjectKind@@W4ProxyType@CosNotifyChannelAdmin@@ABJ@Z
??0RDI_AdminQoS@@QAE@ABV0@@Z
??0RDI_AdminQoS@@QAE@XZ
??0RDI_Bitmap@@QAE@I@Z
??0RDI_ChangePool@@QAE@W4RDI_ChangeKind@@I@Z
??0RDI_ChangePoolBoundWorker@@QAE@PAVRDI_ChangePool@@P81@AEXXZW4priority_t@omni_thread@@@Z
??0RDI_Config@@QAE@XZ
??0RDI_Constraint@@QAE@PAD0@Z
??0RDI_EventQueue@@QAE@GKK_NF@Z
??0RDI_EventType@@QAE@ABUEventType@CosNotification@@@Z
??0RDI_EventType@@QAE@XZ
??0RDI_NotifQoS@@QAE@ABV0@@Z
??0RDI_NotifQoS@@QAE@PAV0@@Z
??0RDI_NotifyBoundWorker@@QAE@PAVRDI_NotifyConsumer@@P81@AEXXZW4priority_t@omni_thread@@@Z
??0RDI_NotifyConsumer@@QAE@I@Z
??0RDI_NotifyWorker@@QAE@PAVRDI_NotifyConsumer@@P81@AEXXZW4priority_t@omni_thread@@@Z
??0RDI_Op@@QAE@W4RDI_OpCode@@@Z
??0RDI_Op@@QAE@W4RDI_OpCode@@F@Z
??0RDI_Op@@QAE@W4RDI_OpCode@@G@Z
??0RDI_Op@@QAE@W4RDI_OpCode@@J@Z
??0RDI_Op@@QAE@W4RDI_OpCode@@K@Z
??0RDI_Op@@QAE@W4RDI_OpCode@@M@Z
??0RDI_Op@@QAE@W4RDI_OpCode@@N@Z
??0RDI_Op@@QAE@W4RDI_OpCode@@PAD@Z
??0RDI_Op@@QAE@W4RDI_OpCode@@PADH@Z
??0RDI_Op@@QAE@W4RDI_OpCode@@_J@Z
??0RDI_Op@@QAE@W4RDI_OpCode@@_K@Z
??0RDI_Op@@QAE@W4RDI_OpCode@@_N@Z
??0RDI_OpSeq@@QAE@XZ
??0RDI_OplockBumpCondLock@@QAE@AAHPAPAVRDIOplockEntry@@@Z
??0RDI_OplockBumpLock@@QAE@AAHPAPAVRDIOplockEntry@@@Z
??0RDI_OplockCondLock@@QAE@AAHPAPAVRDIOplockEntry@@@Z
??0RDI_OplockLock@@QAE@AAHPAPAVRDIOplockEntry@@@Z
??0RDI_OplockTempRelease@@QAE@AAHPAPAVRDIOplockEntry@@@Z
??0RDI_PCState@@QAE@XZ
??0RDI_PullBoundWorker@@QAE@PAVRDI_PullSupplier@@P81@AEXXZW4priority_t@omni_thread@@@Z
??0RDI_PullSupplier@@QAE@II@Z
??0RDI_PullWorker@@QAE@PAVRDI_PullSupplier@@P81@AEXXZW4priority_t@omni_thread@@@Z
??0RDI_RTVal@@QAE@XZ
??0RDI_RVM@@QAE@XZ
??0RDI_ServerQoS@@QAE@XZ
??0RDI_StructuredEvent@@QAE@ABUStructuredEvent@CosNotification@@@Z
??0RDI_StructuredEvent@@QAE@ABVAny@CORBA@@@Z
??0RDI_ThStat@@QAE@XZ
??0RDI_TimeT@@QAE@ABV0@@Z
??0RDI_TimeT@@QAE@AB_K@Z
??0RDI_TimeT@@QAE@XZ
??0RDI_TypeMap@@QAE@PAVEventChannel_i@@I@Z
??0RDI_UtcT@@QAE@ABUUtcT@TimeBase@@@Z
??0RDI_UtcT@@QAE@XZ
??0RDI_UtcT@@QAE@_K@Z
??0RDI_Watch@@QAE@XZ
??0RDIstrstream@@QAE@XZ
??0SeqProxyBoundWorker@@QAE@PAVSequenceProxyPushSupplier_i@@P81@AEXXZ@Z
??0SeqPullWorker@@QAE@PAVSequenceProxyPullConsumer_i@@P81@AEXXZ@Z
??0SequenceProxyPullConsumer@POA_AttNotification@@QAE@XZ
??0SequenceProxyPullConsumer@POA_CosNotifyChannelAdmin@@QAE@XZ
??0SequenceProxyPullConsumer_i@@QAE@PAVSupplierAdmin_i@@PAVEventChannel_i@@ABJ@Z
??0SequenceProxyPullSupplier@POA_AttNotification@@QAE@XZ
??0SequenceProxyPullSupplier@POA_CosNotifyChannelAdmin@@QAE@XZ
??0SequenceProxyPullSupplier_i@@QAE@PAVConsumerAdmin_i@@PAVEventChannel_i@@ABJ@Z
??0SequenceProxyPushConsumer@POA_AttNotification@@QAE@XZ
??0SequenceProxyPushConsumer@POA_CosNotifyChannelAdmin@@QAE@XZ
??0SequenceProxyPushConsumer_i@@QAE@PAVSupplierAdmin_i@@PAVEventChannel_i@@ABJ@Z
??0SequenceProxyPushSupplier@POA_AttNotification@@QAE@XZ
??0SequenceProxyPushSupplier@POA_CosNotifyChannelAdmin@@QAE@XZ
??0SequenceProxyPushSupplier_i@@QAE@PAVConsumerAdmin_i@@PAVEventChannel_i@@ABJ@Z
??0SequencePullConsumer@POA_CosNotifyComm@@QAE@XZ
??0SequencePullSupplier@POA_CosNotifyComm@@QAE@XZ
??0SequencePushConsumer@POA_CosNotifyComm@@QAE@XZ
??0SequencePushSupplier@POA_CosNotifyComm@@QAE@XZ
??0ServantBase@PortableServer@@IAE@XZ
??0Server@POA_AttNotification@@QAE@XZ
??0StrProxyBoundWorker@@QAE@PAVStructuredProxyPushSupplier_i@@P81@AEXXZ@Z
??0StrPullWorker@@QAE@PAVStructuredProxyPullConsumer_i@@P81@AEXXZ@Z
??0StructuredEvent@CosNotification@@QAE@ABU01@@Z
??0StructuredEvent@CosNotification@@QAE@XZ
??0StructuredProxyPullConsumer@POA_AttNotification@@QAE@XZ
??0StructuredProxyPullConsumer@POA_CosNotifyChannelAdmin@@QAE@XZ
??0StructuredProxyPullConsumer_i@@QAE@PAVSupplierAdmin_i@@PAVEventChannel_i@@ABJ@Z
??0StructuredProxyPullSupplier@POA_AttNotification@@QAE@XZ
??0StructuredProxyPullSupplier@POA_CosNotifyChannelAdmin@@QAE@XZ
??0StructuredProxyPullSupplier_i@@QAE@PAVConsumerAdmin_i@@PAVEventChannel_i@@ABJ@Z
??0StructuredProxyPushConsumer@POA_AttNotification@@QAE@XZ
??0StructuredProxyPushConsumer@POA_CosNotifyChannelAdmin@@QAE@XZ
??0StructuredProxyPushConsumer_i@@QAE@PAVSupplierAdmin_i@@PAVEventChannel_i@@ABJ@Z
??0StructuredProxyPushSupplier@POA_AttNotification@@QAE@XZ
??0StructuredProxyPushSupplier@POA_CosNotifyChannelAdmin@@QAE@XZ
??0StructuredProxyPushSupplier_i@@QAE@PAVConsumerAdmin_i@@PAVEventChannel_i@@ABJ@Z
??0StructuredPullConsumer@POA_CosNotifyComm@@QAE@XZ
??0StructuredPullSupplier@POA_CosNotifyComm@@QAE@XZ
??0StructuredPushConsumer@POA_CosNotifyComm@@QAE@XZ
??0StructuredPushSupplier@POA_CosNotifyComm@@QAE@XZ
??0SupplierAdmin@POA_AttNotification@@QAE@XZ
??0SupplierAdmin@POA_CosEventChannelAdmin@@QAE@XZ
??0SupplierAdmin@POA_CosNotifyChannelAdmin@@QAE@XZ
??0SupplierAdmin_i@@QAE@PAVEventChannel_i@@W4InterFilterGroupOperator@CosNotifyChannelAdmin@@ABJ@Z
??0SystemException@CORBA@@QAE@ABV01@@Z
??0SystemException@CORBA@@QAE@KW4CompletionStatus@1@@Z
??0TW_CondMutexLock@@QAE@AAHAAVomni_mutex@@@Z
??0TW_CondRWMutexLock@@QAE@AAHAAVTW_RWMutex@@H@Z
??0TW_MutexLock@@QAE@AAHAAVomni_mutex@@@Z
??0TW_RWMutex@@QAE@XZ
??0TW_RWMutexLock@@QAE@AAHAAVTW_RWMutex@@H@Z
??0TW_TempRelease@@QAE@AAVTW_MutexLock@@@Z
??0TypeCode_var@CORBA@@QAE@PAVTypeCode@1@@Z
??0TypeCode_var@CORBA@@QAE@XZ
??0UserException@CORBA@@IAE@XZ
??0UserException@CORBA@@QAE@ABV01@@Z
??0VNode_t@RDI_TypeMap@@QAE@PAUANode_t@1@PAUPNode_t@1@@Z
??0Val_t@RDI_StructuredEvent@@QAE@XZ
??0_CORBA_Sequence_String@@IAE@ABV0@@Z
??0_CORBA_Sequence_String@@IAE@XZ
??0_CORBA_String_element@@QAE@AAPAD_N@Z
??0_CORBA_String_member@@QAE@ABV0@@Z
??0_CORBA_String_member@@QAE@XZ
??0_CORBA_String_var@@QAE@XZ
??0_CORBA_Unbounded_Sequence_String@@QAE@ABV0@@Z
??0_CORBA_Unbounded_Sequence_String@@QAE@XZ
??0_impl_AdminPropertiesAdmin@CosNotification@@QAE@XZ
??0_impl_ConsumerAdmin@AttNotification@@QAE@XZ
??0_impl_ConsumerAdmin@CosEventChannelAdmin@@QAE@XZ
??0_impl_ConsumerAdmin@CosNotifyChannelAdmin@@QAE@XZ
??0_impl_CosEvProxyPullConsumer@AttNotification@@QAE@XZ
??0_impl_CosEvProxyPullSupplier@AttNotification@@QAE@XZ
??0_impl_CosEvProxyPushConsumer@AttNotification@@QAE@XZ
??0_impl_CosEvProxyPushSupplier@AttNotification@@QAE@XZ
??0_impl_EventChannel@AttNotification@@QAE@XZ
??0_impl_EventChannel@CosEventChannelAdmin@@QAE@XZ
??0_impl_EventChannel@CosNotifyChannelAdmin@@QAE@XZ
??0_impl_EventChannelFactory@AttNotification@@QAE@XZ
??0_impl_EventChannelFactory@CosNotifyChannelAdmin@@QAE@XZ
??0_impl_Filter@AttNotification@@QAE@XZ
??0_impl_Filter@CosNotifyFilter@@QAE@XZ
??0_impl_FilterAdmin@CosNotifyFilter@@QAE@XZ
??0_impl_FilterFactory@AttNotification@@QAE@XZ
??0_impl_FilterFactory@CosNotifyFilter@@QAE@XZ
??0_impl_Interactive@AttNotification@@QAE@XZ
??0_impl_MappingFilter@AttNotification@@QAE@XZ
??0_impl_MappingFilter@CosNotifyFilter@@QAE@XZ
??0_impl_NotifyPublish@CosNotifyComm@@QAE@XZ
??0_impl_NotifySubscribe@CosNotifyComm@@QAE@XZ
??0_impl_ProxyConsumer@CosNotifyChannelAdmin@@QAE@XZ
??0_impl_ProxyPullConsumer@AttNotification@@QAE@XZ
??0_impl_ProxyPullConsumer@CosEventChannelAdmin@@QAE@XZ
??0_impl_ProxyPullConsumer@CosNotifyChannelAdmin@@QAE@XZ
??0_impl_ProxyPullSupplier@AttNotification@@QAE@XZ
??0_impl_ProxyPullSupplier@CosEventChannelAdmin@@QAE@XZ
??0_impl_ProxyPullSupplier@CosNotifyChannelAdmin@@QAE@XZ
??0_impl_ProxyPushConsumer@AttNotification@@QAE@XZ
??0_impl_ProxyPushConsumer@CosEventChannelAdmin@@QAE@XZ
??0_impl_ProxyPushConsumer@CosNotifyChannelAdmin@@QAE@XZ
??0_impl_ProxyPushSupplier@AttNotification@@QAE@XZ
??0_impl_ProxyPushSupplier@CosEventChannelAdmin@@QAE@XZ
??0_impl_ProxyPushSupplier@CosNotifyChannelAdmin@@QAE@XZ
??0_impl_ProxySupplier@CosNotifyChannelAdmin@@QAE@XZ
??0_impl_PullConsumer@CosEventComm@@QAE@XZ
??0_impl_PullConsumer@CosNotifyComm@@QAE@XZ
??0_impl_PullSupplier@CosEventComm@@QAE@XZ
??0_impl_PullSupplier@CosNotifyComm@@QAE@XZ
??0_impl_PushConsumer@CosEventComm@@QAE@XZ
??0_impl_PushConsumer@CosNotifyComm@@QAE@XZ
??0_impl_PushSupplier@CosEventComm@@QAE@XZ
??0_impl_PushSupplier@CosNotifyComm@@QAE@XZ
??0_impl_QoSAdmin@CosNotification@@QAE@XZ
??0_impl_SequenceProxyPullConsumer@AttNotification@@QAE@XZ
??0_impl_SequenceProxyPullConsumer@CosNotifyChannelAdmin@@QAE@XZ
??0_impl_SequenceProxyPullSupplier@AttNotification@@QAE@XZ
??0_impl_SequenceProxyPullSupplier@CosNotifyChannelAdmin@@QAE@XZ
??0_impl_SequenceProxyPushConsumer@AttNotification@@QAE@XZ
??0_impl_SequenceProxyPushConsumer@CosNotifyChannelAdmin@@QAE@XZ
??0_impl_SequenceProxyPushSupplier@AttNotification@@QAE@XZ
??0_impl_SequenceProxyPushSupplier@CosNotifyChannelAdmin@@QAE@XZ
??0_impl_SequencePullConsumer@CosNotifyComm@@QAE@XZ
??0_impl_SequencePullSupplier@CosNotifyComm@@QAE@XZ
??0_impl_SequencePushConsumer@CosNotifyComm@@QAE@XZ
??0_impl_SequencePushSupplier@CosNotifyComm@@QAE@XZ
??0_impl_Server@AttNotification@@QAE@XZ
??0_impl_StructuredProxyPullConsumer@AttNotification@@QAE@XZ
??0_impl_StructuredProxyPullConsumer@CosNotifyChannelAdmin@@QAE@XZ
??0_impl_StructuredProxyPullSupplier@AttNotification@@QAE@XZ
??0_impl_StructuredProxyPullSupplier@CosNotifyChannelAdmin@@QAE@XZ
??0_impl_StructuredProxyPushConsumer@AttNotification@@QAE@XZ
??0_impl_StructuredProxyPushConsumer@CosNotifyChannelAdmin@@QAE@XZ
??0_impl_StructuredProxyPushSupplier@AttNotification@@QAE@XZ
??0_impl_StructuredProxyPushSupplier@CosNotifyChannelAdmin@@QAE@XZ
??0_impl_StructuredPullConsumer@CosNotifyComm@@QAE@XZ
??0_impl_StructuredPullSupplier@CosNotifyComm@@QAE@XZ
??0_impl_StructuredPushConsumer@CosNotifyComm@@QAE@XZ
??0_impl_StructuredPushSupplier@CosNotifyComm@@QAE@XZ
??0_impl_SupplierAdmin@AttNotification@@QAE@XZ
??0_impl_SupplierAdmin@CosEventChannelAdmin@@QAE@XZ
??0_impl_SupplierAdmin@CosNotifyChannelAdmin@@QAE@XZ
??0from_boolean@Any@CORBA@@QAE@_N@Z
??0logger@RDI@@QAE@PBDPAU_iobuf@@100H@Z
??0node_t@RDI_Config@@QAE@XZ
??0omniServant@@IAE@XZ
??0to_boolean@Any@CORBA@@QAE@AA_N@Z
??0to_char@Any@CORBA@@QAE@AAE@Z
??0to_octet@Any@CORBA@@QAE@AAE@Z
??1?$RDI_Hash@JPAVConsumerAdmin_i@@@@QAE@XZ
??1?$RDI_Hash@JPAVEventChannel_i@@@@QAE@XZ
??1?$RDI_Hash@JPAVProxyPullConsumer_i@@@@QAE@XZ
??1?$RDI_Hash@JPAVProxyPullSupplier_i@@@@QAE@XZ
??1?$RDI_Hash@JPAVProxyPushConsumer_i@@@@QAE@XZ
??1?$RDI_Hash@JPAVProxyPushSupplier_i@@@@QAE@XZ
??1?$RDI_Hash@JPAVSequenceProxyPullConsumer_i@@@@QAE@XZ
??1?$RDI_Hash@JPAVSequenceProxyPullSupplier_i@@@@QAE@XZ
??1?$RDI_Hash@JPAVSequenceProxyPushConsumer_i@@@@QAE@XZ
??1?$RDI_Hash@JPAVSequenceProxyPushSupplier_i@@@@QAE@XZ
??1?$RDI_Hash@JPAVStructuredProxyPullConsumer_i@@@@QAE@XZ
??1?$RDI_Hash@JPAVStructuredProxyPullSupplier_i@@@@QAE@XZ
??1?$RDI_Hash@JPAVStructuredProxyPushConsumer_i@@@@QAE@XZ
??1?$RDI_Hash@JPAVStructuredProxyPushSupplier_i@@@@QAE@XZ
??1?$RDI_Hash@JPAVSupplierAdmin_i@@@@QAE@XZ
??1?$RDI_Hash@JPAV_objref_NotifySubscribe@CosNotifyComm@@@@QAE@XZ
??1?$RDI_Hash@JUFAdminFilterEntry_s@@@@QAE@XZ
??1?$RDI_Hash@JURDINfyCB@@@@QAE@XZ
??1?$RDI_Hash@PAVRDIOplockEntry@@H@@QAE@XZ
??1?$RDI_Hash@UEventType@CosNotification@@K@@QAE@XZ
??1?$RDI_Hash@UEventType@CosNotification@@UVNode_t@RDI_TypeMap@@@@QAE@XZ
??1?$RDI_Hash@UKey_t@RDI_StructuredEvent@@UVal_t@2@@@QAE@XZ
??1?$RDI_Hash@VRDI_EventType@@K@@QAE@XZ
??1?$RDI_Hash@VRDI_EventType@@PAX@@QAE@XZ
??1?$RDI_HashCursor@JPAVConsumerAdmin_i@@@@QAE@XZ
??1?$RDI_HashCursor@JPAVEventChannel_i@@@@QAE@XZ
??1?$RDI_HashCursor@JPAVFilter_i@@@@QAE@XZ
??1?$RDI_HashCursor@JPAVProxyPullConsumer_i@@@@QAE@XZ
??1?$RDI_HashCursor@JPAVProxyPullSupplier_i@@@@QAE@XZ
??1?$RDI_HashCursor@JPAVProxyPushConsumer_i@@@@QAE@XZ
??1?$RDI_HashCursor@JPAVProxyPushSupplier_i@@@@QAE@XZ
??1?$RDI_HashCursor@JPAVSequenceProxyPullConsumer_i@@@@QAE@XZ
??1?$RDI_HashCursor@JPAVSequenceProxyPullSupplier_i@@@@QAE@XZ
??1?$RDI_HashCursor@JPAVSequenceProxyPushConsumer_i@@@@QAE@XZ
??1?$RDI_HashCursor@JPAVSequenceProxyPushSupplier_i@@@@QAE@XZ
??1?$RDI_HashCursor@JPAVStructuredProxyPullConsumer_i@@@@QAE@XZ
??1?$RDI_HashCursor@JPAVStructuredProxyPullSupplier_i@@@@QAE@XZ
??1?$RDI_HashCursor@JPAVStructuredProxyPushConsumer_i@@@@QAE@XZ
??1?$RDI_HashCursor@JPAVStructuredProxyPushSupplier_i@@@@QAE@XZ
??1?$RDI_HashCursor@JPAVSupplierAdmin_i@@@@QAE@XZ
??1?$RDI_HashCursor@JPAV_objref_NotifySubscribe@CosNotifyComm@@@@QAE@XZ
??1?$RDI_HashCursor@JUFAdminFilterEntry_s@@@@QAE@XZ
??1?$RDI_HashCursor@JURDINfyCB@@@@QAE@XZ
??1?$RDI_HashCursor@UEventType@CosNotification@@K@@QAE@XZ
??1?$RDI_HashCursor@UEventType@CosNotification@@UVNode_t@RDI_TypeMap@@@@QAE@XZ
??1?$RDI_HashCursor@UKey_t@RDI_StructuredEvent@@UVal_t@2@@@QAE@XZ
??1?$RDI_HashCursor@VRDI_EventType@@K@@QAE@XZ
??1?$RDI_HashCursor@VRDI_EventType@@PAX@@QAE@XZ
??1?$RDI_KeyValuePair@UEventType@CosNotification@@K@@QAE@XZ
??1?$RDI_KeyValuePair@UEventType@CosNotification@@UVNode_t@RDI_TypeMap@@@@QAE@XZ
??1?$RDI_KeyValuePair@VRDI_EventType@@K@@QAE@XZ
??1?$RDI_KeyValuePair@VRDI_EventType@@PAX@@QAE@XZ
??1?$RDI_List@PAVEventProxyPullConsumer_i@@@@QAE@XZ
??1?$RDI_List@PAVEventProxyPullSupplier_i@@@@QAE@XZ
??1?$RDI_List@PAVEventProxyPushConsumer_i@@@@QAE@XZ
??1?$RDI_List@PAVEventProxyPushSupplier_i@@@@QAE@XZ
??1?$RDI_List@PAVRDI_StructuredEvent@@@@QAE@XZ
??1?$RDI_List@UProxyDispatch_t@EventChannel_i@@@@QAE@XZ
??1?$RDI_ListCursor@PAVEventProxyPullConsumer_i@@@@QAE@XZ
??1?$RDI_ListCursor@PAVEventProxyPullSupplier_i@@@@QAE@XZ
??1?$RDI_ListCursor@PAVEventProxyPushConsumer_i@@@@QAE@XZ
??1?$RDI_ListCursor@PAVEventProxyPushSupplier_i@@@@QAE@XZ
??1?$RDI_SafeList@VConsumerAdmin_i@@@@QAE@XZ
??1?$_CORBA_ObjRef_Element@V_objref_Interactive@AttNotification@@VInteractive_Helper@2@@@QAE@XZ
??1?$_CORBA_ObjRef_Member@V_objref_IDLType@CORBA@@VIDLType_Helper@2@@@QAE@XZ
??1?$_CORBA_ObjRef_OUT_arg@V_objref_Interactive@AttNotification@@VInteractive_Helper@2@@@QAE@XZ
??1?$_CORBA_ObjRef_Var@V_objref_ConsumerAdmin@AttNotification@@VConsumerAdmin_Helper@2@@@QAE@XZ
??1?$_CORBA_ObjRef_Var@V_objref_EventChannel@AttNotification@@VEventChannel_Helper@2@@@QAE@XZ
??1?$_CORBA_ObjRef_Var@V_objref_EventChannel@CosNotifyChannelAdmin@@VEventChannel_Helper@2@@@QAE@XZ
??1?$_CORBA_ObjRef_Var@V_objref_EventChannelFactory@AttNotification@@VEventChannelFactory_Helper@2@@@QAE@XZ
??1?$_CORBA_ObjRef_Var@V_objref_Filter@AttNotification@@VFilter_Helper@2@@@QAE@XZ
??1?$_CORBA_ObjRef_Var@V_objref_Filter@CosNotifyFilter@@VFilter_Helper@2@@@QAE@XZ
??1?$_CORBA_ObjRef_Var@V_objref_FilterFactory@AttNotification@@VFilterFactory_Helper@2@@@QAE@XZ
??1?$_CORBA_ObjRef_Var@V_objref_MappingFilter@CosNotifyFilter@@VMappingFilter_Helper@2@@@QAE@XZ
??1?$_CORBA_ObjRef_Var@V_objref_NamingContext@CosNaming@@VNamingContext_Helper@2@@@QAE@XZ
??1?$_CORBA_ObjRef_Var@V_objref_NotifyPublish@CosNotifyComm@@VNotifyPublish_Helper@2@@@QAE@XZ
??1?$_CORBA_ObjRef_Var@V_objref_NotifySubscribe@CosNotifyComm@@VNotifySubscribe_Helper@2@@@QAE@XZ
??1?$_CORBA_ObjRef_Var@V_objref_PullConsumer@CosEventComm@@VPullConsumer_Helper@2@@@QAE@XZ
??1?$_CORBA_ObjRef_Var@V_objref_PullConsumer@CosNotifyComm@@VPullConsumer_Helper@2@@@QAE@XZ
??1?$_CORBA_ObjRef_Var@V_objref_PullSupplier@CosEventComm@@VPullSupplier_Helper@2@@@QAE@XZ
??1?$_CORBA_ObjRef_Var@V_objref_PullSupplier@CosNotifyComm@@VPullSupplier_Helper@2@@@QAE@XZ
??1?$_CORBA_ObjRef_Var@V_objref_PushConsumer@CosEventComm@@VPushConsumer_Helper@2@@@QAE@XZ
??1?$_CORBA_ObjRef_Var@V_objref_PushConsumer@CosNotifyComm@@VPushConsumer_Helper@2@@@QAE@XZ
??1?$_CORBA_ObjRef_Var@V_objref_PushSupplier@CosEventComm@@VPushSupplier_Helper@2@@@QAE@XZ
??1?$_CORBA_ObjRef_Var@V_objref_PushSupplier@CosNotifyComm@@VPushSupplier_Helper@2@@@QAE@XZ
??1?$_CORBA_ObjRef_Var@V_objref_SequencePullConsumer@CosNotifyComm@@VSequencePullConsumer_Helper@2@@@QAE@XZ
??1?$_CORBA_ObjRef_Var@V_objref_SequencePullSupplier@CosNotifyComm@@VSequencePullSupplier_Helper@2@@@QAE@XZ
??1?$_CORBA_ObjRef_Var@V_objref_SequencePushConsumer@CosNotifyComm@@VSequencePushConsumer_Helper@2@@@QAE@XZ
??1?$_CORBA_ObjRef_Var@V_objref_SequencePushSupplier@CosNotifyComm@@VSequencePushSupplier_Helper@2@@@QAE@XZ
??1?$_CORBA_ObjRef_Var@V_objref_Server@AttNotification@@VServer_Helper@2@@@QAE@XZ
??1?$_CORBA_ObjRef_Var@V_objref_StructuredPullConsumer@CosNotifyComm@@VStructuredPullConsumer_Helper@2@@@QAE@XZ
??1?$_CORBA_ObjRef_Var@V_objref_StructuredPullSupplier@CosNotifyComm@@VStructuredPullSupplier_Helper@2@@@QAE@XZ
??1?$_CORBA_ObjRef_Var@V_objref_StructuredPushConsumer@CosNotifyComm@@VStructuredPushConsumer_Helper@2@@@QAE@XZ
??1?$_CORBA_ObjRef_Var@V_objref_StructuredPushSupplier@CosNotifyComm@@VStructuredPushSupplier_Helper@2@@@QAE@XZ
??1?$_CORBA_ObjRef_Var@V_objref_SupplierAdmin@AttNotification@@VSupplierAdmin_Helper@2@@@QAE@XZ
??1?$_CORBA_PseudoObj_Member@VDynAny@DynamicAny@@V?$_CORBA_PseudoObj_Var@VDynAny@DynamicAny@@@@@@QAE@XZ
??1?$_CORBA_PseudoObj_Member@VPolicy@CORBA@@V?$_CORBA_PseudoObj_Var@VPolicy@CORBA@@@@@@QAE@XZ
??1?$_CORBA_PseudoObj_Var@VDynAny@DynamicAny@@@@QAE@XZ
??1?$_CORBA_PseudoObj_Var@VDynAnyFactory@DynamicAny@@@@QAE@XZ
??1?$_CORBA_PseudoObj_Var@VDynArray@DynamicAny@@@@QAE@XZ
??1?$_CORBA_PseudoObj_Var@VDynEnum@DynamicAny@@@@QAE@XZ
??1?$_CORBA_PseudoObj_Var@VDynSequence@DynamicAny@@@@QAE@XZ
??1?$_CORBA_PseudoObj_Var@VDynStruct@DynamicAny@@@@QAE@XZ
??1?$_CORBA_PseudoObj_Var@VDynUnion@DynamicAny@@@@QAE@XZ
??1?$_CORBA_PseudoObj_Var@VPOAManager@PortableServer@@@@QAE@XZ
??1?$_CORBA_Sequence@E@@QAE@XZ
??1?$_CORBA_Sequence@J@@QAE@XZ
??1?$_CORBA_Sequence@PAVConstraintImpl@@@@QAE@XZ
??1?$_CORBA_Sequence@PAVConsumerAdmin_i@@@@QAE@XZ
??1?$_CORBA_Sequence@PAVEventProxyPullConsumer_i@@@@QAE@XZ
??1?$_CORBA_Sequence@PAVEventProxyPullSupplier_i@@@@QAE@XZ
??1?$_CORBA_Sequence@PAVEventProxyPushConsumer_i@@@@QAE@XZ
??1?$_CORBA_Sequence@PAVEventProxyPushSupplier_i@@@@QAE@XZ
??1?$_CORBA_Sequence@PAVFilter_i@@@@QAE@XZ
??1?$_CORBA_Sequence@PAVProxyPullConsumer_i@@@@QAE@XZ
??1?$_CORBA_Sequence@PAVProxyPullSupplier_i@@@@QAE@XZ
??1?$_CORBA_Sequence@PAVProxyPushConsumer_i@@@@QAE@XZ
??1?$_CORBA_Sequence@PAVProxyPushSupplier_i@@@@QAE@XZ
??1?$_CORBA_Sequence@PAVRDINotifySubscribe@@@@QAE@XZ
??1?$_CORBA_Sequence@PAVSequenceProxyPullConsumer_i@@@@QAE@XZ
??1?$_CORBA_Sequence@PAVSequenceProxyPullSupplier_i@@@@QAE@XZ
??1?$_CORBA_Sequence@PAVSequenceProxyPushConsumer_i@@@@QAE@XZ
??1?$_CORBA_Sequence@PAVSequenceProxyPushSupplier_i@@@@QAE@XZ
??1?$_CORBA_Sequence@PAVStructuredProxyPullConsumer_i@@@@QAE@XZ
??1?$_CORBA_Sequence@PAVStructuredProxyPullSupplier_i@@@@QAE@XZ
??1?$_CORBA_Sequence@PAVStructuredProxyPushConsumer_i@@@@QAE@XZ
??1?$_CORBA_Sequence@PAVStructuredProxyPushSupplier_i@@@@QAE@XZ
??1?$_CORBA_Sequence@PAVSupplierAdmin_i@@@@QAE@XZ
??1?$_CORBA_Sequence@PAV_objref_ConsumerAdmin@CosNotifyChannelAdmin@@@@QAE@XZ
??1?$_CORBA_Sequence@PAV_objref_Filter@CosNotifyFilter@@@@QAE@XZ
??1?$_CORBA_Sequence@PAV_objref_NotifySubscribe@CosNotifyComm@@@@QAE@XZ
??1?$_CORBA_Sequence@PAV_objref_ProxyPullConsumer@CosEventChannelAdmin@@@@QAE@XZ
??1?$_CORBA_Sequence@PAV_objref_ProxyPullConsumer@CosNotifyChannelAdmin@@@@QAE@XZ
??1?$_CORBA_Sequence@PAV_objref_ProxyPullSupplier@CosEventChannelAdmin@@@@QAE@XZ
??1?$_CORBA_Sequence@PAV_objref_ProxyPullSupplier@CosNotifyChannelAdmin@@@@QAE@XZ
??1?$_CORBA_Sequence@PAV_objref_ProxyPushConsumer@CosEventChannelAdmin@@@@QAE@XZ
??1?$_CORBA_Sequence@PAV_objref_ProxyPushConsumer@CosNotifyChannelAdmin@@@@QAE@XZ
??1?$_CORBA_Sequence@PAV_objref_ProxyPushSupplier@CosEventChannelAdmin@@@@QAE@XZ
??1?$_CORBA_Sequence@PAV_objref_ProxyPushSupplier@CosNotifyChannelAdmin@@@@QAE@XZ
??1?$_CORBA_Sequence@PAV_objref_SequenceProxyPullConsumer@CosNotifyChannelAdmin@@@@QAE@XZ
??1?$_CORBA_Sequence@PAV_objref_SequenceProxyPullSupplier@CosNotifyChannelAdmin@@@@QAE@XZ
??1?$_CORBA_Sequence@PAV_objref_SequenceProxyPushConsumer@CosNotifyChannelAdmin@@@@QAE@XZ
??1?$_CORBA_Sequence@PAV_objref_SequenceProxyPushSupplier@CosNotifyChannelAdmin@@@@QAE@XZ
??1?$_CORBA_Sequence@PAV_objref_StructuredProxyPullConsumer@CosNotifyChannelAdmin@@@@QAE@XZ
??1?$_CORBA_Sequence@PAV_objref_StructuredProxyPullSupplier@CosNotifyChannelAdmin@@@@QAE@XZ
??1?$_CORBA_Sequence@PAV_objref_StructuredProxyPushConsumer@CosNotifyChannelAdmin@@@@QAE@XZ
??1?$_CORBA_Sequence@PAV_objref_StructuredProxyPushSupplier@CosNotifyChannelAdmin@@@@QAE@XZ
??1?$_CORBA_Sequence@PAV_objref_SupplierAdmin@CosNotifyChannelAdmin@@@@QAE@XZ
??1?$_CORBA_Sequence@UConstraintInfo@CosNotifyFilter@@@@QAE@XZ
??1?$_CORBA_Sequence@UEventType@CosNotification@@@@QAE@XZ
??1?$_CORBA_Sequence@UNameComponent@CosNaming@@@@QAE@XZ
??1?$_CORBA_Sequence@UNamedPropertyRange@CosNotification@@@@QAE@XZ
??1?$_CORBA_Sequence@UProperty@CosNotification@@@@QAE@XZ
??1?$_CORBA_Sequence@UPropertyError@CosNotification@@@@QAE@XZ
??1?$_CORBA_Sequence@UStructuredEvent@CosNotification@@@@QAE@XZ
??1?$_CORBA_Sequence_ObjRef@V_objref_Interactive@AttNotification@@V?$_CORBA_ObjRef_Element@V_objref_Interactive@AttNotification@@VInteractive_Helper@2@@@VInteractive_Helper@2@@@QAE@XZ
??1?$_CORBA_Unbounded_Sequence@J@@QAE@XZ
??1?$_CORBA_Unbounded_Sequence@PAVConstraintImpl@@@@QAE@XZ
??1?$_CORBA_Unbounded_Sequence@PAVConsumerAdmin_i@@@@QAE@XZ
??1?$_CORBA_Unbounded_Sequence@PAVEventProxyPullConsumer_i@@@@QAE@XZ
??1?$_CORBA_Unbounded_Sequence@PAVEventProxyPullSupplier_i@@@@QAE@XZ
??1?$_CORBA_Unbounded_Sequence@PAVEventProxyPushConsumer_i@@@@QAE@XZ
??1?$_CORBA_Unbounded_Sequence@PAVEventProxyPushSupplier_i@@@@QAE@XZ
??1?$_CORBA_Unbounded_Sequence@PAVFilter_i@@@@QAE@XZ
??1?$_CORBA_Unbounded_Sequence@PAVProxyPullConsumer_i@@@@QAE@XZ
??1?$_CORBA_Unbounded_Sequence@PAVProxyPullSupplier_i@@@@QAE@XZ
??1?$_CORBA_Unbounded_Sequence@PAVProxyPushConsumer_i@@@@QAE@XZ
??1?$_CORBA_Unbounded_Sequence@PAVProxyPushSupplier_i@@@@QAE@XZ
??1?$_CORBA_Unbounded_Sequence@PAVRDINotifySubscribe@@@@QAE@XZ
??1?$_CORBA_Unbounded_Sequence@PAVSequenceProxyPullConsumer_i@@@@QAE@XZ
??1?$_CORBA_Unbounded_Sequence@PAVSequenceProxyPullSupplier_i@@@@QAE@XZ
??1?$_CORBA_Unbounded_Sequence@PAVSequenceProxyPushConsumer_i@@@@QAE@XZ
??1?$_CORBA_Unbounded_Sequence@PAVSequenceProxyPushSupplier_i@@@@QAE@XZ
??1?$_CORBA_Unbounded_Sequence@PAVStructuredProxyPullConsumer_i@@@@QAE@XZ
??1?$_CORBA_Unbounded_Sequence@PAVStructuredProxyPullSupplier_i@@@@QAE@XZ
??1?$_CORBA_Unbounded_Sequence@PAVStructuredProxyPushConsumer_i@@@@QAE@XZ
??1?$_CORBA_Unbounded_Sequence@PAVStructuredProxyPushSupplier_i@@@@QAE@XZ
??1?$_CORBA_Unbounded_Sequence@PAVSupplierAdmin_i@@@@QAE@XZ
??1?$_CORBA_Unbounded_Sequence@PAV_objref_ConsumerAdmin@CosNotifyChannelAdmin@@@@QAE@XZ
??1?$_CORBA_Unbounded_Sequence@PAV_objref_Filter@CosNotifyFilter@@@@QAE@XZ
??1?$_CORBA_Unbounded_Sequence@PAV_objref_NotifySubscribe@CosNotifyComm@@@@QAE@XZ
??1?$_CORBA_Unbounded_Sequence@PAV_objref_ProxyPullConsumer@CosEventChannelAdmin@@@@QAE@XZ
??1?$_CORBA_Unbounded_Sequence@PAV_objref_ProxyPullConsumer@CosNotifyChannelAdmin@@@@QAE@XZ
??1?$_CORBA_Unbounded_Sequence@PAV_objref_ProxyPullSupplier@CosEventChannelAdmin@@@@QAE@XZ
??1?$_CORBA_Unbounded_Sequence@PAV_objref_ProxyPullSupplier@CosNotifyChannelAdmin@@@@QAE@XZ
??1?$_CORBA_Unbounded_Sequence@PAV_objref_ProxyPushConsumer@CosEventChannelAdmin@@@@QAE@XZ
??1?$_CORBA_Unbounded_Sequence@PAV_objref_ProxyPushConsumer@CosNotifyChannelAdmin@@@@QAE@XZ
??1?$_CORBA_Unbounded_Sequence@PAV_objref_ProxyPushSupplier@CosEventChannelAdmin@@@@QAE@XZ
??1?$_CORBA_Unbounded_Sequence@PAV_objref_ProxyPushSupplier@CosNotifyChannelAdmin@@@@QAE@XZ
??1?$_CORBA_Unbounded_Sequence@PAV_objref_SequenceProxyPullConsumer@CosNotifyChannelAdmin@@@@QAE@XZ
??1?$_CORBA_Unbounded_Sequence@PAV_objref_SequenceProxyPullSupplier@CosNotifyChannelAdmin@@@@QAE@XZ
??1?$_CORBA_Unbounded_Sequence@PAV_objref_SequenceProxyPushConsumer@CosNotifyChannelAdmin@@@@QAE@XZ
??1?$_CORBA_Unbounded_Sequence@PAV_objref_SequenceProxyPushSupplier@CosNotifyChannelAdmin@@@@QAE@XZ
??1?$_CORBA_Unbounded_Sequence@PAV_objref_StructuredProxyPullConsumer@CosNotifyChannelAdmin@@@@QAE@XZ
??1?$_CORBA_Unbounded_Sequence@PAV_objref_StructuredProxyPullSupplier@CosNotifyChannelAdmin@@@@QAE@XZ
??1?$_CORBA_Unbounded_Sequence@PAV_objref_StructuredProxyPushConsumer@CosNotifyChannelAdmin@@@@QAE@XZ
??1?$_CORBA_Unbounded_Sequence@PAV_objref_StructuredProxyPushSupplier@CosNotifyChannelAdmin@@@@QAE@XZ
??1?$_CORBA_Unbounded_Sequence@PAV_objref_SupplierAdmin@CosNotifyChannelAdmin@@@@QAE@XZ
??1?$_CORBA_Unbounded_Sequence@UConstraintInfo@CosNotifyFilter@@@@QAE@XZ
??1?$_CORBA_Unbounded_Sequence@UEventType@CosNotification@@@@QAE@XZ
??1?$_CORBA_Unbounded_Sequence@UNameComponent@CosNaming@@@@QAE@XZ
??1?$_CORBA_Unbounded_Sequence@UNamedPropertyRange@CosNotification@@@@QAE@XZ
??1?$_CORBA_Unbounded_Sequence@UProperty@CosNotification@@@@QAE@XZ
??1?$_CORBA_Unbounded_Sequence@UPropertyError@CosNotification@@@@QAE@XZ
??1?$_CORBA_Unbounded_Sequence@UStructuredEvent@CosNotification@@@@QAE@XZ
??1?$_CORBA_Unbounded_Sequence_ObjRef@V_objref_Interactive@AttNotification@@V?$_CORBA_ObjRef_Element@V_objref_Interactive@AttNotification@@VInteractive_Helper@2@@@VInteractive_Helper@2@@@QAE@XZ
??1?$_CORBA_Unbounded_Sequence_w_FixSizeElement@J$03$03@@QAE@XZ
??1?$omnivector@PAVomniObjTableEntry@@@@QAE@XZ
??1AdminLimit@CosNotifyChannelAdmin@@QAE@XZ
??1AnyProxyBoundWorker@@UAE@XZ
??1AnyPullWorker@@UAE@XZ
??1Any_var@CORBA@@QAE@XZ
??1Binding@CosNaming@@QAE@XZ
??1CAdminGroupMgr@@QAE@XZ
??1CEntry_t@RDI_ChangePool@@QAE@XZ
??1ChannelIDSeq@CosNotifyChannelAdmin@@QAE@XZ
??1ConstraintExp@CosNotifyFilter@@QAE@XZ
??1ConstraintIDSeq@CosNotifyFilter@@QAE@XZ
??1ConstraintImpl@@QAE@XZ
??1ConstraintInfo@CosNotifyFilter@@QAE@XZ
??1ConstraintInfoSeq@CosNotifyFilter@@QAE@XZ
??1ConsumerAdmin_i@@EAE@XZ
??1EventBatch@CosNotification@@QAE@XZ
??1EventChannelBoundWorker@@UAE@XZ
??1EventChannelDispatch@@QAE@XZ
??1EventChannelFactory_i@@EAE@XZ
??1EventChannelWorker@@UAE@XZ
??1EventChannel_i@@EAE@XZ
??1EventHeader@CosNotification@@QAE@XZ
??1EventProxyPullConsumer_i@@EAE@XZ
??1EventProxyPullSupplier_i@@EAE@XZ
??1EventProxyPushConsumer_i@@EAE@XZ
??1EventProxyPushSupplier_i@@EAE@XZ
??1EventPullWorker@@UAE@XZ
??1EventPushWorker@@UAE@XZ
??1EventQueueWorker@@UAE@XZ
??1EventType@CosNotification@@QAE@XZ
??1EventTypeSeq@CosNotification@@QAE@XZ
??1FAdminHelper@@QAE@XZ
??1FilterFactory_i@@EAE@XZ
??1FilterIDSeq@CosNotifyFilter@@QAE@XZ
??1Filter_i@@EAE@XZ
??1FixedEventHeader@CosNotification@@QAE@XZ
??1FlexLexer@@UAE@XZ
??1IactSeq@AttNotification@@QAE@XZ
??1MappingConstraintInfo@CosNotifyFilter@@QAE@XZ
??1MappingConstraintPair@CosNotifyFilter@@QAE@XZ
??1MappingFilter_i@@EAE@XZ
??1Name@CosNaming@@QAE@XZ
??1NameComponent@CosNaming@@QAE@XZ
??1NameDynAnyPair@DynamicAny@@QAE@XZ
??1NameSeq@AttNotification@@QAE@XZ
??1NameValuePair@DynamicAny@@QAE@XZ
??1NamedPropertyRange@CosNotification@@QAE@XZ
??1NamedPropertyRangeSeq@CosNotification@@QAE@XZ
??1ObjectId@PortableServer@@QAE@XZ
??1ObjectId_var@PortableServer@@QAE@XZ
??1Object_var@CORBA@@QAE@XZ
??1Property@CosNotification@@QAE@XZ
??1PropertyError@CosNotification@@QAE@XZ
??1PropertyErrorSeq@CosNotification@@QAE@XZ
??1PropertyRange@CosNotification@@QAE@XZ
??1PropertySeq@CosNotification@@QAE@XZ
??1ProxyPullConsumer_i@@EAE@XZ
??1ProxyPullSupplier_i@@EAE@XZ
??1ProxyPushConsumer_i@@EAE@XZ
??1ProxyPushSupplier_i@@EAE@XZ
??1RDINotifQueue@@QAE@XZ
??1RDINotifServer@@EAE@XZ
??1RDINotifServerWorker@@UAE@XZ
??1RDIOplockEntry@@QAE@XZ
??1RDIParseCmd@@QAE@XZ
??1RDIPriorityQueue@@QAE@XZ
??1RDIProxyConsumer@@MAE@XZ
??1RDIProxySupplier@@MAE@XZ
??1RDI_Bitmap@@QAE@XZ
??1RDI_ChangePool@@QAE@XZ
??1RDI_ChangePoolBoundWorker@@UAE@XZ
??1RDI_Config@@QAE@XZ
??1RDI_Constraint@@QAE@XZ
??1RDI_EventQueue@@QAE@XZ
??1RDI_EventType@@QAE@XZ
??1RDI_NotifyBoundWorker@@UAE@XZ
??1RDI_NotifyConsumer@@QAE@XZ
??1RDI_NotifyWorker@@UAE@XZ
??1RDI_Op@@QAE@XZ
??1RDI_OpSeq@@QAE@XZ
??1RDI_OplockBumpCondLock@@QAE@XZ
??1RDI_OplockBumpLock@@QAE@XZ
??1RDI_OplockCondLock@@QAE@XZ
??1RDI_OplockLock@@QAE@XZ
??1RDI_OplockTempRelease@@QAE@XZ
??1RDI_PCState@@QAE@XZ
??1RDI_PullBoundWorker@@UAE@XZ
??1RDI_PullSupplier@@QAE@XZ
??1RDI_PullWorker@@UAE@XZ
??1RDI_RTVal@@QAE@XZ
??1RDI_RVM@@QAE@XZ
??1RDI_StructuredEvent@@QAE@XZ
??1RDI_ThStat@@QAE@XZ
??1RDI_TypeMap@@QAE@XZ
??1RDIstrstream@@QAE@XZ
??1SeqProxyBoundWorker@@UAE@XZ
??1SeqPullWorker@@UAE@XZ
??1SequenceProxyPullConsumer_i@@EAE@XZ
??1SequenceProxyPullSupplier_i@@EAE@XZ
??1SequenceProxyPushConsumer_i@@EAE@XZ
??1SequenceProxyPushSupplier_i@@EAE@XZ
??1ServiceContext@IOP@@QAE@XZ
??1StrProxyBoundWorker@@UAE@XZ
??1StrPullWorker@@UAE@XZ
??1StructMember@CORBA@@QAE@XZ
??1StructuredEvent@CosNotification@@QAE@XZ
??1StructuredProxyPullConsumer_i@@EAE@XZ
??1StructuredProxyPullSupplier_i@@EAE@XZ
??1StructuredProxyPushConsumer_i@@EAE@XZ
??1StructuredProxyPushSupplier_i@@EAE@XZ
??1SupplierAdmin_i@@EAE@XZ
??1TW_CondMutexLock@@QAE@XZ
??1TW_CondRWMutexLock@@QAE@XZ
??1TW_MutexLock@@QAE@XZ
??1TW_RWMutex@@QAE@XZ
??1TW_RWMutexLock@@QAE@XZ
??1TW_TempRelease@@QAE@XZ
??1TaggedComponent@IOP@@QAE@XZ
??1TaggedProfile@IOP@@QAE@XZ
??1TypeCode_var@CORBA@@QAE@XZ
??1UnionMember@CORBA@@QAE@XZ
??1ValueMember@CORBA@@QAE@XZ
??1_CORBA_Sequence_Octet@@IAE@XZ
??1_CORBA_Sequence_String@@QAE@XZ
??1_CORBA_String_element@@QAE@XZ
??1_CORBA_String_member@@QAE@XZ
??1_CORBA_String_var@@QAE@XZ
??1_CORBA_Unbounded_Sequence_Octet@@QAE@XZ
??1_CORBA_Unbounded_Sequence_String@@QAE@XZ
??1logger@RDI@@QAE@XZ
??1node_t@RDI_Config@@QAE@XZ
??1yyFlexLexer@@UAE@XZ
??4?$RDI_HashCursor@JPAVConsumerAdmin_i@@@@QAE?AV0@ABV0@@Z
??4?$RDI_HashCursor@JPAVEventChannel_i@@@@QAE?AV0@ABV0@@Z
??4?$RDI_HashCursor@JPAVFilter_i@@@@QAE?AV0@ABV0@@Z
??4?$RDI_HashCursor@JPAVProxyPullConsumer_i@@@@QAE?AV0@ABV0@@Z
??4?$RDI_HashCursor@JPAVProxyPullSupplier_i@@@@QAE?AV0@ABV0@@Z
??4?$RDI_HashCursor@JPAVProxyPushConsumer_i@@@@QAE?AV0@ABV0@@Z
??4?$RDI_HashCursor@JPAVProxyPushSupplier_i@@@@QAE?AV0@ABV0@@Z
??4?$RDI_HashCursor@JPAVSequenceProxyPullConsumer_i@@@@QAE?AV0@ABV0@@Z
??4?$RDI_HashCursor@JPAVSequenceProxyPullSupplier_i@@@@QAE?AV0@ABV0@@Z
??4?$RDI_HashCursor@JPAVSequenceProxyPushConsumer_i@@@@QAE?AV0@ABV0@@Z
??4?$RDI_HashCursor@JPAVSequenceProxyPushSupplier_i@@@@QAE?AV0@ABV0@@Z
??4?$RDI_HashCursor@JPAVStructuredProxyPullConsumer_i@@@@QAE?AV0@ABV0@@Z
??4?$RDI_HashCursor@JPAVStructuredProxyPullSupplier_i@@@@QAE?AV0@ABV0@@Z
??4?$RDI_HashCursor@JPAVStructuredProxyPushConsumer_i@@@@QAE?AV0@ABV0@@Z
??4?$RDI_HashCursor@JPAVStructuredProxyPushSupplier_i@@@@QAE?AV0@ABV0@@Z
??4?$RDI_HashCursor@JPAVSupplierAdmin_i@@@@QAE?AV0@ABV0@@Z
??4?$RDI_HashCursor@JPAV_objref_NotifySubscribe@CosNotifyComm@@@@QAE?AV0@ABV0@@Z
??4?$RDI_HashCursor@JUFAdminFilterEntry_s@@@@QAE?AV0@ABV0@@Z
??4?$RDI_HashCursor@JURDINfyCB@@@@QAE?AV0@ABV0@@Z
??4?$RDI_HashCursor@UEventType@CosNotification@@K@@QAE?AV0@ABV0@@Z
??4?$RDI_HashCursor@UEventType@CosNotification@@UVNode_t@RDI_TypeMap@@@@QAE?AV0@ABV0@@Z
??4?$RDI_HashCursor@VRDI_EventType@@K@@QAE?AV0@ABV0@@Z
??4?$RDI_HashCursor@VRDI_EventType@@PAX@@QAE?AV0@ABV0@@Z
??4?$RDI_ListCursor@PAVEventProxyPullConsumer_i@@@@QAE?AV0@ABV0@@Z
??4?$RDI_ListCursor@PAVEventProxyPullSupplier_i@@@@QAE?AV0@ABV0@@Z
??4?$RDI_ListCursor@PAVEventProxyPushConsumer_i@@@@QAE?AV0@ABV0@@Z
??4?$RDI_ListCursor@PAVEventProxyPushSupplier_i@@@@QAE?AV0@ABV0@@Z
??4?$_CORBA_ObjRef_Element@V_objref_Interactive@AttNotification@@VInteractive_Helper@2@@@QAEAAV0@PAV_objref_Interactive@AttNotification@@@Z
??4?$_CORBA_ObjRef_OUT_arg@V_objref_Interactive@AttNotification@@VInteractive_Helper@2@@@QAEAAV0@PAV_objref_Interactive@AttNotification@@@Z
??4?$_CORBA_ObjRef_Var@V_objref_ConsumerAdmin@AttNotification@@VConsumerAdmin_Helper@2@@@QAEAAV0@PAV_objref_ConsumerAdmin@AttNotification@@@Z
??4?$_CORBA_ObjRef_Var@V_objref_EventChannel@AttNotification@@VEventChannel_Helper@2@@@QAEAAV0@PAV_objref_EventChannel@AttNotification@@@Z
??4?$_CORBA_ObjRef_Var@V_objref_EventChannel@CosNotifyChannelAdmin@@VEventChannel_Helper@2@@@QAEAAV0@PAV_objref_EventChannel@CosNotifyChannelAdmin@@@Z
??4?$_CORBA_ObjRef_Var@V_objref_EventChannelFactory@AttNotification@@VEventChannelFactory_Helper@2@@@QAEAAV0@PAV_objref_EventChannelFactory@AttNotification@@@Z
??4?$_CORBA_ObjRef_Var@V_objref_FilterFactory@AttNotification@@VFilterFactory_Helper@2@@@QAEAAV0@PAV_objref_FilterFactory@AttNotification@@@Z
??4?$_CORBA_ObjRef_Var@V_objref_MappingFilter@CosNotifyFilter@@VMappingFilter_Helper@2@@@QAEAAV0@PAV_objref_MappingFilter@CosNotifyFilter@@@Z
??4?$_CORBA_ObjRef_Var@V_objref_NamingContext@CosNaming@@VNamingContext_Helper@2@@@QAEAAV0@PAV_objref_NamingContext@CosNaming@@@Z
??4?$_CORBA_ObjRef_Var@V_objref_NotifyPublish@CosNotifyComm@@VNotifyPublish_Helper@2@@@QAEAAV0@PAV_objref_NotifyPublish@CosNotifyComm@@@Z
??4?$_CORBA_ObjRef_Var@V_objref_NotifySubscribe@CosNotifyComm@@VNotifySubscribe_Helper@2@@@QAEAAV0@PAV_objref_NotifySubscribe@CosNotifyComm@@@Z
??4?$_CORBA_ObjRef_Var@V_objref_PullConsumer@CosEventComm@@VPullConsumer_Helper@2@@@QAEAAV0@PAV_objref_PullConsumer@CosEventComm@@@Z
??4?$_CORBA_ObjRef_Var@V_objref_PullConsumer@CosNotifyComm@@VPullConsumer_Helper@2@@@QAEAAV0@PAV_objref_PullConsumer@CosNotifyComm@@@Z
??4?$_CORBA_ObjRef_Var@V_objref_PullSupplier@CosEventComm@@VPullSupplier_Helper@2@@@QAEAAV0@PAV_objref_PullSupplier@CosEventComm@@@Z
??4?$_CORBA_ObjRef_Var@V_objref_PullSupplier@CosNotifyComm@@VPullSupplier_Helper@2@@@QAEAAV0@PAV_objref_PullSupplier@CosNotifyComm@@@Z
??4?$_CORBA_ObjRef_Var@V_objref_PushConsumer@CosEventComm@@VPushConsumer_Helper@2@@@QAEAAV0@PAV_objref_PushConsumer@CosEventComm@@@Z
??4?$_CORBA_ObjRef_Var@V_objref_PushConsumer@CosNotifyComm@@VPushConsumer_Helper@2@@@QAEAAV0@PAV_objref_PushConsumer@CosNotifyComm@@@Z
??4?$_CORBA_ObjRef_Var@V_objref_PushSupplier@CosEventComm@@VPushSupplier_Helper@2@@@QAEAAV0@PAV_objref_PushSupplier@CosEventComm@@@Z
??4?$_CORBA_ObjRef_Var@V_objref_PushSupplier@CosNotifyComm@@VPushSupplier_Helper@2@@@QAEAAV0@PAV_objref_PushSupplier@CosNotifyComm@@@Z
??4?$_CORBA_ObjRef_Var@V_objref_SequencePullConsumer@CosNotifyComm@@VSequencePullConsumer_Helper@2@@@QAEAAV0@PAV_objref_SequencePullConsumer@CosNotifyComm@@@Z
??4?$_CORBA_ObjRef_Var@V_objref_SequencePullSupplier@CosNotifyComm@@VSequencePullSupplier_Helper@2@@@QAEAAV0@PAV_objref_SequencePullSupplier@CosNotifyComm@@@Z
??4?$_CORBA_ObjRef_Var@V_objref_SequencePushConsumer@CosNotifyComm@@VSequencePushConsumer_Helper@2@@@QAEAAV0@PAV_objref_SequencePushConsumer@CosNotifyComm@@@Z
??4?$_CORBA_ObjRef_Var@V_objref_SequencePushSupplier@CosNotifyComm@@VSequencePushSupplier_Helper@2@@@QAEAAV0@PAV_objref_SequencePushSupplier@CosNotifyComm@@@Z
??4?$_CORBA_ObjRef_Var@V_objref_Server@AttNotification@@VServer_Helper@2@@@QAEAAV0@PAV_objref_Server@AttNotification@@@Z
??4?$_CORBA_ObjRef_Var@V_objref_StructuredPullConsumer@CosNotifyComm@@VStructuredPullConsumer_Helper@2@@@QAEAAV0@PAV_objref_StructuredPullConsumer@CosNotifyComm@@@Z
??4?$_CORBA_ObjRef_Var@V_objref_StructuredPullSupplier@CosNotifyComm@@VStructuredPullSupplier_Helper@2@@@QAEAAV0@PAV_objref_StructuredPullSupplier@CosNotifyComm@@@Z
??4?$_CORBA_ObjRef_Var@V_objref_StructuredPushConsumer@CosNotifyComm@@VStructuredPushConsumer_Helper@2@@@QAEAAV0@PAV_objref_StructuredPushConsumer@CosNotifyComm@@@Z
??4?$_CORBA_ObjRef_Var@V_objref_StructuredPushSupplier@CosNotifyComm@@VStructuredPushSupplier_Helper@2@@@QAEAAV0@PAV_objref_StructuredPushSupplier@CosNotifyComm@@@Z
??4?$_CORBA_ObjRef_Var@V_objref_SupplierAdmin@AttNotification@@VSupplierAdmin_Helper@2@@@QAEAAV0@PAV_objref_SupplierAdmin@AttNotification@@@Z
??4?$_CORBA_PseudoObj_Var@VDynAny@DynamicAny@@@@QAEAAV0@PAVDynAny@DynamicAny@@@Z
??4?$_CORBA_PseudoObj_Var@VDynAnyFactory@DynamicAny@@@@QAEAAV0@PAVDynAnyFactory@DynamicAny@@@Z
??4?$_CORBA_PseudoObj_Var@VDynArray@DynamicAny@@@@QAEAAV0@PAVDynArray@DynamicAny@@@Z
??4?$_CORBA_PseudoObj_Var@VDynEnum@DynamicAny@@@@QAEAAV0@PAVDynEnum@DynamicAny@@@Z
??4?$_CORBA_PseudoObj_Var@VDynSequence@DynamicAny@@@@QAEAAV0@PAVDynSequence@DynamicAny@@@Z
??4?$_CORBA_PseudoObj_Var@VDynStruct@DynamicAny@@@@QAEAAV0@PAVDynStruct@DynamicAny@@@Z
??4?$_CORBA_PseudoObj_Var@VDynUnion@DynamicAny@@@@QAEAAV0@PAVDynUnion@DynamicAny@@@Z
??4?$_CORBA_Sequence@UEventType@CosNotification@@@@IAEAAV0@ABV0@@Z
??4?$_CORBA_Sequence@UProperty@CosNotification@@@@IAEAAV0@ABV0@@Z
??4?$_CORBA_Unbounded_Sequence@UEventType@CosNotification@@@@QAEAAV0@ABV0@@Z
??4?$_CORBA_Unbounded_Sequence@UProperty@CosNotification@@@@QAEAAV0@ABV0@@Z
??4Any_var@CORBA@@QAEAAV01@PAVAny@1@@Z
??4ConstraintExp@CosNotifyFilter@@QAEAAU01@ABU01@@Z
??4ConstraintInfo@CosNotifyFilter@@QAEAAU01@ABU01@@Z
??4EventHeader@CosNotification@@QAEAAU01@ABU01@@Z
??4EventType@CosNotification@@QAEAAU01@ABU01@@Z
??4EventTypeSeq@CosNotification@@QAEAAV01@ABV01@@Z
??4FixedEventHeader@CosNotification@@QAEAAU01@ABU01@@Z
??4NameComponent@CosNaming@@QAEAAU01@ABU01@@Z
??4NamedPropertyRange@CosNotification@@QAEAAU01@ABU01@@Z
??4NamedPropertyRangeSeq_out@CosNotification@@QAEAAV01@PAVNamedPropertyRangeSeq@1@@Z
??4Object_var@CORBA@@QAEAAV01@PAVObject@1@@Z
??4Property@CosNotification@@QAEAAU01@ABU01@@Z
??4PropertyError@CosNotification@@QAEAAU01@ABU01@@Z
??4PropertyRange@CosNotification@@QAEAAU01@ABU01@@Z
??4PropertySeq@CosNotification@@QAEAAV01@ABV01@@Z
??4ProxyDispatch_t@EventChannel_i@@QAEAAU01@ABU01@@Z
??4RDI_AdminQoS@@QAEAAV0@ABV0@@Z
??4RDI_EventType@@QAEAAV0@ABUEventType@CosNotification@@@Z
??4RDI_EventType@@QAEAAV0@ABV0@@Z
??4RDI_NotifQoS@@QAEAAV0@ABV0@@Z
??4RDI_RTVal@@QAEAAV0@ABV0@@Z
??4RDI_ServerQoS@@QAEAAV0@ABV0@@Z
??4RDI_TimeT@@QAEAAV0@ABV0@@Z
??4StructuredEvent@CosNotification@@QAEAAU01@ABU01@@Z
??4TypeCode_var@CORBA@@QAEAAV01@PAVTypeCode@1@@Z
??4_CORBA_String_element@@QAEAAV0@ABV0@@Z
??4_CORBA_String_element@@QAEAAV0@PAD@Z
??4_CORBA_String_element@@QAEAAV0@PBD@Z
??4_CORBA_String_member@@QAEAAV0@ABV0@@Z
??4_CORBA_String_member@@QAEAAV0@PAD@Z
??4_CORBA_String_member@@QAEAAV0@PBD@Z
??4_CORBA_String_var@@QAEAAV0@PAD@Z
??6@YAAAVRDIstrstream@@AAV0@AAVCAdminGroupMgr@@@Z
??6@YAAAVRDIstrstream@@AAV0@AAVConsumerAdmin_i@@@Z
??6@YAAAVRDIstrstream@@AAV0@AAVRDI_TypeMap@@@Z
??6@YAAAVRDIstrstream@@AAV0@AAVSupplierAdmin_i@@@Z
??6@YAAAVRDIstrstream@@AAV0@ABUEventType@CosNotification@@@Z
??6@YAAAVRDIstrstream@@AAV0@ABUProperty@CosNotification@@@Z
??6@YAAAVRDIstrstream@@AAV0@ABUPropertyError@CosNotification@@@Z
??6@YAAAVRDIstrstream@@AAV0@ABUPropertyRange@CosNotification@@@Z
??6@YAAAVRDIstrstream@@AAV0@ABUStructuredEvent@CosNotification@@@Z
??6@YAAAVRDIstrstream@@AAV0@ABV?$RDI_SafeList@VConsumerAdmin_i@@@@@Z
??6@YAAAVRDIstrstream@@AAV0@ABVEventProxyPullConsumer_i@@@Z
??6@YAAAVRDIstrstream@@AAV0@ABVEventProxyPullSupplier_i@@@Z
??6@YAAAVRDIstrstream@@AAV0@ABVEventProxyPushConsumer_i@@@Z
??6@YAAAVRDIstrstream@@AAV0@ABVEventProxyPushSupplier_i@@@Z
??6@YAAAVRDIstrstream@@AAV0@ABVEventTypeSeq@CosNotification@@@Z
??6@YAAAVRDIstrstream@@AAV0@ABVFilter_i@@@Z
??6@YAAAVRDIstrstream@@AAV0@ABVNameSeq@AttNotification@@@Z
??6@YAAAVRDIstrstream@@AAV0@ABVPropertyErrorSeq@CosNotification@@@Z
??6@YAAAVRDIstrstream@@AAV0@ABVPropertySeq@CosNotification@@@Z
??6@YAAAVRDIstrstream@@AAV0@ABVProxyPullConsumer_i@@@Z
??6@YAAAVRDIstrstream@@AAV0@ABVProxyPullSupplier_i@@@Z
??6@YAAAVRDIstrstream@@AAV0@ABVProxyPushConsumer_i@@@Z
??6@YAAAVRDIstrstream@@AAV0@ABVProxyPushSupplier_i@@@Z
??6@YAAAVRDIstrstream@@AAV0@ABVRDI_AdminQoS@@@Z
??6@YAAAVRDIstrstream@@AAV0@ABVRDI_NotifQoS@@@Z
??6@YAAAVRDIstrstream@@AAV0@ABVRDI_Op@@@Z
??6@YAAAVRDIstrstream@@AAV0@ABVRDI_RTVal@@@Z
??6@YAAAVRDIstrstream@@AAV0@ABVRDI_TimeT@@@Z
??6@YAAAVRDIstrstream@@AAV0@ABVRDI_UtcT@@@Z
??6@YAAAVRDIstrstream@@AAV0@ABVSequenceProxyPullConsumer_i@@@Z
??6@YAAAVRDIstrstream@@AAV0@ABVSequenceProxyPullSupplier_i@@@Z
??6@YAAAVRDIstrstream@@AAV0@ABVSequenceProxyPushConsumer_i@@@Z
??6@YAAAVRDIstrstream@@AAV0@ABVSequenceProxyPushSupplier_i@@@Z
??6@YAAAVRDIstrstream@@AAV0@ABVStructuredProxyPullConsumer_i@@@Z
??6@YAAAVRDIstrstream@@AAV0@ABVStructuredProxyPullSupplier_i@@@Z
??6@YAAAVRDIstrstream@@AAV0@ABVStructuredProxyPushConsumer_i@@@Z
??6@YAAAVRDIstrstream@@AAV0@ABVStructuredProxyPushSupplier_i@@@Z
??6@YAAAVRDIstrstream@@AAV0@ABVUnsupportedAdmin@CosNotification@@@Z
??6@YAAAVRDIstrstream@@AAV0@ABVUnsupportedQoS@CosNotification@@@Z
??6@YAAAVRDIstrstream@@AAV0@ABW4ClientType@CosNotifyChannelAdmin@@@Z
??6@YAAAVRDIstrstream@@AAV0@ABW4InterFilterGroupOperator@CosNotifyChannelAdmin@@@Z
??6@YAAAVRDIstrstream@@AAV0@ABW4ObtainInfoMode@CosNotifyChannelAdmin@@@Z
??6@YAAAVRDIstrstream@@AAV0@ABW4ProxyType@CosNotifyChannelAdmin@@@Z
??6@YAAAVRDIstrstream@@AAV0@ABW4QoSError_code@CosNotification@@@Z
??6@YAAAVRDIstrstream@@AAV0@ABW4RDI_ProxyState@@@Z
??6@YAAAVRDIstrstream@@AAV0@ABW4RDI_RTValKind@@@Z
??6RDIstrstream@@QAEAAV0@ABVAny@CORBA@@@Z
??6RDIstrstream@@QAEAAV0@ABVException@CORBA@@@Z
??6RDIstrstream@@QAEAAV0@ABVTypeCode@CORBA@@@Z
??6RDIstrstream@@QAEAAV0@ABW4TCKind@CORBA@@@Z
??6RDIstrstream@@QAEAAV0@D@Z
??6RDIstrstream@@QAEAAV0@E@Z
??6RDIstrstream@@QAEAAV0@F@Z
??6RDIstrstream@@QAEAAV0@G@Z
??6RDIstrstream@@QAEAAV0@H@Z
??6RDIstrstream@@QAEAAV0@I@Z
??6RDIstrstream@@QAEAAV0@J@Z
??6RDIstrstream@@QAEAAV0@K@Z
??6RDIstrstream@@QAEAAV0@M@Z
??6RDIstrstream@@QAEAAV0@N@Z
??6RDIstrstream@@QAEAAV0@PBD@Z
??6RDIstrstream@@QAEAAV0@PBX@Z
??6RDIstrstream@@QAEAAV0@_J@Z
??6RDIstrstream@@QAEAAV0@_K@Z
??6RDIstrstream@@QAEAAV0@_N@Z
??A?$_CORBA_Sequence@J@@QAEAAJK@Z
??A?$_CORBA_Sequence@J@@QBEABJK@Z
??A?$_CORBA_Sequence@PAVConstraintImpl@@@@QAEAAPAVConstraintImpl@@K@Z
??A?$_CORBA_Sequence@PAVConsumerAdmin_i@@@@QAEAAPAVConsumerAdmin_i@@K@Z
??A?$_CORBA_Sequence@PAVEventProxyPullConsumer_i@@@@QAEAAPAVEventProxyPullConsumer_i@@K@Z
??A?$_CORBA_Sequence@PAVEventProxyPullSupplier_i@@@@QAEAAPAVEventProxyPullSupplier_i@@K@Z
??A?$_CORBA_Sequence@PAVEventProxyPushConsumer_i@@@@QAEAAPAVEventProxyPushConsumer_i@@K@Z
??A?$_CORBA_Sequence@PAVEventProxyPushSupplier_i@@@@QAEAAPAVEventProxyPushSupplier_i@@K@Z
??A?$_CORBA_Sequence@PAVFilter_i@@@@QAEAAPAVFilter_i@@K@Z
??A?$_CORBA_Sequence@PAVProxyPullConsumer_i@@@@QAEAAPAVProxyPullConsumer_i@@K@Z
??A?$_CORBA_Sequence@PAVProxyPullSupplier_i@@@@QAEAAPAVProxyPullSupplier_i@@K@Z
??A?$_CORBA_Sequence@PAVProxyPushConsumer_i@@@@QAEAAPAVProxyPushConsumer_i@@K@Z
??A?$_CORBA_Sequence@PAVProxyPushSupplier_i@@@@QAEAAPAVProxyPushSupplier_i@@K@Z
??A?$_CORBA_Sequence@PAVRDINotifySubscribe@@@@QAEAAPAVRDINotifySubscribe@@K@Z
??A?$_CORBA_Sequence@PAVSequenceProxyPullConsumer_i@@@@QAEAAPAVSequenceProxyPullConsumer_i@@K@Z
??A?$_CORBA_Sequence@PAVSequenceProxyPullSupplier_i@@@@QAEAAPAVSequenceProxyPullSupplier_i@@K@Z
??A?$_CORBA_Sequence@PAVSequenceProxyPushConsumer_i@@@@QAEAAPAVSequenceProxyPushConsumer_i@@K@Z
??A?$_CORBA_Sequence@PAVSequenceProxyPushSupplier_i@@@@QAEAAPAVSequenceProxyPushSupplier_i@@K@Z
??A?$_CORBA_Sequence@PAVStructuredProxyPullConsumer_i@@@@QAEAAPAVStructuredProxyPullConsumer_i@@K@Z
??A?$_CORBA_Sequence@PAVStructuredProxyPullSupplier_i@@@@QAEAAPAVStructuredProxyPullSupplier_i@@K@Z
??A?$_CORBA_Sequence@PAVStructuredProxyPushConsumer_i@@@@QAEAAPAVStructuredProxyPushConsumer_i@@K@Z
??A?$_CORBA_Sequence@PAVStructuredProxyPushSupplier_i@@@@QAEAAPAVStructuredProxyPushSupplier_i@@K@Z
??A?$_CORBA_Sequence@PAVSupplierAdmin_i@@@@QAEAAPAVSupplierAdmin_i@@K@Z
??A?$_CORBA_Sequence@PAV_objref_ConsumerAdmin@CosNotifyChannelAdmin@@@@QAEAAPAV_objref_ConsumerAdmin@CosNotifyChannelAdmin@@K@Z
??A?$_CORBA_Sequence@PAV_objref_Filter@CosNotifyFilter@@@@QAEAAPAV_objref_Filter@CosNotifyFilter@@K@Z
??A?$_CORBA_Sequence@PAV_objref_NotifySubscribe@CosNotifyComm@@@@QAEAAPAV_objref_NotifySubscribe@CosNotifyComm@@K@Z
??A?$_CORBA_Sequence@PAV_objref_ProxyPullConsumer@CosEventChannelAdmin@@@@QAEAAPAV_objref_ProxyPullConsumer@CosEventChannelAdmin@@K@Z
??A?$_CORBA_Sequence@PAV_objref_ProxyPullConsumer@CosNotifyChannelAdmin@@@@QAEAAPAV_objref_ProxyPullConsumer@CosNotifyChannelAdmin@@K@Z
??A?$_CORBA_Sequence@PAV_objref_ProxyPullSupplier@CosEventChannelAdmin@@@@QAEAAPAV_objref_ProxyPullSupplier@CosEventChannelAdmin@@K@Z
??A?$_CORBA_Sequence@PAV_objref_ProxyPullSupplier@CosNotifyChannelAdmin@@@@QAEAAPAV_objref_ProxyPullSupplier@CosNotifyChannelAdmin@@K@Z
??A?$_CORBA_Sequence@PAV_objref_ProxyPushConsumer@CosEventChannelAdmin@@@@QAEAAPAV_objref_ProxyPushConsumer@CosEventChannelAdmin@@K@Z
??A?$_CORBA_Sequence@PAV_objref_ProxyPushConsumer@CosNotifyChannelAdmin@@@@QAEAAPAV_objref_ProxyPushConsumer@CosNotifyChannelAdmin@@K@Z
??A?$_CORBA_Sequence@PAV_objref_ProxyPushSupplier@CosEventChannelAdmin@@@@QAEAAPAV_objref_ProxyPushSupplier@CosEventChannelAdmin@@K@Z
??A?$_CORBA_Sequence@PAV_objref_ProxyPushSupplier@CosNotifyChannelAdmin@@@@QAEAAPAV_objref_ProxyPushSupplier@CosNotifyChannelAdmin@@K@Z
??A?$_CORBA_Sequence@PAV_objref_SequenceProxyPullConsumer@CosNotifyChannelAdmin@@@@QAEAAPAV_objref_SequenceProxyPullConsumer@CosNotifyChannelAdmin@@K@Z
??A?$_CORBA_Sequence@PAV_objref_SequenceProxyPullSupplier@CosNotifyChannelAdmin@@@@QAEAAPAV_objref_SequenceProxyPullSupplier@CosNotifyChannelAdmin@@K@Z
??A?$_CORBA_Sequence@PAV_objref_SequenceProxyPushConsumer@CosNotifyChannelAdmin@@@@QAEAAPAV_objref_SequenceProxyPushConsumer@CosNotifyChannelAdmin@@K@Z
??A?$_CORBA_Sequence@PAV_objref_SequenceProxyPushSupplier@CosNotifyChannelAdmin@@@@QAEAAPAV_objref_SequenceProxyPushSupplier@CosNotifyChannelAdmin@@K@Z
??A?$_CORBA_Sequence@PAV_objref_StructuredProxyPullConsumer@CosNotifyChannelAdmin@@@@QAEAAPAV_objref_StructuredProxyPullConsumer@CosNotifyChannelAdmin@@K@Z
??A?$_CORBA_Sequence@PAV_objref_StructuredProxyPullSupplier@CosNotifyChannelAdmin@@@@QAEAAPAV_objref_StructuredProxyPullSupplier@CosNotifyChannelAdmin@@K@Z
??A?$_CORBA_Sequence@PAV_objref_StructuredProxyPushConsumer@CosNotifyChannelAdmin@@@@QAEAAPAV_objref_StructuredProxyPushConsumer@CosNotifyChannelAdmin@@K@Z
??A?$_CORBA_Sequence@PAV_objref_StructuredProxyPushSupplier@CosNotifyChannelAdmin@@@@QAEAAPAV_objref_StructuredProxyPushSupplier@CosNotifyChannelAdmin@@K@Z
??A?$_CORBA_Sequence@PAV_objref_SupplierAdmin@CosNotifyChannelAdmin@@@@QAEAAPAV_objref_SupplierAdmin@CosNotifyChannelAdmin@@K@Z
??A?$_CORBA_Sequence@UConstraintExp@CosNotifyFilter@@@@QBEABUConstraintExp@CosNotifyFilter@@K@Z
??A?$_CORBA_Sequence@UConstraintInfo@CosNotifyFilter@@@@QAEAAUConstraintInfo@CosNotifyFilter@@K@Z
??A?$_CORBA_Sequence@UConstraintInfo@CosNotifyFilter@@@@QBEABUConstraintInfo@CosNotifyFilter@@K@Z
??A?$_CORBA_Sequence@UEventType@CosNotification@@@@QAEAAUEventType@CosNotification@@K@Z
??A?$_CORBA_Sequence@UEventType@CosNotification@@@@QBEABUEventType@CosNotification@@K@Z
??A?$_CORBA_Sequence@UNameComponent@CosNaming@@@@QAEAAUNameComponent@CosNaming@@K@Z
??A?$_CORBA_Sequence@UNamedPropertyRange@CosNotification@@@@QAEAAUNamedPropertyRange@CosNotification@@K@Z
??A?$_CORBA_Sequence@UProperty@CosNotification@@@@QAEAAUProperty@CosNotification@@K@Z
??A?$_CORBA_Sequence@UProperty@CosNotification@@@@QBEABUProperty@CosNotification@@K@Z
??A?$_CORBA_Sequence@UPropertyError@CosNotification@@@@QAEAAUPropertyError@CosNotification@@K@Z
??A?$_CORBA_Sequence@UPropertyError@CosNotification@@@@QBEABUPropertyError@CosNotification@@K@Z
??A?$_CORBA_Sequence@UStructuredEvent@CosNotification@@@@QAEAAUStructuredEvent@CosNotification@@K@Z
??A?$_CORBA_Sequence@UStructuredEvent@CosNotification@@@@QBEABUStructuredEvent@CosNotification@@K@Z
??A?$_CORBA_Sequence_ObjRef@V_objref_Interactive@AttNotification@@V?$_CORBA_ObjRef_Element@V_objref_Interactive@AttNotification@@VInteractive_Helper@2@@@VInteractive_Helper@2@@@QAE?AV?$_CORBA_ObjRef_Element@V_objref_Interactive@AttNotification@@VInteractive_Helper@2@@@K@Z
??ACAdminGroupMgr@@QAEPAV?$RDI_SafeList@VConsumerAdmin_i@@@@I@Z
??A_CORBA_Sequence_String@@QAE?AV_CORBA_String_element@@K@Z
??A_CORBA_Sequence_String@@QBE?BV_CORBA_String_element@@K@Z
??B?$_CORBA_ObjRef_Element@V_objref_Interactive@AttNotification@@VInteractive_Helper@2@@@QBEPAV_objref_Interactive@AttNotification@@XZ
??B?$_CORBA_ObjRef_Var@V_objref_ConsumerAdmin@AttNotification@@VConsumerAdmin_Helper@2@@@QBEPAV_objref_ConsumerAdmin@AttNotification@@XZ
??B?$_CORBA_ObjRef_Var@V_objref_EventChannel@AttNotification@@VEventChannel_Helper@2@@@QBEPAV_objref_EventChannel@AttNotification@@XZ
??B?$_CORBA_ObjRef_Var@V_objref_EventChannel@CosNotifyChannelAdmin@@VEventChannel_Helper@2@@@QBEPAV_objref_EventChannel@CosNotifyChannelAdmin@@XZ
??B?$_CORBA_ObjRef_Var@V_objref_EventChannelFactory@AttNotification@@VEventChannelFactory_Helper@2@@@QBEPAV_objref_EventChannelFactory@AttNotification@@XZ
??B?$_CORBA_ObjRef_Var@V_objref_Filter@AttNotification@@VFilter_Helper@2@@@QBEPAV_objref_Filter@AttNotification@@XZ
??B?$_CORBA_ObjRef_Var@V_objref_Filter@CosNotifyFilter@@VFilter_Helper@2@@@QBEPAV_objref_Filter@CosNotifyFilter@@XZ
??B?$_CORBA_ObjRef_Var@V_objref_FilterFactory@AttNotification@@VFilterFactory_Helper@2@@@QBEPAV_objref_FilterFactory@AttNotification@@XZ
??B?$_CORBA_ObjRef_Var@V_objref_MappingFilter@CosNotifyFilter@@VMappingFilter_Helper@2@@@QBEPAV_objref_MappingFilter@CosNotifyFilter@@XZ
??B?$_CORBA_ObjRef_Var@V_objref_NamingContext@CosNaming@@VNamingContext_Helper@2@@@QBEPAV_objref_NamingContext@CosNaming@@XZ
??B?$_CORBA_ObjRef_Var@V_objref_NotifyPublish@CosNotifyComm@@VNotifyPublish_Helper@2@@@QBEPAV_objref_NotifyPublish@CosNotifyComm@@XZ
??B?$_CORBA_ObjRef_Var@V_objref_NotifySubscribe@CosNotifyComm@@VNotifySubscribe_Helper@2@@@QBEPAV_objref_NotifySubscribe@CosNotifyComm@@XZ
??B?$_CORBA_ObjRef_Var@V_objref_PullConsumer@CosNotifyComm@@VPullConsumer_Helper@2@@@QBEPAV_objref_PullConsumer@CosNotifyComm@@XZ
??B?$_CORBA_ObjRef_Var@V_objref_PullSupplier@CosNotifyComm@@VPullSupplier_Helper@2@@@QBEPAV_objref_PullSupplier@CosNotifyComm@@XZ
??B?$_CORBA_ObjRef_Var@V_objref_PushConsumer@CosNotifyComm@@VPushConsumer_Helper@2@@@QBEPAV_objref_PushConsumer@CosNotifyComm@@XZ
??B?$_CORBA_ObjRef_Var@V_objref_PushSupplier@CosEventComm@@VPushSupplier_Helper@2@@@QBEPAV_objref_PushSupplier@CosEventComm@@XZ
??B?$_CORBA_ObjRef_Var@V_objref_PushSupplier@CosNotifyComm@@VPushSupplier_Helper@2@@@QBEPAV_objref_PushSupplier@CosNotifyComm@@XZ
??B?$_CORBA_ObjRef_Var@V_objref_SequencePullConsumer@CosNotifyComm@@VSequencePullConsumer_Helper@2@@@QBEPAV_objref_SequencePullConsumer@CosNotifyComm@@XZ
??B?$_CORBA_ObjRef_Var@V_objref_SequencePullSupplier@CosNotifyComm@@VSequencePullSupplier_Helper@2@@@QBEPAV_objref_SequencePullSupplier@CosNotifyComm@@XZ
??B?$_CORBA_ObjRef_Var@V_objref_SequencePushConsumer@CosNotifyComm@@VSequencePushConsumer_Helper@2@@@QBEPAV_objref_SequencePushConsumer@CosNotifyComm@@XZ
??B?$_CORBA_ObjRef_Var@V_objref_SequencePushSupplier@CosNotifyComm@@VSequencePushSupplier_Helper@2@@@QBEPAV_objref_SequencePushSupplier@CosNotifyComm@@XZ
??B?$_CORBA_ObjRef_Var@V_objref_Server@AttNotification@@VServer_Helper@2@@@QBEPAV_objref_Server@AttNotification@@XZ
??B?$_CORBA_ObjRef_Var@V_objref_StructuredPullConsumer@CosNotifyComm@@VStructuredPullConsumer_Helper@2@@@QBEPAV_objref_StructuredPullConsumer@CosNotifyComm@@XZ
??B?$_CORBA_ObjRef_Var@V_objref_StructuredPullSupplier@CosNotifyComm@@VStructuredPullSupplier_Helper@2@@@QBEPAV_objref_StructuredPullSupplier@CosNotifyComm@@XZ
??B?$_CORBA_ObjRef_Var@V_objref_StructuredPushConsumer@CosNotifyComm@@VStructuredPushConsumer_Helper@2@@@QBEPAV_objref_StructuredPushConsumer@CosNotifyComm@@XZ
??B?$_CORBA_ObjRef_Var@V_objref_StructuredPushSupplier@CosNotifyComm@@VStructuredPushSupplier_Helper@2@@@QBEPAV_objref_StructuredPushSupplier@CosNotifyComm@@XZ
??B?$_CORBA_ObjRef_Var@V_objref_SupplierAdmin@AttNotification@@VSupplierAdmin_Helper@2@@@QBEPAV_objref_SupplierAdmin@AttNotification@@XZ
??B?$_CORBA_PseudoObj_Var@VDynAny@DynamicAny@@@@QBEPAVDynAny@DynamicAny@@XZ
??B?$_CORBA_PseudoObj_Var@VDynArray@DynamicAny@@@@QBEPAVDynArray@DynamicAny@@XZ
??B?$_CORBA_PseudoObj_Var@VDynEnum@DynamicAny@@@@QBEPAVDynEnum@DynamicAny@@XZ
??B?$_CORBA_PseudoObj_Var@VDynSequence@DynamicAny@@@@QBEPAVDynSequence@DynamicAny@@XZ
??B?$_CORBA_PseudoObj_Var@VDynStruct@DynamicAny@@@@QBEPAVDynStruct@DynamicAny@@XZ
??B?$_CORBA_PseudoObj_Var@VDynUnion@DynamicAny@@@@QBEPAVDynUnion@DynamicAny@@XZ
??BAny_var@CORBA@@QAEAAVAny@1@XZ
??BNamedPropertyRangeSeq_out@CosNotification@@QAEAAPAVNamedPropertyRangeSeq@1@XZ
??BObject_var@CORBA@@QBEPAVObject@1@XZ
??BTypeCode_var@CORBA@@QBEPAVTypeCode@1@XZ
??B_CORBA_String_element@@QAEPADXZ
??B_CORBA_String_element@@QBEPBDXZ
??B_CORBA_String_member@@QAEPADXZ
??B_CORBA_String_member@@QBEPBDXZ
??C?$_CORBA_ObjRef_Element@V_objref_Interactive@AttNotification@@VInteractive_Helper@2@@@QBEPAV_objref_Interactive@AttNotification@@XZ
??C?$_CORBA_ObjRef_Var@V_objref_EventChannel@CosNotifyChannelAdmin@@VEventChannel_Helper@2@@@QBEPAV_objref_EventChannel@CosNotifyChannelAdmin@@XZ
??C?$_CORBA_ObjRef_Var@V_objref_EventChannelFactory@AttNotification@@VEventChannelFactory_Helper@2@@@QBEPAV_objref_EventChannelFactory@AttNotification@@XZ
??C?$_CORBA_ObjRef_Var@V_objref_Filter@AttNotification@@VFilter_Helper@2@@@QBEPAV_objref_Filter@AttNotification@@XZ
??C?$_CORBA_ObjRef_Var@V_objref_NamingContext@CosNaming@@VNamingContext_Helper@2@@@QBEPAV_objref_NamingContext@CosNaming@@XZ
??C?$_CORBA_ObjRef_Var@V_objref_NotifyPublish@CosNotifyComm@@VNotifyPublish_Helper@2@@@QBEPAV_objref_NotifyPublish@CosNotifyComm@@XZ
??C?$_CORBA_ObjRef_Var@V_objref_NotifySubscribe@CosNotifyComm@@VNotifySubscribe_Helper@2@@@QBEPAV_objref_NotifySubscribe@CosNotifyComm@@XZ
??C?$_CORBA_ObjRef_Var@V_objref_PullSupplier@CosEventComm@@VPullSupplier_Helper@2@@@QBEPAV_objref_PullSupplier@CosEventComm@@XZ
??C?$_CORBA_ObjRef_Var@V_objref_PushConsumer@CosEventComm@@VPushConsumer_Helper@2@@@QBEPAV_objref_PushConsumer@CosEventComm@@XZ
??C?$_CORBA_ObjRef_Var@V_objref_SequencePullSupplier@CosNotifyComm@@VSequencePullSupplier_Helper@2@@@QBEPAV_objref_SequencePullSupplier@CosNotifyComm@@XZ
??C?$_CORBA_ObjRef_Var@V_objref_SequencePushConsumer@CosNotifyComm@@VSequencePushConsumer_Helper@2@@@QBEPAV_objref_SequencePushConsumer@CosNotifyComm@@XZ
??C?$_CORBA_ObjRef_Var@V_objref_StructuredPullSupplier@CosNotifyComm@@VStructuredPullSupplier_Helper@2@@@QBEPAV_objref_StructuredPullSupplier@CosNotifyComm@@XZ
??C?$_CORBA_ObjRef_Var@V_objref_StructuredPushConsumer@CosNotifyComm@@VStructuredPushConsumer_Helper@2@@@QBEPAV_objref_StructuredPushConsumer@CosNotifyComm@@XZ
??C?$_CORBA_PseudoObj_Var@VDynAny@DynamicAny@@@@QBEPAVDynAny@DynamicAny@@XZ
??C?$_CORBA_PseudoObj_Var@VDynAnyFactory@DynamicAny@@@@QBEPAVDynAnyFactory@DynamicAny@@XZ
??C?$_CORBA_PseudoObj_Var@VDynArray@DynamicAny@@@@QBEPAVDynArray@DynamicAny@@XZ
??C?$_CORBA_PseudoObj_Var@VDynEnum@DynamicAny@@@@QBEPAVDynEnum@DynamicAny@@XZ
??C?$_CORBA_PseudoObj_Var@VDynSequence@DynamicAny@@@@QBEPAVDynSequence@DynamicAny@@XZ
??C?$_CORBA_PseudoObj_Var@VDynStruct@DynamicAny@@@@QBEPAVDynStruct@DynamicAny@@XZ
??C?$_CORBA_PseudoObj_Var@VDynUnion@DynamicAny@@@@QBEPAVDynUnion@DynamicAny@@XZ
??C?$_CORBA_PseudoObj_Var@VPOAManager@PortableServer@@@@QBEPAVPOAManager@PortableServer@@XZ
??CTypeCode_var@CORBA@@QBEPAVTypeCode@1@XZ
??D?$RDI_ListCursor@PAVEventProxyPullConsumer_i@@@@QBEABQAVEventProxyPullConsumer_i@@XZ
??D?$RDI_ListCursor@PAVEventProxyPullSupplier_i@@@@QBEABQAVEventProxyPullSupplier_i@@XZ
??D?$RDI_ListCursor@PAVEventProxyPushConsumer_i@@@@QBEABQAVEventProxyPushConsumer_i@@XZ
??D?$RDI_ListCursor@PAVEventProxyPushSupplier_i@@@@QBEABQAVEventProxyPushSupplier_i@@XZ
??E?$RDI_HashCursor@JPAVConsumerAdmin_i@@@@QAE?AV0@H@Z
??E?$RDI_HashCursor@JPAVConsumerAdmin_i@@@@QAEAAV0@XZ
??E?$RDI_HashCursor@JPAVEventChannel_i@@@@QAEAAV0@XZ
??E?$RDI_HashCursor@JPAVFilter_i@@@@QAEAAV0@XZ
??E?$RDI_HashCursor@JPAVProxyPullConsumer_i@@@@QAEAAV0@XZ
??E?$RDI_HashCursor@JPAVProxyPullSupplier_i@@@@QAEAAV0@XZ
??E?$RDI_HashCursor@JPAVProxyPushConsumer_i@@@@QAEAAV0@XZ
??E?$RDI_HashCursor@JPAVProxyPushSupplier_i@@@@QAEAAV0@XZ
??E?$RDI_HashCursor@JPAVSequenceProxyPullConsumer_i@@@@QAEAAV0@XZ
??E?$RDI_HashCursor@JPAVSequenceProxyPullSupplier_i@@@@QAEAAV0@XZ
??E?$RDI_HashCursor@JPAVSequenceProxyPushConsumer_i@@@@QAEAAV0@XZ
??E?$RDI_HashCursor@JPAVSequenceProxyPushSupplier_i@@@@QAEAAV0@XZ
??E?$RDI_HashCursor@JPAVStructuredProxyPullConsumer_i@@@@QAEAAV0@XZ
??E?$RDI_HashCursor@JPAVStructuredProxyPullSupplier_i@@@@QAEAAV0@XZ
??E?$RDI_HashCursor@JPAVStructuredProxyPushConsumer_i@@@@QAEAAV0@XZ
??E?$RDI_HashCursor@JPAVStructuredProxyPushSupplier_i@@@@QAEAAV0@XZ
??E?$RDI_HashCursor@JPAVSupplierAdmin_i@@@@QAE?AV0@H@Z
??E?$RDI_HashCursor@JPAVSupplierAdmin_i@@@@QAEAAV0@XZ
??E?$RDI_HashCursor@JPAV_objref_NotifySubscribe@CosNotifyComm@@@@QAEAAV0@XZ
??E?$RDI_HashCursor@JUFAdminFilterEntry_s@@@@QAE?AV0@H@Z
??E?$RDI_HashCursor@JUFAdminFilterEntry_s@@@@QAEAAV0@XZ
??E?$RDI_HashCursor@JURDINfyCB@@@@QAEAAV0@XZ
??E?$RDI_HashCursor@UEventType@CosNotification@@K@@QAEAAV0@XZ
??E?$RDI_HashCursor@UEventType@CosNotification@@UVNode_t@RDI_TypeMap@@@@QAE?AV0@H@Z
??E?$RDI_HashCursor@UEventType@CosNotification@@UVNode_t@RDI_TypeMap@@@@QAEAAV0@XZ
??E?$RDI_HashCursor@UKey_t@RDI_StructuredEvent@@UVal_t@2@@@QAEAAV0@XZ
??E?$RDI_HashCursor@VRDI_EventType@@K@@QAE?AV0@H@Z
??E?$RDI_HashCursor@VRDI_EventType@@K@@QAEAAV0@XZ
??E?$RDI_HashCursor@VRDI_EventType@@PAX@@QAEAAV0@XZ
??E?$RDI_ListCursor@PAVEventProxyPullConsumer_i@@@@QAEAAV0@XZ
??E?$RDI_ListCursor@PAVEventProxyPullSupplier_i@@@@QAEAAV0@XZ
??E?$RDI_ListCursor@PAVEventProxyPushConsumer_i@@@@QAEAAV0@XZ
??E?$RDI_ListCursor@PAVEventProxyPushSupplier_i@@@@QAEAAV0@XZ
??_DAdminPropertiesAdmin@POA_CosNotification@@QAEXXZ
??_DConsumerAdmin@POA_AttNotification@@QAEXXZ
??_DConsumerAdmin@POA_CosEventChannelAdmin@@QAEXXZ
??_DConsumerAdmin@POA_CosNotifyChannelAdmin@@QAEXXZ
??_DConsumerAdmin_i@@AAEXXZ
??_DCosEvProxyPullConsumer@POA_AttNotification@@QAEXXZ
??_DCosEvProxyPullSupplier@POA_AttNotification@@QAEXXZ
??_DCosEvProxyPushConsumer@POA_AttNotification@@QAEXXZ
??_DCosEvProxyPushSupplier@POA_AttNotification@@QAEXXZ
??_DEventChannel@POA_AttNotification@@QAEXXZ
??_DEventChannel@POA_CosEventChannelAdmin@@QAEXXZ
??_DEventChannel@POA_CosNotifyChannelAdmin@@QAEXXZ
??_DEventChannelFactory@POA_AttNotification@@QAEXXZ
??_DEventChannelFactory@POA_CosNotifyChannelAdmin@@QAEXXZ
??_DEventChannelFactory_i@@AAEXXZ
??_DEventChannel_i@@AAEXXZ
??_DEventProxyPullConsumer_i@@AAEXXZ
??_DEventProxyPullSupplier_i@@AAEXXZ
??_DEventProxyPushConsumer_i@@AAEXXZ
??_DEventProxyPushSupplier_i@@AAEXXZ
??_DFilter@POA_AttNotification@@QAEXXZ
??_DFilter@POA_CosNotifyFilter@@QAEXXZ
??_DFilterAdmin@POA_CosNotifyFilter@@QAEXXZ
??_DFilterFactory@POA_AttNotification@@QAEXXZ
??_DFilterFactory@POA_CosNotifyFilter@@QAEXXZ
??_DFilterFactory_i@@AAEXXZ
??_DFilter_i@@AAEXXZ
??_DInteractive@POA_AttNotification@@QAEXXZ
??_DMappingFilter@POA_AttNotification@@QAEXXZ
??_DMappingFilter@POA_CosNotifyFilter@@QAEXXZ
??_DMappingFilter_i@@AAEXXZ
??_DNotifyPublish@POA_CosNotifyComm@@QAEXXZ
??_DNotifySubscribe@POA_CosNotifyComm@@QAEXXZ
??_DProxyConsumer@POA_CosNotifyChannelAdmin@@QAEXXZ
??_DProxyPullConsumer@POA_AttNotification@@QAEXXZ
??_DProxyPullConsumer@POA_CosEventChannelAdmin@@QAEXXZ
??_DProxyPullConsumer@POA_CosNotifyChannelAdmin@@QAEXXZ
??_DProxyPullConsumer_i@@AAEXXZ
??_DProxyPullSupplier@POA_AttNotification@@QAEXXZ
??_DProxyPullSupplier@POA_CosEventChannelAdmin@@QAEXXZ
??_DProxyPullSupplier@POA_CosNotifyChannelAdmin@@QAEXXZ
??_DProxyPullSupplier_i@@AAEXXZ
??_DProxyPushConsumer@POA_AttNotification@@QAEXXZ
??_DProxyPushConsumer@POA_CosEventChannelAdmin@@QAEXXZ
??_DProxyPushConsumer@POA_CosNotifyChannelAdmin@@QAEXXZ
??_DProxyPushConsumer_i@@AAEXXZ
??_DProxyPushSupplier@POA_AttNotification@@QAEXXZ
??_DProxyPushSupplier@POA_CosEventChannelAdmin@@QAEXXZ
??_DProxyPushSupplier@POA_CosNotifyChannelAdmin@@QAEXXZ
??_DProxyPushSupplier_i@@AAEXXZ
??_DProxySupplier@POA_CosNotifyChannelAdmin@@QAEXXZ
??_DPullConsumer@POA_CosEventComm@@QAEXXZ
??_DPullConsumer@POA_CosNotifyComm@@QAEXXZ
??_DPullSupplier@POA_CosEventComm@@QAEXXZ
??_DPullSupplier@POA_CosNotifyComm@@QAEXXZ
??_DPushConsumer@POA_CosEventComm@@QAEXXZ
??_DPushConsumer@POA_CosNotifyComm@@QAEXXZ
??_DPushSupplier@POA_CosEventComm@@QAEXXZ
??_DPushSupplier@POA_CosNotifyComm@@QAEXXZ
??_DQoSAdmin@POA_CosNotification@@QAEXXZ
??_DRDINotifServer@@AAEXXZ
??_DSequenceProxyPullConsumer@POA_AttNotification@@QAEXXZ
??_DSequenceProxyPullConsumer@POA_CosNotifyChannelAdmin@@QAEXXZ
??_DSequenceProxyPullConsumer_i@@AAEXXZ
??_DSequenceProxyPullSupplier@POA_AttNotification@@QAEXXZ
??_DSequenceProxyPullSupplier@POA_CosNotifyChannelAdmin@@QAEXXZ
??_DSequenceProxyPullSupplier_i@@AAEXXZ
??_DSequenceProxyPushConsumer@POA_AttNotification@@QAEXXZ
??_DSequenceProxyPushConsumer@POA_CosNotifyChannelAdmin@@QAEXXZ
??_DSequenceProxyPushConsumer_i@@AAEXXZ
??_DSequenceProxyPushSupplier@POA_AttNotification@@QAEXXZ
??_DSequenceProxyPushSupplier@POA_CosNotifyChannelAdmin@@QAEXXZ
??_DSequenceProxyPushSupplier_i@@AAEXXZ
??_DSequencePullConsumer@POA_CosNotifyComm@@QAEXXZ
??_DSequencePullSupplier@POA_CosNotifyComm@@QAEXXZ
??_DSequencePushConsumer@POA_CosNotifyComm@@QAEXXZ
??_DSequencePushSupplier@POA_CosNotifyComm@@QAEXXZ
??_DServantBase@PortableServer@@QAEXXZ
??_DServer@POA_AttNotification@@QAEXXZ
??_DStructuredProxyPullConsumer@POA_AttNotification@@QAEXXZ
??_DStructuredProxyPullConsumer@POA_CosNotifyChannelAdmin@@QAEXXZ
??_DStructuredProxyPullConsumer_i@@AAEXXZ
??_DStructuredProxyPullSupplier@POA_AttNotification@@QAEXXZ
??_DStructuredProxyPullSupplier@POA_CosNotifyChannelAdmin@@QAEXXZ
??_DStructuredProxyPullSupplier_i@@AAEXXZ
??_DStructuredProxyPushConsumer@POA_AttNotification@@QAEXXZ
??_DStructuredProxyPushConsumer@POA_CosNotifyChannelAdmin@@QAEXXZ
??_DStructuredProxyPushConsumer_i@@AAEXXZ
??_DStructuredProxyPushSupplier@POA_AttNotification@@QAEXXZ
??_DStructuredProxyPushSupplier@POA_CosNotifyChannelAdmin@@QAEXXZ
??_DStructuredProxyPushSupplier_i@@AAEXXZ
??_DStructuredPullConsumer@POA_CosNotifyComm@@QAEXXZ
??_DStructuredPullSupplier@POA_CosNotifyComm@@QAEXXZ
??_DStructuredPushConsumer@POA_CosNotifyComm@@QAEXXZ
??_DStructuredPushSupplier@POA_CosNotifyComm@@QAEXXZ
??_DSupplierAdmin@POA_AttNotification@@QAEXXZ
??_DSupplierAdmin@POA_CosEventChannelAdmin@@QAEXXZ
??_DSupplierAdmin@POA_CosNotifyChannelAdmin@@QAEXXZ
??_DSupplierAdmin_i@@AAEXXZ
??_D_impl_AdminPropertiesAdmin@CosNotification@@QAEXXZ
??_D_impl_ConsumerAdmin@AttNotification@@QAEXXZ
??_D_impl_ConsumerAdmin@CosEventChannelAdmin@@QAEXXZ
??_D_impl_ConsumerAdmin@CosNotifyChannelAdmin@@QAEXXZ
??_D_impl_CosEvProxyPullConsumer@AttNotification@@QAEXXZ
??_D_impl_CosEvProxyPullSupplier@AttNotification@@QAEXXZ
??_D_impl_CosEvProxyPushConsumer@AttNotification@@QAEXXZ
??_D_impl_CosEvProxyPushSupplier@AttNotification@@QAEXXZ
??_D_impl_EventChannel@AttNotification@@QAEXXZ
??_D_impl_EventChannel@CosEventChannelAdmin@@QAEXXZ
??_D_impl_EventChannel@CosNotifyChannelAdmin@@QAEXXZ
??_D_impl_EventChannelFactory@AttNotification@@QAEXXZ
??_D_impl_EventChannelFactory@CosNotifyChannelAdmin@@QAEXXZ
??_D_impl_Filter@AttNotification@@QAEXXZ
??_D_impl_Filter@CosNotifyFilter@@QAEXXZ
??_D_impl_FilterAdmin@CosNotifyFilter@@QAEXXZ
??_D_impl_FilterFactory@AttNotification@@QAEXXZ
??_D_impl_FilterFactory@CosNotifyFilter@@QAEXXZ
??_D_impl_Interactive@AttNotification@@QAEXXZ
??_D_impl_MappingFilter@AttNotification@@QAEXXZ
??_D_impl_MappingFilter@CosNotifyFilter@@QAEXXZ
??_D_impl_NotifyPublish@CosNotifyComm@@QAEXXZ
??_D_impl_NotifySubscribe@CosNotifyComm@@QAEXXZ
??_D_impl_ProxyConsumer@CosNotifyChannelAdmin@@QAEXXZ
??_D_impl_ProxyPullConsumer@AttNotification@@QAEXXZ
??_D_impl_ProxyPullConsumer@CosEventChannelAdmin@@QAEXXZ
??_D_impl_ProxyPullConsumer@CosNotifyChannelAdmin@@QAEXXZ
??_D_impl_ProxyPullSupplier@AttNotification@@QAEXXZ
??_D_impl_ProxyPullSupplier@CosEventChannelAdmin@@QAEXXZ
??_D_impl_ProxyPullSupplier@CosNotifyChannelAdmin@@QAEXXZ
??_D_impl_ProxyPushConsumer@AttNotification@@QAEXXZ
??_D_impl_ProxyPushConsumer@CosEventChannelAdmin@@QAEXXZ
??_D_impl_ProxyPushConsumer@CosNotifyChannelAdmin@@QAEXXZ
??_D_impl_ProxyPushSupplier@AttNotification@@QAEXXZ
??_D_impl_ProxyPushSupplier@CosEventChannelAdmin@@QAEXXZ
??_D_impl_ProxyPushSupplier@CosNotifyChannelAdmin@@QAEXXZ
??_D_impl_ProxySupplier@CosNotifyChannelAdmin@@QAEXXZ
??_D_impl_PullConsumer@CosEventComm@@QAEXXZ
??_D_impl_PullConsumer@CosNotifyComm@@QAEXXZ
??_D_impl_PullSupplier@CosEventComm@@QAEXXZ
??_D_impl_PullSupplier@CosNotifyComm@@QAEXXZ
??_D_impl_PushConsumer@CosEventComm@@QAEXXZ
??_D_impl_PushConsumer@CosNotifyComm@@QAEXXZ
??_D_impl_PushSupplier@CosEventComm@@QAEXXZ
??_D_impl_PushSupplier@CosNotifyComm@@QAEXXZ
??_D_impl_QoSAdmin@CosNotification@@QAEXXZ
??_D_impl_SequenceProxyPullConsumer@AttNotification@@QAEXXZ
??_D_impl_SequenceProxyPullConsumer@CosNotifyChannelAdmin@@QAEXXZ
??_D_impl_SequenceProxyPullSupplier@AttNotification@@QAEXXZ
??_D_impl_SequenceProxyPullSupplier@CosNotifyChannelAdmin@@QAEXXZ
??_D_impl_SequenceProxyPushConsumer@AttNotification@@QAEXXZ
??_D_impl_SequenceProxyPushConsumer@CosNotifyChannelAdmin@@QAEXXZ
??_D_impl_SequenceProxyPushSupplier@AttNotification@@QAEXXZ
??_D_impl_SequenceProxyPushSupplier@CosNotifyChannelAdmin@@QAEXXZ
??_D_impl_SequencePullConsumer@CosNotifyComm@@QAEXXZ
??_D_impl_SequencePullSupplier@CosNotifyComm@@QAEXXZ
??_D_impl_SequencePushConsumer@CosNotifyComm@@QAEXXZ
??_D_impl_SequencePushSupplier@CosNotifyComm@@QAEXXZ
??_D_impl_Server@AttNotification@@QAEXXZ
??_D_impl_StructuredProxyPullConsumer@AttNotification@@QAEXXZ
??_D_impl_StructuredProxyPullConsumer@CosNotifyChannelAdmin@@QAEXXZ
??_D_impl_StructuredProxyPullSupplier@AttNotification@@QAEXXZ
??_D_impl_StructuredProxyPullSupplier@CosNotifyChannelAdmin@@QAEXXZ
??_D_impl_StructuredProxyPushConsumer@AttNotification@@QAEXXZ
??_D_impl_StructuredProxyPushConsumer@CosNotifyChannelAdmin@@QAEXXZ
??_D_impl_StructuredProxyPushSupplier@AttNotification@@QAEXXZ
??_D_impl_StructuredProxyPushSupplier@CosNotifyChannelAdmin@@QAEXXZ
??_D_impl_StructuredPullConsumer@CosNotifyComm@@QAEXXZ
??_D_impl_StructuredPullSupplier@CosNotifyComm@@QAEXXZ
??_D_impl_StructuredPushConsumer@CosNotifyComm@@QAEXXZ
??_D_impl_StructuredPushSupplier@CosNotifyComm@@QAEXXZ
??_D_impl_SupplierAdmin@AttNotification@@QAEXXZ
??_D_impl_SupplierAdmin@CosEventChannelAdmin@@QAEXXZ
??_D_impl_SupplierAdmin@CosNotifyChannelAdmin@@QAEXXZ
??_FProxyDispatch_t@EventChannel_i@@QAEXXZ
??_FRDI_Op@@QAEXXZ
??_H@YGXPAXIHP6EPAX0@Z@Z
?AddDbgFlags@RDI@@SAXI@Z
?AddRptFlags@RDI@@SAXI@Z
?CleanupAll@RDI@@SAXXZ
?CloseDbgFile@RDI@@SAXXZ
?CloseRptFile@RDI@@SAXXZ
?ClrDbgFlags@RDI@@SAXXZ
?ClrRptFlags@RDI@@SAXXZ
?DbgFile@RDI@@SAPAU_iobuf@@XZ
?DbgFlags@RDI@@SAIXZ
?DupCosEvent@RDI_StructuredEvent@@SAXAAUStructuredEvent@CosNotification@@ABU23@@Z
?Filter2Filter_i@Filter_i@@SAPAV1@PAV_objref_Filter@CosNotifyFilter@@@Z
?GenAnd@RDI_Constraint@@SAXPAVRDI_PCState@@PAV1@@Z
?GenArith@RDI_Constraint@@SAXPAVRDI_PCState@@PAV1@@Z
?GenCachedChain@RDI_Constraint@@SAXPAVRDI_PCState@@PAV1@@Z
?GenCachedOp1@RDI_Constraint@@SAXPAVRDI_PCState@@PAV1@@Z
?GenCompEnd@RDI_Constraint@@SAXPAVRDI_PCState@@PAV1@@Z
?GenCompare@RDI_Constraint@@SAXPAVRDI_PCState@@PAV1@@Z
?GenDefault@RDI_Constraint@@SAXPAVRDI_PCState@@PAV1@@Z
?GenExist@RDI_Constraint@@SAXPAVRDI_PCState@@PAV1@@Z
?GenIN@RDI_Constraint@@SAXPAVRDI_PCState@@PAV1@@Z
?GenNot@RDI_Constraint@@SAXPAVRDI_PCState@@PAV1@@Z
?GenOr@RDI_Constraint@@SAXPAVRDI_PCState@@PAV1@@Z
?GenRuntimeError@RDI_Constraint@@SAXPAVRDI_PCState@@PAV1@@Z
?GenSubStr@RDI_Constraint@@SAXPAVRDI_PCState@@PAV1@@Z
?L_my_name@ConsumerAdmin_i@@QAEABVNameSeq@AttNotification@@XZ
?L_my_name@EventChannelFactory_i@@QAEABVNameSeq@AttNotification@@XZ
?L_my_name@EventChannel_i@@QAEABVNameSeq@AttNotification@@XZ
?L_my_name@FilterFactory_i@@QAEABVNameSeq@AttNotification@@XZ
?L_my_name@SupplierAdmin_i@@QAEABVNameSeq@AttNotification@@XZ
?L_wait_for_destroy@RDINotifServer@@QAEXXZ
?LexerError@yyFlexLexer@@MAEXPBD@Z
?LexerInput@yyFlexLexer@@MAEHPADH@Z
?LexerOutput@yyFlexLexer@@MAEXPBDH@Z
?MaxTimeBaseTimeT@RDI_TimeT@@SA_KXZ
?MaxTimeBaseUtcT@RDI_UtcT@@SA?AUUtcT@TimeBase@@XZ
?MinTimeBaseTimeT@RDI_TimeT@@SA_KXZ
?MinTimeBaseUtcT@RDI_UtcT@@SA?AUUtcT@TimeBase@@XZ
?MyAdmin@ProxyPullConsumer_i@@$4PPPPPPPM@A@AEPAV_objref_SupplierAdmin@CosNotifyChannelAdmin@@XZ
?MyAdmin@ProxyPullConsumer_i@@UAEPAV_objref_SupplierAdmin@CosNotifyChannelAdmin@@XZ
?MyAdmin@ProxyPullSupplier_i@@$4PPPPPPPM@A@AEPAV_objref_ConsumerAdmin@CosNotifyChannelAdmin@@XZ
?MyAdmin@ProxyPullSupplier_i@@UAEPAV_objref_ConsumerAdmin@CosNotifyChannelAdmin@@XZ
?MyAdmin@ProxyPushConsumer_i@@$4PPPPPPPM@A@AEPAV_objref_SupplierAdmin@CosNotifyChannelAdmin@@XZ
?MyAdmin@ProxyPushConsumer_i@@UAEPAV_objref_SupplierAdmin@CosNotifyChannelAdmin@@XZ
?MyAdmin@ProxyPushSupplier_i@@$4PPPPPPPM@A@AEPAV_objref_ConsumerAdmin@CosNotifyChannelAdmin@@XZ
?MyAdmin@ProxyPushSupplier_i@@UAEPAV_objref_ConsumerAdmin@CosNotifyChannelAdmin@@XZ
?MyAdmin@RDIProxyConsumer@@QAEPAV_objref_SupplierAdmin@CosNotifyChannelAdmin@@XZ
?MyAdmin@RDIProxySupplier@@QAEPAV_objref_ConsumerAdmin@CosNotifyChannelAdmin@@XZ
?MyAdmin@SequenceProxyPullConsumer_i@@$4PPPPPPPM@A@AEPAV_objref_SupplierAdmin@CosNotifyChannelAdmin@@XZ
?MyAdmin@SequenceProxyPullConsumer_i@@UAEPAV_objref_SupplierAdmin@CosNotifyChannelAdmin@@XZ
?MyAdmin@SequenceProxyPullSupplier_i@@$4PPPPPPPM@A@AEPAV_objref_ConsumerAdmin@CosNotifyChannelAdmin@@XZ
?MyAdmin@SequenceProxyPullSupplier_i@@UAEPAV_objref_ConsumerAdmin@CosNotifyChannelAdmin@@XZ
?MyAdmin@SequenceProxyPushConsumer_i@@$4PPPPPPPM@A@AEPAV_objref_SupplierAdmin@CosNotifyChannelAdmin@@XZ
?MyAdmin@SequenceProxyPushConsumer_i@@UAEPAV_objref_SupplierAdmin@CosNotifyChannelAdmin@@XZ
?MyAdmin@SequenceProxyPushSupplier_i@@$4PPPPPPPM@A@AEPAV_objref_ConsumerAdmin@CosNotifyChannelAdmin@@XZ
?MyAdmin@SequenceProxyPushSupplier_i@@UAEPAV_objref_ConsumerAdmin@CosNotifyChannelAdmin@@XZ
?MyAdmin@StructuredProxyPullConsumer_i@@$4PPPPPPPM@A@AEPAV_objref_SupplierAdmin@CosNotifyChannelAdmin@@XZ
?MyAdmin@StructuredProxyPullConsumer_i@@UAEPAV_objref_SupplierAdmin@CosNotifyChannelAdmin@@XZ
?MyAdmin@StructuredProxyPullSupplier_i@@$4PPPPPPPM@A@AEPAV_objref_ConsumerAdmin@CosNotifyChannelAdmin@@XZ
?MyAdmin@StructuredProxyPullSupplier_i@@UAEPAV_objref_ConsumerAdmin@CosNotifyChannelAdmin@@XZ
?MyAdmin@StructuredProxyPushConsumer_i@@$4PPPPPPPM@A@AEPAV_objref_SupplierAdmin@CosNotifyChannelAdmin@@XZ
?MyAdmin@StructuredProxyPushConsumer_i@@UAEPAV_objref_SupplierAdmin@CosNotifyChannelAdmin@@XZ
?MyAdmin@StructuredProxyPushSupplier_i@@$4PPPPPPPM@A@AEPAV_objref_ConsumerAdmin@CosNotifyChannelAdmin@@XZ
?MyAdmin@StructuredProxyPushSupplier_i@@UAEPAV_objref_ConsumerAdmin@CosNotifyChannelAdmin@@XZ
?MyChannel@ConsumerAdmin_i@@$4PPPPPPPM@A@AEPAV_objref_EventChannel@CosNotifyChannelAdmin@@XZ
?MyChannel@ConsumerAdmin_i@@UAEPAV_objref_EventChannel@CosNotifyChannelAdmin@@XZ
?MyChannel@SupplierAdmin_i@@$4PPPPPPPM@A@AEPAV_objref_EventChannel@CosNotifyChannelAdmin@@XZ
?MyChannel@SupplierAdmin_i@@UAEPAV_objref_EventChannel@CosNotifyChannelAdmin@@XZ
?MyFID@Filter_i@@$4PPPPPPPM@A@AEJXZ
?MyFID@Filter_i@@UAEJXZ
?MyFactory@EventChannel_i@@$4PPPPPPPM@A@AEPAV_objref_EventChannelFactory@CosNotifyChannelAdmin@@XZ
?MyFactory@EventChannel_i@@UAEPAV_objref_EventChannelFactory@CosNotifyChannelAdmin@@XZ
?MyID@ConsumerAdmin_i@@$4PPPPPPPM@A@AEJXZ
?MyID@ConsumerAdmin_i@@UAEJXZ
?MyID@EventChannel_i@@QAEJXZ
?MyID@RDIProxyConsumer@@QAEJXZ
?MyID@RDIProxySupplier@@QAEJXZ
?MyID@SupplierAdmin_i@@$4PPPPPPPM@A@AEJXZ
?MyID@SupplierAdmin_i@@UAEJXZ
?MyOperator@ConsumerAdmin_i@@$4PPPPPPPM@A@AE?AW4InterFilterGroupOperator@CosNotifyChannelAdmin@@XZ
?MyOperator@ConsumerAdmin_i@@UAE?AW4InterFilterGroupOperator@CosNotifyChannelAdmin@@XZ
?MyOperator@SupplierAdmin_i@@$4PPPPPPPM@A@AE?AW4InterFilterGroupOperator@CosNotifyChannelAdmin@@XZ
?MyOperator@SupplierAdmin_i@@UAE?AW4InterFilterGroupOperator@CosNotifyChannelAdmin@@XZ
?MyType@ProxyPullConsumer_i@@$4PPPPPPPM@A@AE?AW4ProxyType@CosNotifyChannelAdmin@@XZ
?MyType@ProxyPullConsumer_i@@UAE?AW4ProxyType@CosNotifyChannelAdmin@@XZ
?MyType@ProxyPullSupplier_i@@$4PPPPPPPM@A@AE?AW4ProxyType@CosNotifyChannelAdmin@@XZ
?MyType@ProxyPullSupplier_i@@UAE?AW4ProxyType@CosNotifyChannelAdmin@@XZ
?MyType@ProxyPushConsumer_i@@$4PPPPPPPM@A@AE?AW4ProxyType@CosNotifyChannelAdmin@@XZ
?MyType@ProxyPushConsumer_i@@UAE?AW4ProxyType@CosNotifyChannelAdmin@@XZ
?MyType@ProxyPushSupplier_i@@$4PPPPPPPM@A@AE?AW4ProxyType@CosNotifyChannelAdmin@@XZ
?MyType@ProxyPushSupplier_i@@UAE?AW4ProxyType@CosNotifyChannelAdmin@@XZ
?MyType@RDIProxyConsumer@@QAE?AW4ProxyType@CosNotifyChannelAdmin@@XZ
?MyType@RDIProxySupplier@@QAE?AW4ProxyType@CosNotifyChannelAdmin@@XZ
?MyType@SequenceProxyPullConsumer_i@@$4PPPPPPPM@A@AE?AW4ProxyType@CosNotifyChannelAdmin@@XZ
?MyType@SequenceProxyPullConsumer_i@@UAE?AW4ProxyType@CosNotifyChannelAdmin@@XZ
?MyType@SequenceProxyPullSupplier_i@@$4PPPPPPPM@A@AE?AW4ProxyType@CosNotifyChannelAdmin@@XZ
?MyType@SequenceProxyPullSupplier_i@@UAE?AW4ProxyType@CosNotifyChannelAdmin@@XZ
?MyType@SequenceProxyPushConsumer_i@@$4PPPPPPPM@A@AE?AW4ProxyType@CosNotifyChannelAdmin@@XZ
?MyType@SequenceProxyPushConsumer_i@@UAE?AW4ProxyType@CosNotifyChannelAdmin@@XZ
?MyType@SequenceProxyPushSupplier_i@@$4PPPPPPPM@A@AE?AW4ProxyType@CosNotifyChannelAdmin@@XZ
?MyType@SequenceProxyPushSupplier_i@@UAE?AW4ProxyType@CosNotifyChannelAdmin@@XZ
?MyType@StructuredProxyPullConsumer_i@@$4PPPPPPPM@A@AE?AW4ProxyType@CosNotifyChannelAdmin@@XZ
?MyType@StructuredProxyPullConsumer_i@@UAE?AW4ProxyType@CosNotifyChannelAdmin@@XZ
?MyType@StructuredProxyPullSupplier_i@@$4PPPPPPPM@A@AE?AW4ProxyType@CosNotifyChannelAdmin@@XZ
?MyType@StructuredProxyPullSupplier_i@@UAE?AW4ProxyType@CosNotifyChannelAdmin@@XZ
?MyType@StructuredProxyPushConsumer_i@@$4PPPPPPPM@A@AE?AW4ProxyType@CosNotifyChannelAdmin@@XZ
?MyType@StructuredProxyPushConsumer_i@@UAE?AW4ProxyType@CosNotifyChannelAdmin@@XZ
?MyType@StructuredProxyPushSupplier_i@@$4PPPPPPPM@A@AE?AW4ProxyType@CosNotifyChannelAdmin@@XZ
?MyType@StructuredProxyPushSupplier_i@@UAE?AW4ProxyType@CosNotifyChannelAdmin@@XZ
?NewAnd@RDI_Constraint@@SAPAV1@PAVRDI_PCState@@PAV1@1@Z
?NewArith@RDI_Constraint@@SAPAV1@PAVRDI_PCState@@W4RDI_ArithOp@@PAV1@2@Z
?NewBoolConst@RDI_Constraint@@SAPAV1@PAVRDI_PCState@@_N@Z
?NewComp@RDI_Constraint@@SAPAV1@PAVRDI_PCState@@PAD@Z
?NewCompEnd@RDI_Constraint@@SAPAV1@PAVRDI_PCState@@PAV1@@Z
?NewCompare@RDI_Constraint@@SAPAV1@PAVRDI_PCState@@W4RDI_CompareOp@@PAV1@2@Z
?NewDConst@RDI_Constraint@@SAPAV1@PAVRDI_PCState@@PAD@Z
?NewDefault@RDI_Constraint@@SAPAV1@PAVRDI_PCState@@PAV1@@Z
?NewExist@RDI_Constraint@@SAPAV1@PAVRDI_PCState@@PAV1@@Z
?NewIdent@RDI_Constraint@@SAPAV1@PAVRDI_PCState@@PAD@Z
?NewIn@RDI_Constraint@@SAPAV1@PAVRDI_PCState@@PAV1@1@Z
?NewLConst@RDI_Constraint@@SAPAV1@PAVRDI_PCState@@PAD@Z
?NewNot@RDI_Constraint@@SAPAV1@PAVRDI_PCState@@PAV1@@Z
?NewOr@RDI_Constraint@@SAPAV1@PAVRDI_PCState@@PAV1@1@Z
?NewRuntimeError@RDI_Constraint@@SAPAV1@PAVRDI_PCState@@W4RDI_RTRetCode@@@Z
?NewSConst@RDI_Constraint@@SAPAV1@PAVRDI_PCState@@PAD@Z
?NewSubStr@RDI_Constraint@@SAPAV1@PAVRDI_PCState@@PAV1@1@Z
?NumProxies@ConsumerAdmin_i@@QBEKXZ
?OpenDbgFile@RDI@@SAHPBD@Z
?OpenRptFile@RDI@@SAHPBD@Z
?RDIParseId@@YAJPBDPAD@Z
?RDI_AProp0_name@@3PBDB
?RDI_AProp0_supmsg@@3PBDB
?RDI_AProp1_name@@3PBDB
?RDI_AProp1_supmsg@@3PBDB
?RDI_AProp2_name@@3PBDB
?RDI_AProp2_supmsg@@3PBDB
?RDI_AProp3_name@@3PBDB
?RDI_AProp3_supmsg@@3PBDB
?RDI_BUILD_STRING@@YAPADPBD0000000@Z
?RDI_BUILD_STRING@@YAPADPBD@Z
?RDI_ERT2string@@3PAPBDA
?RDI_NProp0_name@@3PBDB
?RDI_NProp0_supmsg@@3PBDB
?RDI_NProp10_name@@3PBDB
?RDI_NProp10_supmsg@@3PBDB
?RDI_NProp11_name@@3PBDB
?RDI_NProp11_supmsg@@3PBDB
?RDI_NProp12_name@@3PBDB
?RDI_NProp12_supmsg@@3PBDB
?RDI_NProp1_name@@3PBDB
?RDI_NProp1_supmsg@@3PBDB
?RDI_NProp2_name@@3PBDB
?RDI_NProp2_supmsg@@3PBDB
?RDI_NProp3_name@@3PBDB
?RDI_NProp3_supmsg@@3PBDB
?RDI_NProp4_name@@3PBDB
?RDI_NProp4_supmsg@@3PBDB
?RDI_NProp5_name@@3PBDB
?RDI_NProp5_supmsg@@3PBDB
?RDI_NProp6_name@@3PBDB
?RDI_NProp6_supmsg@@3PBDB
?RDI_NProp7_name@@3PBDB
?RDI_NProp7_supmsg@@3PBDB
?RDI_NProp8_name@@3PBDB
?RDI_NProp8_supmsg@@3PBDB
?RDI_NProp9_name@@3PBDB
?RDI_NProp9_supmsg@@3PBDB
?RDI_Op2ArgT@@3QBW4RDI_OpArgT@@B
?RDI_Op2StackEffect@@3QBW4RDI_StackEffect@@B
?RDI_Op2StackPre@@3QBW4RDI_StackPre@@B
?RDI_OpArgT2string@@3PAPBDA
?RDI_OpCode2string@@3PAPBDA
?RDI_PRX_TYPE@@YAPBDABW4ProxyType@CosNotifyChannelAdmin@@@Z
?RDI_RTRetCode2string@@3PAPBDA
?RDI_RTValKind2string@@3PAPBDA
?RDI_RangeTest_TimeT_impl@@YA_NABVAny@CORBA@@AB_K1@Z
?RDI_RangeTest_UtcT_impl@@YA_NABVAny@CORBA@@ABUUtcT@TimeBase@@1@Z
?RDI_RangeTest_bool_impl@@YA_NABVAny@CORBA@@_N1@Z
?RDI_RangeTest_long_impl@@YA_NABVAny@CORBA@@JJ@Z
?RDI_RangeTest_short_impl@@YA_NABVAny@CORBA@@FF@Z
?RDI_SLongHash@@YAIPBX@Z
?RDI_SLongRank@@YAHPBX0@Z
?RDI_SProp0_name@@3PBDB
?RDI_SProp0_supmsg@@3PBDB
?RDI_SProp10_name@@3PBDB
?RDI_SProp10_supmsg@@3PBDB
?RDI_SProp11_name@@3PBDB
?RDI_SProp11_supmsg@@3PBDB
?RDI_SProp12_name@@3PBDB
?RDI_SProp12_supmsg@@3PBDB
?RDI_SProp13_name@@3PBDB
?RDI_SProp13_supmsg@@3PBDB
?RDI_SProp14_name@@3PBDB
?RDI_SProp14_supmsg@@3PBDB
?RDI_SProp15_name@@3PBDB
?RDI_SProp15_supmsg@@3PBDB
?RDI_SProp16_name@@3PBDB
?RDI_SProp16_supmsg@@3PBDB
?RDI_SProp17_name@@3PBDB
?RDI_SProp17_supmsg@@3PBDB
?RDI_SProp18_name@@3PBDB
?RDI_SProp18_supmsg@@3PBDB
?RDI_SProp19_name@@3PBDB
?RDI_SProp19_supmsg@@3PBDB
?RDI_SProp1_name@@3PBDB
?RDI_SProp1_supmsg@@3PBDB
?RDI_SProp20_name@@3PBDB
?RDI_SProp20_supmsg@@3PBDB
?RDI_SProp2_name@@3PBDB
?RDI_SProp2_supmsg@@3PBDB
?RDI_SProp3_name@@3PBDB
?RDI_SProp3_supmsg@@3PBDB
?RDI_SProp4_name@@3PBDB
?RDI_SProp4_supmsg@@3PBDB
?RDI_SProp5_name@@3PBDB
?RDI_SProp5_supmsg@@3PBDB
?RDI_SProp6_name@@3PBDB
?RDI_SProp6_supmsg@@3PBDB
?RDI_SProp7_name@@3PBDB
?RDI_SProp7_supmsg@@3PBDB
?RDI_SProp8_name@@3PBDB
?RDI_SProp8_supmsg@@3PBDB
?RDI_SProp9_name@@3PBDB
?RDI_SProp9_supmsg@@3PBDB
?RDI_STRTOD@@YANPBDPAPAD@Z
?RDI_STRTOL@@YAJPBDPAPAD@Z
?RDI_STRTOUL@@YAKPBDPAPAD@Z
?RDI_STRTOULL@@YA_JPBDPAPAD@Z
?RDI_SetRange_TimeT_impl@@YAXAAUPropertyRange@CosNotification@@AB_K1@Z
?RDI_SetRange_UtcT_impl@@YAXAAUPropertyRange@CosNotification@@ABUUtcT@TimeBase@@1@Z
?RDI_SetRange_bool_impl@@YAXAAUPropertyRange@CosNotification@@_N1@Z
?RDI_SetRange_long_impl@@YAXAAUPropertyRange@CosNotification@@JJ@Z
?RDI_SetRange_short_impl@@YAXAAUPropertyRange@CosNotification@@FF@Z
?RDI_StrHash@@YAIPBX@Z
?RDI_StrRank@@YAHPBX0@Z
?RDI_TBTimeT_GT@@YA_NAB_K0@Z
?RDI_TBTimeT_LT@@YA_NAB_K0@Z
?RDI_TBUtcT_GT@@YA_NABUUtcT@TimeBase@@0@Z
?RDI_TBUtcT_LT@@YA_NABUUtcT@TimeBase@@0@Z
?RDI_ULongHash@@YAIPBX@Z
?RDI_ULongRank@@YAHPBX0@Z
?RDI_UnavPropTest_false@@YA_NABVRDI_NotifQoS@@@Z
?RDI_UnavPropTest_startTimeNotSupported@@YA_NABVRDI_NotifQoS@@@Z
?RDI_UnavPropTest_stopTimeNotSupported@@YA_NABVRDI_NotifQoS@@@Z
?RDI_UnsupPropTest_Message@@YA_NW4RDI_ObjectKind@@@Z
?RDI_UnsupPropTest_NotChannelNotMessage@@YA_NW4RDI_ObjectKind@@@Z
?RDI_UnsupPropTest_NotMessage@@YA_NW4RDI_ObjectKind@@@Z
?RDI_UnsupPropTest_false@@YA_NW4RDI_ObjectKind@@@Z
?RDI_VoidStarHash@@YAIPBX@Z
?RDI_VoidStarRank@@YAHPBX0@Z
?RDI_WKP2string@@3PAPBDA
?RDI_describe_avail_range@@YAXAAVRDIstrstream@@ABUPropertyRange@CosNotification@@@Z
?RDI_describe_prop_errors@@YAXAAVRDIstrstream@@ABVPropertyErrorSeq@CosNotification@@@Z
?RDI_posixbase_out_time@@YAXAAVRDIstrstream@@KK@Z
?RDI_pp_any@@YAXAAVRDIstrstream@@ABVAny@CORBA@@@Z
?RDI_rm_arg@@YAXAAHPAPAD0@Z
?RemDbgFlags@RDI@@SAXI@Z
?RemRptFlags@RDI@@SAXI@Z
?RptFile@RDI@@SAPAU_iobuf@@XZ
?RptFlags@RDI@@SAIXZ
?TW_ID@@YAKXZ
?YYText@FlexLexer@@QAEPBDXZ
?_DbgFile@RDI@@0PAU_iobuf@@A
?_DbgFlags@RDI@@0KA
?_DbgInterval_n@RDI@@0KA
?_DbgInterval_s@RDI@@0KA
?_NP_is_nil@Object@CORBA@@QBE_NXZ
?_NP_is_pseudo@Object@CORBA@@QBE_NXZ
?_PR_getobj@Object@CORBA@@QAEPAVomniObjRef@@XZ
?_PR_is_valid@Object@CORBA@@SA_NPAV12@@Z
?_RptFile@RDI@@0PAU_iobuf@@A
?_RptFlags@RDI@@0KA
?_RptInterval_n@RDI@@0KA
?_RptInterval_s@RDI@@0KA
?_Server@RDI@@0V?$_CORBA_ObjRef_Var@V_objref_Server@AttNotification@@VServer_Helper@2@@@A
?_Server_i@RDI@@0PAVRDINotifServer@@A
?_add_ev_type@Filter_i@@AAEXAAVEventTypeSeq@CosNotification@@ABVRDI_EventType@@@Z
?_add_event@RDIProxySupplier@@IAE_NPAVRDI_StructuredEvent@@@Z
?_add_ref@ServantBase@PortableServer@@$4PPPPPPPM@A@AEXXZ
?_add_ref@ServantBase@PortableServer@@$R47BA@PPPPPPPM@BA@AEXXZ
?_add_ref@ServantBase@PortableServer@@$R47BE@PPPPPPPM@BA@AEXXZ
?_add_ref@ServantBase@PortableServer@@$R47BI@PPPPPPPM@BA@AEXXZ
?_add_ref@ServantBase@PortableServer@@$R47BM@PPPPPPPM@BA@AEXXZ
?_add_ref@ServantBase@PortableServer@@$R47CA@PPPPPPPM@BA@AEXXZ
?_add_ref@ServantBase@PortableServer@@$R47CE@PPPPPPPM@BA@AEXXZ
?_add_ref@ServantBase@PortableServer@@$R47CI@PPPPPPPM@BA@AEXXZ
?_add_ref@ServantBase@PortableServer@@$R47CM@PPPPPPPM@BA@AEXXZ
?_add_ref@ServantBase@PortableServer@@$R47M@PPPPPPPM@BA@AEXXZ
?_add_ref@ServantBase@PortableServer@@$R4BAM@BE@PPPPPPPM@BA@AEXXZ
?_add_ref@ServantBase@PortableServer@@$R4BNI@CE@PPPPPPPM@BA@AEXXZ
?_add_ref@ServantBase@PortableServer@@$R4BPA@CE@PPPPPPPM@BA@AEXXZ
?_add_ref@ServantBase@PortableServer@@$R4CBM@CA@PPPPPPPM@BA@AEXXZ
?_add_ref@ServantBase@PortableServer@@$R4DI@BE@PPPPPPPM@BA@AEXXZ
?_add_ref@ServantBase@PortableServer@@$R4DM@BI@PPPPPPPM@BA@AEXXZ
?_add_ref@ServantBase@PortableServer@@$R4EE@BE@PPPPPPPM@BA@AEXXZ
?_add_ref@ServantBase@PortableServer@@$R4FE@BI@PPPPPPPM@BA@AEXXZ
?_add_ref@ServantBase@PortableServer@@$R4FM@BI@PPPPPPPM@BA@AEXXZ
?_add_ref@ServantBase@PortableServer@@$R4GA@BA@PPPPPPPM@BA@AEXXZ
?_add_ref@ServantBase@PortableServer@@$R4GM@BI@PPPPPPPM@BA@AEXXZ
?_add_ref@ServantBase@PortableServer@@$R4LM@BM@PPPPPPPM@BA@AEXXZ
?_add_ref@ServantBase@PortableServer@@$R4ME@CI@PPPPPPPM@BA@AEXXZ
?_add_ref@ServantBase@PortableServer@@$R4ME@CM@PPPPPPPM@BA@AEXXZ
?_add_ref@ServantBase@PortableServer@@$R4MM@CI@PPPPPPPM@BA@AEXXZ
?_add_ref@ServantBase@PortableServer@@$R4MM@CM@PPPPPPPM@BA@AEXXZ
?_add_ref@ServantBase@PortableServer@@$R4NE@CI@PPPPPPPM@BA@AEXXZ
?_add_ref@ServantBase@PortableServer@@$R4NM@CI@PPPPPPPM@BA@AEXXZ
?_add_ref@ServantBase@PortableServer@@$R4NM@CM@PPPPPPPM@BA@AEXXZ
?_admin_id@ConsumerAdmin_i@@QAEJXZ
?_admin_id@SupplierAdmin_i@@QAEJXZ
?_admin_operator@ConsumerAdmin_i@@QAE?AW4InterFilterGroupOperator@CosNotifyChannelAdmin@@XZ
?_admin_operator@SupplierAdmin_i@@QAE?AW4InterFilterGroupOperator@CosNotifyChannelAdmin@@XZ
?_append@RDIOplockEntry@@AAEXPAV1@@Z
?_append_rightmost@RDI_Constraint@@AAEXPAV1@@Z
?_assert_not_endpart@RDI_Constraint@@AAEXPAVRDI_PCState@@@Z
?_children@ConsumerAdmin_i@@AAEXAAVIactSeq@AttNotification@@_N@Z
?_children@EventChannelFactory_i@@AAEXAAVIactSeq@AttNotification@@_N@Z
?_children@EventChannel_i@@AAEXAAVIactSeq@AttNotification@@_N@Z
?_children@SupplierAdmin_i@@AAEXAAVIactSeq@AttNotification@@_N@Z
?_class_keymap@Filter_i@@0PAV?$RDI_Hash@JPAVFilter_i@@@@A
?_classctr@Filter_i@@0JA
?_classctr@MappingFilter_i@@2JA
?_classlock@Filter_i@@0Vomni_mutex@@A
?_classlock@MappingFilter_i@@2Vomni_mutex@@A
?_clear_cnfqueue@EventProxyPullSupplier_i@@AAEXXZ
?_clear_cnfqueue@EventProxyPushSupplier_i@@AAEXXZ
?_clear_ntfqueue@RDIProxySupplier@@IAEXXZ
?_clear_stack@RDI_RVM@@AAEXXZ
?_cls_lock@RDI_RVM@@0Vomni_mutex@@A
?_create_channel@EventChannelFactory_i@@QAEPAVEventChannel_i@@AAJ@Z
?_dbg_ptrs@RDIOplocks@@0V?$RDI_Hash@PAVRDIOplockEntry@@H@@A
?_del_rightmost@RDI_Constraint@@AAEXXZ
?_destroy@RDINotifServer@@AAEXXZ
?_disable_updates@RDIProxyConsumer@@QAEXXZ
?_disable_updates@RDIProxySupplier@@QAEXXZ
?_disconnect_client_and_dispose@EventProxyPullConsumer_i@@AAEXAAURDI_LocksHeld_s@@_NAAPAVObjectId@PortableServer@@@Z
?_disconnect_client_and_dispose@EventProxyPullSupplier_i@@AAEXAAURDI_LocksHeld_s@@_NAAPAVObjectId@PortableServer@@@Z
?_disconnect_client_and_dispose@EventProxyPushConsumer_i@@AAEXAAURDI_LocksHeld_s@@_NAAPAVObjectId@PortableServer@@@Z
?_disconnect_client_and_dispose@EventProxyPushSupplier_i@@AAEXAAURDI_LocksHeld_s@@_NAAPAVObjectId@PortableServer@@@Z
?_disconnect_client_and_dispose@ProxyPullConsumer_i@@$0PPPPPPPM@A@AEXAAURDI_LocksHeld_s@@_NAAPAVObjectId@PortableServer@@@Z
?_disconnect_client_and_dispose@ProxyPullConsumer_i@@EAEXAAURDI_LocksHeld_s@@_NAAPAVObjectId@PortableServer@@@Z
?_disconnect_client_and_dispose@ProxyPullSupplier_i@@$0PPPPPPPM@A@AEXAAURDI_LocksHeld_s@@_NAAPAVObjectId@PortableServer@@@Z
?_disconnect_client_and_dispose@ProxyPullSupplier_i@@EAEXAAURDI_LocksHeld_s@@_NAAPAVObjectId@PortableServer@@@Z
?_disconnect_client_and_dispose@ProxyPushConsumer_i@@$0PPPPPPPM@A@AEXAAURDI_LocksHeld_s@@_NAAPAVObjectId@PortableServer@@@Z
?_disconnect_client_and_dispose@ProxyPushConsumer_i@@EAEXAAURDI_LocksHeld_s@@_NAAPAVObjectId@PortableServer@@@Z
?_disconnect_client_and_dispose@ProxyPushSupplier_i@@$0PPPPPPPM@A@AEXAAURDI_LocksHeld_s@@_NAAPAVObjectId@PortableServer@@@Z
?_disconnect_client_and_dispose@ProxyPushSupplier_i@@EAEXAAURDI_LocksHeld_s@@_NAAPAVObjectId@PortableServer@@@Z
?_disconnect_client_and_dispose@SequenceProxyPullConsumer_i@@$0PPPPPPPM@A@AEXAAURDI_LocksHeld_s@@_NAAPAVObjectId@PortableServer@@@Z
?_disconnect_client_and_dispose@SequenceProxyPullConsumer_i@@EAEXAAURDI_LocksHeld_s@@_NAAPAVObjectId@PortableServer@@@Z
?_disconnect_client_and_dispose@SequenceProxyPullSupplier_i@@$0PPPPPPPM@A@AEXAAURDI_LocksHeld_s@@_NAAPAVObjectId@PortableServer@@@Z
?_disconnect_client_and_dispose@SequenceProxyPullSupplier_i@@EAEXAAURDI_LocksHeld_s@@_NAAPAVObjectId@PortableServer@@@Z
?_disconnect_client_and_dispose@SequenceProxyPushConsumer_i@@$0PPPPPPPM@A@AEXAAURDI_LocksHeld_s@@_NAAPAVObjectId@PortableServer@@@Z
?_disconnect_client_and_dispose@SequenceProxyPushConsumer_i@@EAEXAAURDI_LocksHeld_s@@_NAAPAVObjectId@PortableServer@@@Z
?_disconnect_client_and_dispose@SequenceProxyPushSupplier_i@@$0PPPPPPPM@A@AEXAAURDI_LocksHeld_s@@_NAAPAVObjectId@PortableServer@@@Z
?_disconnect_client_and_dispose@SequenceProxyPushSupplier_i@@EAEXAAURDI_LocksHeld_s@@_NAAPAVObjectId@PortableServer@@@Z
?_disconnect_client_and_dispose@StructuredProxyPullConsumer_i@@$0PPPPPPPM@A@AEXAAURDI_LocksHeld_s@@_NAAPAVObjectId@PortableServer@@@Z
?_disconnect_client_and_dispose@StructuredProxyPullConsumer_i@@EAEXAAURDI_LocksHeld_s@@_NAAPAVObjectId@PortableServer@@@Z
?_disconnect_client_and_dispose@StructuredProxyPullSupplier_i@@$0PPPPPPPM@A@AEXAAURDI_LocksHeld_s@@_NAAPAVObjectId@PortableServer@@@Z
?_disconnect_client_and_dispose@StructuredProxyPullSupplier_i@@EAEXAAURDI_LocksHeld_s@@_NAAPAVObjectId@PortableServer@@@Z
?_disconnect_client_and_dispose@StructuredProxyPushConsumer_i@@$0PPPPPPPM@A@AEXAAURDI_LocksHeld_s@@_NAAPAVObjectId@PortableServer@@@Z
?_disconnect_client_and_dispose@StructuredProxyPushConsumer_i@@EAEXAAURDI_LocksHeld_s@@_NAAPAVObjectId@PortableServer@@@Z
?_disconnect_client_and_dispose@StructuredProxyPushSupplier_i@@$0PPPPPPPM@A@AEXAAURDI_LocksHeld_s@@_NAAPAVObjectId@PortableServer@@@Z
?_disconnect_client_and_dispose@StructuredProxyPushSupplier_i@@EAEXAAURDI_LocksHeld_s@@_NAAPAVObjectId@PortableServer@@@Z
?_disconnect_clients_and_dispose@ConsumerAdmin_i@@AAEXAAURDI_LocksHeld_s@@_N1AAPAVObjectId@PortableServer@@@Z
?_disconnect_clients_and_dispose@SupplierAdmin_i@@AAEXAAURDI_LocksHeld_s@@_N1AAPAVObjectId@PortableServer@@@Z
?_dispatch@_impl_AdminPropertiesAdmin@CosNotification@@$4PPPPPPPM@A@AE_NAAVomniCallHandle@@@Z
?_dispatch@_impl_AdminPropertiesAdmin@CosNotification@@$R477PPPPPPPM@M@AE_NAAVomniCallHandle@@@Z
?_dispatch@_impl_ConsumerAdmin@AttNotification@@$4PPPPPPPM@A@AE_NAAVomniCallHandle@@@Z
?_dispatch@_impl_ConsumerAdmin@AttNotification@@$R47CA@PPPPPPPM@7AE_NAAVomniCallHandle@@@Z
?_dispatch@_impl_ConsumerAdmin@AttNotification@@$R4BNI@CA@PPPPPPPM@7AE_NAAVomniCallHandle@@@Z
?_dispatch@_impl_ConsumerAdmin@CosEventChannelAdmin@@$4PPPPPPPM@A@AE_NAAVomniCallHandle@@@Z
?_dispatch@_impl_ConsumerAdmin@CosEventChannelAdmin@@$R477PPPPPPPM@M@AE_NAAVomniCallHandle@@@Z
?_dispatch@_impl_ConsumerAdmin@CosNotifyChannelAdmin@@$4PPPPPPPM@A@AE_NAAVomniCallHandle@@@Z
?_dispatch@_impl_ConsumerAdmin@CosNotifyChannelAdmin@@$R47BI@PPPPPPPM@M@AE_NAAVomniCallHandle@@@Z
?_dispatch@_impl_CosEvProxyPullConsumer@AttNotification@@$4PPPPPPPM@A@AE_NAAVomniCallHandle@@@Z
?_dispatch@_impl_CosEvProxyPullConsumer@AttNotification@@$R47BE@PPPPPPPM@7AE_NAAVomniCallHandle@@@Z
?_dispatch@_impl_CosEvProxyPullConsumer@AttNotification@@$R4FE@BE@PPPPPPPM@7AE_NAAVomniCallHandle@@@Z
?_dispatch@_impl_CosEvProxyPullSupplier@AttNotification@@$4PPPPPPPM@A@AE_NAAVomniCallHandle@@@Z
?_dispatch@_impl_CosEvProxyPullSupplier@AttNotification@@$R47BE@PPPPPPPM@7AE_NAAVomniCallHandle@@@Z
?_dispatch@_impl_CosEvProxyPullSupplier@AttNotification@@$R4FM@BE@PPPPPPPM@7AE_NAAVomniCallHandle@@@Z
?_dispatch@_impl_CosEvProxyPushConsumer@AttNotification@@$4PPPPPPPM@A@AE_NAAVomniCallHandle@@@Z
?_dispatch@_impl_CosEvProxyPushConsumer@AttNotification@@$R47BE@PPPPPPPM@7AE_NAAVomniCallHandle@@@Z
?_dispatch@_impl_CosEvProxyPushConsumer@AttNotification@@$R4DM@BE@PPPPPPPM@7AE_NAAVomniCallHandle@@@Z
?_dispatch@_impl_CosEvProxyPushSupplier@AttNotification@@$4PPPPPPPM@A@AE_NAAVomniCallHandle@@@Z
?_dispatch@_impl_CosEvProxyPushSupplier@AttNotification@@$R47BE@PPPPPPPM@7AE_NAAVomniCallHandle@@@Z
?_dispatch@_impl_CosEvProxyPushSupplier@AttNotification@@$R4GM@BE@PPPPPPPM@7AE_NAAVomniCallHandle@@@Z
?_dispatch@_impl_EventChannel@AttNotification@@$4PPPPPPPM@A@AE_NAAVomniCallHandle@@@Z
?_dispatch@_impl_EventChannel@AttNotification@@$R47BM@PPPPPPPM@M@AE_NAAVomniCallHandle@@@Z
?_dispatch@_impl_EventChannel@AttNotification@@$R4CBM@BM@PPPPPPPM@M@AE_NAAVomniCallHandle@@@Z
?_dispatch@_impl_EventChannel@CosEventChannelAdmin@@$4PPPPPPPM@A@AE_NAAVomniCallHandle@@@Z
?_dispatch@_impl_EventChannel@CosEventChannelAdmin@@$R477PPPPPPPM@M@AE_NAAVomniCallHandle@@@Z
?_dispatch@_impl_EventChannel@CosNotifyChannelAdmin@@$4PPPPPPPM@A@AE_NAAVomniCallHandle@@@Z
?_dispatch@_impl_EventChannel@CosNotifyChannelAdmin@@$R47BE@PPPPPPPM@M@AE_NAAVomniCallHandle@@@Z
?_dispatch@_impl_EventChannelFactory@AttNotification@@$4PPPPPPPM@A@AE_NAAVomniCallHandle@@@Z
?_dispatch@_impl_EventChannelFactory@AttNotification@@$R47BI@PPPPPPPM@7AE_NAAVomniCallHandle@@@Z
?_dispatch@_impl_EventChannelFactory@AttNotification@@$R4LM@BI@PPPPPPPM@7AE_NAAVomniCallHandle@@@Z
?_dispatch@_impl_EventChannelFactory@CosNotifyChannelAdmin@@$4PPPPPPPM@A@AE_NAAVomniCallHandle@@@Z
?_dispatch@_impl_EventChannelFactory@CosNotifyChannelAdmin@@$R477PPPPPPPM@M@AE_NAAVomniCallHandle@@@Z
?_dispatch@_impl_Filter@AttNotification@@$4PPPPPPPM@A@AE_NAAVomniCallHandle@@@Z
?_dispatch@_impl_Filter@AttNotification@@$R47BA@PPPPPPPM@M@AE_NAAVomniCallHandle@@@Z
?_dispatch@_impl_Filter@AttNotification@@$R4BAM@BA@PPPPPPPM@M@AE_NAAVomniCallHandle@@@Z
?_dispatch@_impl_Filter@CosNotifyFilter@@$4PPPPPPPM@A@AE_NAAVomniCallHandle@@@Z
?_dispatch@_impl_Filter@CosNotifyFilter@@$R477PPPPPPPM@M@AE_NAAVomniCallHandle@@@Z
?_dispatch@_impl_FilterAdmin@CosNotifyFilter@@$4PPPPPPPM@A@AE_NAAVomniCallHandle@@@Z
?_dispatch@_impl_FilterAdmin@CosNotifyFilter@@$R477PPPPPPPM@M@AE_NAAVomniCallHandle@@@Z
?_dispatch@_impl_FilterFactory@AttNotification@@$4PPPPPPPM@A@AE_NAAVomniCallHandle@@@Z
?_dispatch@_impl_FilterFactory@AttNotification@@$R47BA@PPPPPPPM@7AE_NAAVomniCallHandle@@@Z
?_dispatch@_impl_FilterFactory@AttNotification@@$R4DI@BA@PPPPPPPM@7AE_NAAVomniCallHandle@@@Z
?_dispatch@_impl_FilterFactory@CosNotifyFilter@@$4PPPPPPPM@A@AE_NAAVomniCallHandle@@@Z
?_dispatch@_impl_FilterFactory@CosNotifyFilter@@$R477PPPPPPPM@M@AE_NAAVomniCallHandle@@@Z
?_dispatch@_impl_Interactive@AttNotification@@$4PPPPPPPM@A@AE_NAAVomniCallHandle@@@Z
?_dispatch@_impl_Interactive@AttNotification@@$R477PPPPPPPM@M@AE_NAAVomniCallHandle@@@Z
?_dispatch@_impl_MappingFilter@AttNotification@@$4PPPPPPPM@A@AE_NAAVomniCallHandle@@@Z
?_dispatch@_impl_MappingFilter@AttNotification@@$R47BA@PPPPPPPM@7AE_NAAVomniCallHandle@@@Z
?_dispatch@_impl_MappingFilter@AttNotification@@$R4EE@BA@PPPPPPPM@7AE_NAAVomniCallHandle@@@Z
?_dispatch@_impl_MappingFilter@CosNotifyFilter@@$4PPPPPPPM@A@AE_NAAVomniCallHandle@@@Z
?_dispatch@_impl_MappingFilter@CosNotifyFilter@@$R477PPPPPPPM@M@AE_NAAVomniCallHandle@@@Z
?_dispatch@_impl_NotifyPublish@CosNotifyComm@@$4PPPPPPPM@A@AE_NAAVomniCallHandle@@@Z
?_dispatch@_impl_NotifyPublish@CosNotifyComm@@$R477PPPPPPPM@M@AE_NAAVomniCallHandle@@@Z
?_dispatch@_impl_NotifySubscribe@CosNotifyComm@@$4PPPPPPPM@A@AE_NAAVomniCallHandle@@@Z
?_dispatch@_impl_NotifySubscribe@CosNotifyComm@@$R477PPPPPPPM@M@AE_NAAVomniCallHandle@@@Z
?_dispatch@_impl_ProxyConsumer@CosNotifyChannelAdmin@@$4PPPPPPPM@A@AE_NAAVomniCallHandle@@@Z
?_dispatch@_impl_ProxyConsumer@CosNotifyChannelAdmin@@$R47BA@PPPPPPPM@M@AE_NAAVomniCallHandle@@@Z
?_dispatch@_impl_ProxyPullConsumer@AttNotification@@$4PPPPPPPM@A@AE_NAAVomniCallHandle@@@Z
?_dispatch@_impl_ProxyPullConsumer@AttNotification@@$R47CI@PPPPPPPM@7AE_NAAVomniCallHandle@@@Z
?_dispatch@_impl_ProxyPullConsumer@AttNotification@@$R4NM@CI@PPPPPPPM@7AE_NAAVomniCallHandle@@@Z
?_dispatch@_impl_ProxyPullConsumer@CosEventChannelAdmin@@$4PPPPPPPM@A@AE_NAAVomniCallHandle@@@Z
?_dispatch@_impl_ProxyPullConsumer@CosEventChannelAdmin@@$R47M@PPPPPPPM@M@AE_NAAVomniCallHandle@@@Z
?_dispatch@_impl_ProxyPullConsumer@CosNotifyChannelAdmin@@$4PPPPPPPM@A@AE_NAAVomniCallHandle@@@Z
?_dispatch@_impl_ProxyPullConsumer@CosNotifyChannelAdmin@@$R47CA@PPPPPPPM@M@AE_NAAVomniCallHandle@@@Z
?_dispatch@_impl_ProxyPullSupplier@AttNotification@@$4PPPPPPPM@A@AE_NAAVomniCallHandle@@@Z
?_dispatch@_impl_ProxyPullSupplier@AttNotification@@$R47CI@PPPPPPPM@7AE_NAAVomniCallHandle@@@Z
?_dispatch@_impl_ProxyPullSupplier@AttNotification@@$R4MM@CI@PPPPPPPM@7AE_NAAVomniCallHandle@@@Z
?_dispatch@_impl_ProxyPullSupplier@CosEventChannelAdmin@@$4PPPPPPPM@A@AE_NAAVomniCallHandle@@@Z
?_dispatch@_impl_ProxyPullSupplier@CosEventChannelAdmin@@$R47M@PPPPPPPM@M@AE_NAAVomniCallHandle@@@Z
?_dispatch@_impl_ProxyPullSupplier@CosNotifyChannelAdmin@@$4PPPPPPPM@A@AE_NAAVomniCallHandle@@@Z
?_dispatch@_impl_ProxyPullSupplier@CosNotifyChannelAdmin@@$R47CA@PPPPPPPM@M@AE_NAAVomniCallHandle@@@Z
?_dispatch@_impl_ProxyPushConsumer@AttNotification@@$4PPPPPPPM@A@AE_NAAVomniCallHandle@@@Z
?_dispatch@_impl_ProxyPushConsumer@AttNotification@@$R47CI@PPPPPPPM@7AE_NAAVomniCallHandle@@@Z
?_dispatch@_impl_ProxyPushConsumer@AttNotification@@$R4ME@CI@PPPPPPPM@7AE_NAAVomniCallHandle@@@Z
?_dispatch@_impl_ProxyPushConsumer@CosEventChannelAdmin@@$4PPPPPPPM@A@AE_NAAVomniCallHandle@@@Z
?_dispatch@_impl_ProxyPushConsumer@CosEventChannelAdmin@@$R47M@PPPPPPPM@M@AE_NAAVomniCallHandle@@@Z
?_dispatch@_impl_ProxyPushConsumer@CosNotifyChannelAdmin@@$4PPPPPPPM@A@AE_NAAVomniCallHandle@@@Z
?_dispatch@_impl_ProxyPushConsumer@CosNotifyChannelAdmin@@$R47CA@PPPPPPPM@M@AE_NAAVomniCallHandle@@@Z
?_dispatch@_impl_ProxyPushSupplier@AttNotification@@$4PPPPPPPM@A@AE_NAAVomniCallHandle@@@Z
?_dispatch@_impl_ProxyPushSupplier@AttNotification@@$R47CI@PPPPPPPM@7AE_NAAVomniCallHandle@@@Z
?_dispatch@_impl_ProxyPushSupplier@AttNotification@@$R4NM@CI@PPPPPPPM@7AE_NAAVomniCallHandle@@@Z
?_dispatch@_impl_ProxyPushSupplier@CosEventChannelAdmin@@$4PPPPPPPM@A@AE_NAAVomniCallHandle@@@Z
?_dispatch@_impl_ProxyPushSupplier@CosEventChannelAdmin@@$R47M@PPPPPPPM@M@AE_NAAVomniCallHandle@@@Z
?_dispatch@_impl_ProxyPushSupplier@CosNotifyChannelAdmin@@$4PPPPPPPM@A@AE_NAAVomniCallHandle@@@Z
?_dispatch@_impl_ProxyPushSupplier@CosNotifyChannelAdmin@@$R47CA@PPPPPPPM@M@AE_NAAVomniCallHandle@@@Z
?_dispatch@_impl_ProxySupplier@CosNotifyChannelAdmin@@$4PPPPPPPM@A@AE_NAAVomniCallHandle@@@Z
?_dispatch@_impl_ProxySupplier@CosNotifyChannelAdmin@@$R47BA@PPPPPPPM@M@AE_NAAVomniCallHandle@@@Z
?_dispatch@_impl_PullConsumer@CosEventComm@@$4PPPPPPPM@A@AE_NAAVomniCallHandle@@@Z
?_dispatch@_impl_PullConsumer@CosEventComm@@$R477PPPPPPPM@M@AE_NAAVomniCallHandle@@@Z
?_dispatch@_impl_PullConsumer@CosNotifyComm@@$4PPPPPPPM@A@AE_NAAVomniCallHandle@@@Z
?_dispatch@_impl_PullConsumer@CosNotifyComm@@$R47BA@PPPPPPPM@7AE_NAAVomniCallHandle@@@Z
?_dispatch@_impl_PullSupplier@CosEventComm@@$4PPPPPPPM@A@AE_NAAVomniCallHandle@@@Z
?_dispatch@_impl_PullSupplier@CosEventComm@@$R477PPPPPPPM@M@AE_NAAVomniCallHandle@@@Z
?_dispatch@_impl_PullSupplier@CosNotifyComm@@$4PPPPPPPM@A@AE_NAAVomniCallHandle@@@Z
?_dispatch@_impl_PullSupplier@CosNotifyComm@@$R47BA@PPPPPPPM@7AE_NAAVomniCallHandle@@@Z
?_dispatch@_impl_PushConsumer@CosEventComm@@$4PPPPPPPM@A@AE_NAAVomniCallHandle@@@Z
?_dispatch@_impl_PushConsumer@CosEventComm@@$R477PPPPPPPM@M@AE_NAAVomniCallHandle@@@Z
?_dispatch@_impl_PushConsumer@CosNotifyComm@@$4PPPPPPPM@A@AE_NAAVomniCallHandle@@@Z
?_dispatch@_impl_PushConsumer@CosNotifyComm@@$R47BA@PPPPPPPM@7AE_NAAVomniCallHandle@@@Z
?_dispatch@_impl_PushSupplier@CosEventComm@@$4PPPPPPPM@A@AE_NAAVomniCallHandle@@@Z
?_dispatch@_impl_PushSupplier@CosEventComm@@$R477PPPPPPPM@M@AE_NAAVomniCallHandle@@@Z
?_dispatch@_impl_PushSupplier@CosNotifyComm@@$4PPPPPPPM@A@AE_NAAVomniCallHandle@@@Z
?_dispatch@_impl_PushSupplier@CosNotifyComm@@$R47BA@PPPPPPPM@7AE_NAAVomniCallHandle@@@Z
?_dispatch@_impl_QoSAdmin@CosNotification@@$4PPPPPPPM@A@AE_NAAVomniCallHandle@@@Z
?_dispatch@_impl_QoSAdmin@CosNotification@@$R477PPPPPPPM@M@AE_NAAVomniCallHandle@@@Z
?_dispatch@_impl_SequenceProxyPullConsumer@AttNotification@@$4PPPPPPPM@A@AE_NAAVomniCallHandle@@@Z
?_dispatch@_impl_SequenceProxyPullConsumer@AttNotification@@$R47CE@PPPPPPPM@7AE_NAAVomniCallHandle@@@Z
?_dispatch@_impl_SequenceProxyPullConsumer@AttNotification@@$R4NM@CE@PPPPPPPM@7AE_NAAVomniCallHandle@@@Z
?_dispatch@_impl_SequenceProxyPullConsumer@CosNotifyChannelAdmin@@$4PPPPPPPM@A@AE_NAAVomniCallHandle@@@Z
?_dispatch@_impl_SequenceProxyPullConsumer@CosNotifyChannelAdmin@@$R47BM@PPPPPPPM@M@AE_NAAVomniCallHandle@@@Z
?_dispatch@_impl_SequenceProxyPullSupplier@AttNotification@@$4PPPPPPPM@A@AE_NAAVomniCallHandle@@@Z
?_dispatch@_impl_SequenceProxyPullSupplier@AttNotification@@$R47CE@PPPPPPPM@7AE_NAAVomniCallHandle@@@Z
?_dispatch@_impl_SequenceProxyPullSupplier@AttNotification@@$R4NE@CE@PPPPPPPM@7AE_NAAVomniCallHandle@@@Z
?_dispatch@_impl_SequenceProxyPullSupplier@CosNotifyChannelAdmin@@$4PPPPPPPM@A@AE_NAAVomniCallHandle@@@Z
?_dispatch@_impl_SequenceProxyPullSupplier@CosNotifyChannelAdmin@@$R47BM@PPPPPPPM@M@AE_NAAVomniCallHandle@@@Z
?_dispatch@_impl_SequenceProxyPushConsumer@AttNotification@@$4PPPPPPPM@A@AE_NAAVomniCallHandle@@@Z
?_dispatch@_impl_SequenceProxyPushConsumer@AttNotification@@$R47CE@PPPPPPPM@7AE_NAAVomniCallHandle@@@Z
?_dispatch@_impl_SequenceProxyPushConsumer@AttNotification@@$R4ME@CE@PPPPPPPM@7AE_NAAVomniCallHandle@@@Z
?_dispatch@_impl_SequenceProxyPushConsumer@CosNotifyChannelAdmin@@$4PPPPPPPM@A@AE_NAAVomniCallHandle@@@Z
?_dispatch@_impl_SequenceProxyPushConsumer@CosNotifyChannelAdmin@@$R47BM@PPPPPPPM@M@AE_NAAVomniCallHandle@@@Z
?_dispatch@_impl_SequenceProxyPushSupplier@AttNotification@@$4PPPPPPPM@A@AE_NAAVomniCallHandle@@@Z
?_dispatch@_impl_SequenceProxyPushSupplier@AttNotification@@$R47CE@PPPPPPPM@7AE_NAAVomniCallHandle@@@Z
?_dispatch@_impl_SequenceProxyPushSupplier@AttNotification@@$R4NM@CE@PPPPPPPM@7AE_NAAVomniCallHandle@@@Z
?_dispatch@_impl_SequenceProxyPushSupplier@CosNotifyChannelAdmin@@$4PPPPPPPM@A@AE_NAAVomniCallHandle@@@Z
?_dispatch@_impl_SequenceProxyPushSupplier@CosNotifyChannelAdmin@@$R47BM@PPPPPPPM@M@AE_NAAVomniCallHandle@@@Z
?_dispatch@_impl_SequencePullConsumer@CosNotifyComm@@$4PPPPPPPM@A@AE_NAAVomniCallHandle@@@Z
?_dispatch@_impl_SequencePullConsumer@CosNotifyComm@@$R47M@PPPPPPPM@M@AE_NAAVomniCallHandle@@@Z
?_dispatch@_impl_SequencePullSupplier@CosNotifyComm@@$4PPPPPPPM@A@AE_NAAVomniCallHandle@@@Z
?_dispatch@_impl_SequencePullSupplier@CosNotifyComm@@$R47M@PPPPPPPM@M@AE_NAAVomniCallHandle@@@Z
?_dispatch@_impl_SequencePushConsumer@CosNotifyComm@@$4PPPPPPPM@A@AE_NAAVomniCallHandle@@@Z
?_dispatch@_impl_SequencePushConsumer@CosNotifyComm@@$R47M@PPPPPPPM@M@AE_NAAVomniCallHandle@@@Z
?_dispatch@_impl_SequencePushSupplier@CosNotifyComm@@$4PPPPPPPM@A@AE_NAAVomniCallHandle@@@Z
?_dispatch@_impl_SequencePushSupplier@CosNotifyComm@@$R47M@PPPPPPPM@M@AE_NAAVomniCallHandle@@@Z
?_dispatch@_impl_Server@AttNotification@@$4PPPPPPPM@A@AE_NAAVomniCallHandle@@@Z
?_dispatch@_impl_Server@AttNotification@@$R47M@PPPPPPPM@M@AE_NAAVomniCallHandle@@@Z
?_dispatch@_impl_Server@AttNotification@@$R4GA@M@PPPPPPPM@M@AE_NAAVomniCallHandle@@@Z
?_dispatch@_impl_StructuredProxyPullConsumer@AttNotification@@$4PPPPPPPM@A@AE_NAAVomniCallHandle@@@Z
?_dispatch@_impl_StructuredProxyPullConsumer@AttNotification@@$R47CE@PPPPPPPM@7AE_NAAVomniCallHandle@@@Z
?_dispatch@_impl_StructuredProxyPullConsumer@AttNotification@@$R4NM@CE@PPPPPPPM@7AE_NAAVomniCallHandle@@@Z
?_dispatch@_impl_StructuredProxyPullConsumer@CosNotifyChannelAdmin@@$4PPPPPPPM@A@AE_NAAVomniCallHandle@@@Z
?_dispatch@_impl_StructuredProxyPullConsumer@CosNotifyChannelAdmin@@$R47BM@PPPPPPPM@M@AE_NAAVomniCallHandle@@@Z
?_dispatch@_impl_StructuredProxyPullSupplier@AttNotification@@$4PPPPPPPM@A@AE_NAAVomniCallHandle@@@Z
?_dispatch@_impl_StructuredProxyPullSupplier@AttNotification@@$R47CE@PPPPPPPM@7AE_NAAVomniCallHandle@@@Z
?_dispatch@_impl_StructuredProxyPullSupplier@AttNotification@@$R4MM@CE@PPPPPPPM@7AE_NAAVomniCallHandle@@@Z
?_dispatch@_impl_StructuredProxyPullSupplier@CosNotifyChannelAdmin@@$4PPPPPPPM@A@AE_NAAVomniCallHandle@@@Z
?_dispatch@_impl_StructuredProxyPullSupplier@CosNotifyChannelAdmin@@$R47BM@PPPPPPPM@M@AE_NAAVomniCallHandle@@@Z
?_dispatch@_impl_StructuredProxyPushConsumer@AttNotification@@$4PPPPPPPM@A@AE_NAAVomniCallHandle@@@Z
?_dispatch@_impl_StructuredProxyPushConsumer@AttNotification@@$R47CE@PPPPPPPM@7AE_NAAVomniCallHandle@@@Z
?_dispatch@_impl_StructuredProxyPushConsumer@AttNotification@@$R4ME@CE@PPPPPPPM@7AE_NAAVomniCallHandle@@@Z
?_dispatch@_impl_StructuredProxyPushConsumer@CosNotifyChannelAdmin@@$4PPPPPPPM@A@AE_NAAVomniCallHandle@@@Z
?_dispatch@_impl_StructuredProxyPushConsumer@CosNotifyChannelAdmin@@$R47BM@PPPPPPPM@M@AE_NAAVomniCallHandle@@@Z
?_dispatch@_impl_StructuredProxyPushSupplier@AttNotification@@$4PPPPPPPM@A@AE_NAAVomniCallHandle@@@Z
?_dispatch@_impl_StructuredProxyPushSupplier@AttNotification@@$R47CE@PPPPPPPM@7AE_NAAVomniCallHandle@@@Z
?_dispatch@_impl_StructuredProxyPushSupplier@AttNotification@@$R4NE@CE@PPPPPPPM@7AE_NAAVomniCallHandle@@@Z
?_dispatch@_impl_StructuredProxyPushSupplier@CosNotifyChannelAdmin@@$4PPPPPPPM@A@AE_NAAVomniCallHandle@@@Z
?_dispatch@_impl_StructuredProxyPushSupplier@CosNotifyChannelAdmin@@$R47BM@PPPPPPPM@M@AE_NAAVomniCallHandle@@@Z
?_dispatch@_impl_StructuredPullConsumer@CosNotifyComm@@$4PPPPPPPM@A@AE_NAAVomniCallHandle@@@Z
?_dispatch@_impl_StructuredPullConsumer@CosNotifyComm@@$R47M@PPPPPPPM@M@AE_NAAVomniCallHandle@@@Z
?_dispatch@_impl_StructuredPullSupplier@CosNotifyComm@@$4PPPPPPPM@A@AE_NAAVomniCallHandle@@@Z
?_dispatch@_impl_StructuredPullSupplier@CosNotifyComm@@$R47M@PPPPPPPM@M@AE_NAAVomniCallHandle@@@Z
?_dispatch@_impl_StructuredPushConsumer@CosNotifyComm@@$4PPPPPPPM@A@AE_NAAVomniCallHandle@@@Z
?_dispatch@_impl_StructuredPushConsumer@CosNotifyComm@@$R47M@PPPPPPPM@M@AE_NAAVomniCallHandle@@@Z
?_dispatch@_impl_StructuredPushSupplier@CosNotifyComm@@$4PPPPPPPM@A@AE_NAAVomniCallHandle@@@Z
?_dispatch@_impl_StructuredPushSupplier@CosNotifyComm@@$R47M@PPPPPPPM@M@AE_NAAVomniCallHandle@@@Z
?_dispatch@_impl_SupplierAdmin@AttNotification@@$4PPPPPPPM@A@AE_NAAVomniCallHandle@@@Z
?_dispatch@_impl_SupplierAdmin@AttNotification@@$R47CA@PPPPPPPM@7AE_NAAVomniCallHandle@@@Z
?_dispatch@_impl_SupplierAdmin@AttNotification@@$R4BPA@CA@PPPPPPPM@7AE_NAAVomniCallHandle@@@Z
?_dispatch@_impl_SupplierAdmin@CosEventChannelAdmin@@$4PPPPPPPM@A@AE_NAAVomniCallHandle@@@Z
?_dispatch@_impl_SupplierAdmin@CosEventChannelAdmin@@$R477PPPPPPPM@M@AE_NAAVomniCallHandle@@@Z
?_dispatch@_impl_SupplierAdmin@CosNotifyChannelAdmin@@$4PPPPPPPM@A@AE_NAAVomniCallHandle@@@Z
?_dispatch@_impl_SupplierAdmin@CosNotifyChannelAdmin@@$R47BI@PPPPPPPM@M@AE_NAAVomniCallHandle@@@Z
?_do_get_interface@ServantBase@PortableServer@@$0PPPPPPPM@A@AEPAVomniObjRef@@XZ
?_do_get_interface@ServantBase@PortableServer@@$R07BA@PPPPPPPM@BA@AEPAVomniObjRef@@XZ
?_do_get_interface@ServantBase@PortableServer@@$R07BE@PPPPPPPM@BA@AEPAVomniObjRef@@XZ
?_do_get_interface@ServantBase@PortableServer@@$R07BI@PPPPPPPM@BA@AEPAVomniObjRef@@XZ
?_do_get_interface@ServantBase@PortableServer@@$R07BM@PPPPPPPM@BA@AEPAVomniObjRef@@XZ
?_do_get_interface@ServantBase@PortableServer@@$R07CA@PPPPPPPM@BA@AEPAVomniObjRef@@XZ
?_do_get_interface@ServantBase@PortableServer@@$R07CE@PPPPPPPM@BA@AEPAVomniObjRef@@XZ
?_do_get_interface@ServantBase@PortableServer@@$R07CI@PPPPPPPM@BA@AEPAVomniObjRef@@XZ
?_do_get_interface@ServantBase@PortableServer@@$R07CM@PPPPPPPM@BA@AEPAVomniObjRef@@XZ
?_do_get_interface@ServantBase@PortableServer@@$R07M@PPPPPPPM@BA@AEPAVomniObjRef@@XZ
?_do_get_interface@ServantBase@PortableServer@@$R0BAM@BE@PPPPPPPM@BA@AEPAVomniObjRef@@XZ
?_do_get_interface@ServantBase@PortableServer@@$R0BNI@CE@PPPPPPPM@BA@AEPAVomniObjRef@@XZ
?_do_get_interface@ServantBase@PortableServer@@$R0BPA@CE@PPPPPPPM@BA@AEPAVomniObjRef@@XZ
?_do_get_interface@ServantBase@PortableServer@@$R0CBM@CA@PPPPPPPM@BA@AEPAVomniObjRef@@XZ
?_do_get_interface@ServantBase@PortableServer@@$R0DI@BE@PPPPPPPM@BA@AEPAVomniObjRef@@XZ
?_do_get_interface@ServantBase@PortableServer@@$R0DM@BI@PPPPPPPM@BA@AEPAVomniObjRef@@XZ
?_do_get_interface@ServantBase@PortableServer@@$R0EE@BE@PPPPPPPM@BA@AEPAVomniObjRef@@XZ
?_do_get_interface@ServantBase@PortableServer@@$R0FE@BI@PPPPPPPM@BA@AEPAVomniObjRef@@XZ
?_do_get_interface@ServantBase@PortableServer@@$R0FM@BI@PPPPPPPM@BA@AEPAVomniObjRef@@XZ
?_do_get_interface@ServantBase@PortableServer@@$R0GA@BA@PPPPPPPM@BA@AEPAVomniObjRef@@XZ
?_do_get_interface@ServantBase@PortableServer@@$R0GM@BI@PPPPPPPM@BA@AEPAVomniObjRef@@XZ
?_do_get_interface@ServantBase@PortableServer@@$R0LM@BM@PPPPPPPM@BA@AEPAVomniObjRef@@XZ
?_do_get_interface@ServantBase@PortableServer@@$R0ME@CI@PPPPPPPM@BA@AEPAVomniObjRef@@XZ
?_do_get_interface@ServantBase@PortableServer@@$R0ME@CM@PPPPPPPM@BA@AEPAVomniObjRef@@XZ
?_do_get_interface@ServantBase@PortableServer@@$R0MM@CI@PPPPPPPM@BA@AEPAVomniObjRef@@XZ
?_do_get_interface@ServantBase@PortableServer@@$R0MM@CM@PPPPPPPM@BA@AEPAVomniObjRef@@XZ
?_do_get_interface@ServantBase@PortableServer@@$R0NE@CI@PPPPPPPM@BA@AEPAVomniObjRef@@XZ
?_do_get_interface@ServantBase@PortableServer@@$R0NM@CI@PPPPPPPM@BA@AEPAVomniObjRef@@XZ
?_do_get_interface@ServantBase@PortableServer@@$R0NM@CM@PPPPPPPM@BA@AEPAVomniObjRef@@XZ
?_downcast@ServantBase@PortableServer@@$0PPPPPPPM@A@AEPAXXZ
?_downcast@ServantBase@PortableServer@@$R07BA@PPPPPPPM@BA@AEPAXXZ
?_downcast@ServantBase@PortableServer@@$R07BE@PPPPPPPM@BA@AEPAXXZ
?_downcast@ServantBase@PortableServer@@$R07BI@PPPPPPPM@BA@AEPAXXZ
?_downcast@ServantBase@PortableServer@@$R07BM@PPPPPPPM@BA@AEPAXXZ
?_downcast@ServantBase@PortableServer@@$R07CA@PPPPPPPM@BA@AEPAXXZ
?_downcast@ServantBase@PortableServer@@$R07CE@PPPPPPPM@BA@AEPAXXZ
?_downcast@ServantBase@PortableServer@@$R07CI@PPPPPPPM@BA@AEPAXXZ
?_downcast@ServantBase@PortableServer@@$R07CM@PPPPPPPM@BA@AEPAXXZ
?_downcast@ServantBase@PortableServer@@$R07M@PPPPPPPM@BA@AEPAXXZ
?_downcast@ServantBase@PortableServer@@$R0BAM@BE@PPPPPPPM@BA@AEPAXXZ
?_downcast@ServantBase@PortableServer@@$R0BNI@CE@PPPPPPPM@BA@AEPAXXZ
?_downcast@ServantBase@PortableServer@@$R0BPA@CE@PPPPPPPM@BA@AEPAXXZ
?_downcast@ServantBase@PortableServer@@$R0CBM@CA@PPPPPPPM@BA@AEPAXXZ
?_downcast@ServantBase@PortableServer@@$R0DI@BE@PPPPPPPM@BA@AEPAXXZ
?_downcast@ServantBase@PortableServer@@$R0DM@BI@PPPPPPPM@BA@AEPAXXZ
?_downcast@ServantBase@PortableServer@@$R0EE@BE@PPPPPPPM@BA@AEPAXXZ
?_downcast@ServantBase@PortableServer@@$R0FE@BI@PPPPPPPM@BA@AEPAXXZ
?_downcast@ServantBase@PortableServer@@$R0FM@BI@PPPPPPPM@BA@AEPAXXZ
?_downcast@ServantBase@PortableServer@@$R0GA@BA@PPPPPPPM@BA@AEPAXXZ
?_downcast@ServantBase@PortableServer@@$R0GM@BI@PPPPPPPM@BA@AEPAXXZ
?_downcast@ServantBase@PortableServer@@$R0LM@BM@PPPPPPPM@BA@AEPAXXZ
?_downcast@ServantBase@PortableServer@@$R0ME@CI@PPPPPPPM@BA@AEPAXXZ
?_downcast@ServantBase@PortableServer@@$R0ME@CM@PPPPPPPM@BA@AEPAXXZ
?_downcast@ServantBase@PortableServer@@$R0MM@CI@PPPPPPPM@BA@AEPAXXZ
?_downcast@ServantBase@PortableServer@@$R0MM@CM@PPPPPPPM@BA@AEPAXXZ
?_downcast@ServantBase@PortableServer@@$R0NE@CI@PPPPPPPM@BA@AEPAXXZ
?_downcast@ServantBase@PortableServer@@$R0NM@CI@PPPPPPPM@BA@AEPAXXZ
?_downcast@ServantBase@PortableServer@@$R0NM@CM@PPPPPPPM@BA@AEPAXXZ
?_drain@RDIPriorityQueue@@AAEXXZ
?_dynany_fac@WRAPPED_ORB_OA@@2V?$_CORBA_PseudoObj_Var@VDynAnyFactory@DynamicAny@@@@A
?_enable_updates@RDIProxyConsumer@@QAEXXZ
?_enable_updates@RDIProxySupplier@@QAEXXZ
?_eval_add_nn2n@RDI_RVM@@AAE_NPAVRDI_StructuredEvent@@@Z
?_eval_and_bb2b@RDI_RVM@@AAE_NPAVRDI_StructuredEvent@@@Z
?_eval_arithop@RDI_RVM@@AAE_NW4RDI_ArithOp@@@Z
?_eval_assoc_usC2u@RDI_RVM@@AAE_NPAVRDI_StructuredEvent@@@Z
?_eval_cmp_uu2n@RDI_RVM@@AAE_NPAVRDI_StructuredEvent@@@Z
?_eval_compend@RDI_RVM@@AAE_NPAVRDI_StructuredEvent@@@Z
?_eval_ctelt_NC2n@RDI_RVM@@AAE_NPAVRDI_StructuredEvent@@@Z
?_eval_cvt_u2b@RDI_RVM@@AAE_NPAVRDI_StructuredEvent@@@Z
?_eval_cvt_u2n@RDI_RVM@@AAE_NPAVRDI_StructuredEvent@@@Z
?_eval_cvt_u2s@RDI_RVM@@AAE_NPAVRDI_StructuredEvent@@@Z
?_eval_debug1@RDI_RVM@@AAE_NPAVRDI_StructuredEvent@@@Z
?_eval_debug2@RDI_RVM@@AAE_NPAVRDI_StructuredEvent@@@Z
?_eval_default_X2b@RDI_RVM@@AAE_NPAVRDI_StructuredEvent@@@Z
?_eval_div_nn2n@RDI_RVM@@AAE_NPAVRDI_StructuredEvent@@@Z
?_eval_dot_d_u2u@RDI_RVM@@AAE_NPAVRDI_StructuredEvent@@@Z
?_eval_dot_id_usC2u@RDI_RVM@@AAE_NPAVRDI_StructuredEvent@@@Z
?_eval_dot_len_u2n_l@RDI_RVM@@AAE_NPAVRDI_StructuredEvent@@@Z
?_eval_dot_num_ulC2u@RDI_RVM@@AAE_NPAVRDI_StructuredEvent@@@Z
?_eval_dot_rid_u2s@RDI_RVM@@AAE_NPAVRDI_StructuredEvent@@@Z
?_eval_dot_tid_u2s@RDI_RVM@@AAE_NPAVRDI_StructuredEvent@@@Z
?_eval_eqz_n2b@RDI_RVM@@AAE_NPAVRDI_StructuredEvent@@@Z
?_eval_exist_X2b@RDI_RVM@@AAE_NPAVRDI_StructuredEvent@@@Z
?_eval_gez_n2b@RDI_RVM@@AAE_NPAVRDI_StructuredEvent@@@Z
?_eval_goto@RDI_RVM@@AAE_NPAVRDI_StructuredEvent@@@Z
?_eval_gtz_n2b@RDI_RVM@@AAE_NPAVRDI_StructuredEvent@@@Z
?_eval_ifF_b2b@RDI_RVM@@AAE_NPAVRDI_StructuredEvent@@@Z
?_eval_ifT_b2b@RDI_RVM@@AAE_NPAVRDI_StructuredEvent@@@Z
?_eval_in_uu2b@RDI_RVM@@AAE_NPAVRDI_StructuredEvent@@@Z
?_eval_index_ulC2u@RDI_RVM@@AAE_NPAVRDI_StructuredEvent@@@Z
?_eval_label@RDI_RVM@@AAE_NPAVRDI_StructuredEvent@@@Z
?_eval_lez_n2b@RDI_RVM@@AAE_NPAVRDI_StructuredEvent@@@Z
?_eval_ltz_n2b@RDI_RVM@@AAE_NPAVRDI_StructuredEvent@@@Z
?_eval_mul_nn2n@RDI_RVM@@AAE_NPAVRDI_StructuredEvent@@@Z
?_eval_nez_n2b@RDI_RVM@@AAE_NPAVRDI_StructuredEvent@@@Z
?_eval_nop@RDI_RVM@@AAE_NPAVRDI_StructuredEvent@@@Z
?_eval_not_b2b@RDI_RVM@@AAE_NPAVRDI_StructuredEvent@@@Z
?_eval_or_bb2b@RDI_RVM@@AAE_NPAVRDI_StructuredEvent@@@Z
?_eval_pop_u@RDI_RVM@@AAE_NPAVRDI_StructuredEvent@@@Z
?_eval_pop_uu@RDI_RVM@@AAE_NPAVRDI_StructuredEvent@@@Z
?_eval_push_NC2N@RDI_RVM@@AAE_NPAVRDI_StructuredEvent@@@Z
?_eval_push_bC2b@RDI_RVM@@AAE_NPAVRDI_StructuredEvent@@@Z
?_eval_push_cC2c@RDI_RVM@@AAE_NPAVRDI_StructuredEvent@@@Z
?_eval_push_iC2i@RDI_RVM@@AAE_NPAVRDI_StructuredEvent@@@Z
?_eval_push_nC2n_d@RDI_RVM@@AAE_NPAVRDI_StructuredEvent@@@Z
?_eval_push_nC2n_f@RDI_RVM@@AAE_NPAVRDI_StructuredEvent@@@Z
?_eval_push_nC2n_l@RDI_RVM@@AAE_NPAVRDI_StructuredEvent@@@Z
?_eval_push_nC2n_ll@RDI_RVM@@AAE_NPAVRDI_StructuredEvent@@@Z
?_eval_push_nC2n_s@RDI_RVM@@AAE_NPAVRDI_StructuredEvent@@@Z
?_eval_push_nC2n_ul@RDI_RVM@@AAE_NPAVRDI_StructuredEvent@@@Z
?_eval_push_nC2n_ull@RDI_RVM@@AAE_NPAVRDI_StructuredEvent@@@Z
?_eval_push_sC2s@RDI_RVM@@AAE_NPAVRDI_StructuredEvent@@@Z
?_eval_rem_nn2n@RDI_RVM@@AAE_NPAVRDI_StructuredEvent@@@Z
?_eval_return_b@RDI_RVM@@AAE_NPAVRDI_StructuredEvent@@@Z
?_eval_signal_N@RDI_RVM@@AAE_NPAVRDI_StructuredEvent@@@Z
?_eval_special_sC2u@RDI_RVM@@AAE_NPAVRDI_StructuredEvent@@@Z
?_eval_sub_nn2n@RDI_RVM@@AAE_NPAVRDI_StructuredEvent@@@Z
?_eval_substr_ss2b@RDI_RVM@@AAE_NPAVRDI_StructuredEvent@@@Z
?_eval_swap_uu2uu@RDI_RVM@@AAE_NPAVRDI_StructuredEvent@@@Z
?_eval_tagbool_ubC2u@RDI_RVM@@AAE_NPAVRDI_StructuredEvent@@@Z
?_eval_tagchar_usC2u@RDI_RVM@@AAE_NPAVRDI_StructuredEvent@@@Z
?_eval_tagdef_u2u@RDI_RVM@@AAE_NPAVRDI_StructuredEvent@@@Z
?_eval_tagid_usC2u@RDI_RVM@@AAE_NPAVRDI_StructuredEvent@@@Z
?_eval_tagnum_ulC2u@RDI_RVM@@AAE_NPAVRDI_StructuredEvent@@@Z
?_eval_wkp_NC2u@RDI_RVM@@AAE_NPAVRDI_StructuredEvent@@@Z
?_event_is_dominated@Filter_i@@AAE_NABUEventType@CosNotification@@@Z
?_exists_constraint@Filter_i@@ABE_NABJAAK@Z
?_fix_string@RDI_Constraint@@CAXPAVRDI_PCState@@PAD@Z
?_force2num@RDI_RVM@@AAEXAAVRDI_RTVal@@@Z
?_freelist@RDIOplocks@@0PAVRDIOplockEntry@@A
?_gcollect@RDI_NotifyConsumer@@AAEXXZ
?_gcollect@RDI_PullSupplier@@AAEXXZ
?_init_eval_state@RDI_RVM@@AAEXXZ
?_init_vmap@RDI_StructuredEvent@@AAEXXZ
?_init_vmap_from_any@RDI_StructuredEvent@@AAEXXZ
?_is_supported@FilterFactory_i@@QAE_NPBD@Z
?_left@RDIPriorityQueue@@CAKK@Z
?_match_event@RDIProxyConsumer@@IAE_NABVAny@CORBA@@@Z
?_match_event@RDIProxyConsumer@@IAE_NPBUStructuredEvent@CosNotification@@PAVRDI_StructuredEvent@@@Z
?_match_event_admin_level@RDIProxyConsumer@@IAE_NABVAny@CORBA@@@Z
?_match_event_admin_level@RDIProxyConsumer@@IAE_NPBUStructuredEvent@CosNotification@@PAVRDI_StructuredEvent@@@Z
?_match_event_proxy_level@RDIProxyConsumer@@IAE_NABVAny@CORBA@@@Z
?_match_event_proxy_level@RDIProxyConsumer@@IAE_NPBUStructuredEvent@CosNotification@@PAVRDI_StructuredEvent@@@Z
?_max_giop_connections@WRAPPED_ORB_OA@@2KA
?_mostDerivedRepoId@_impl_AdminPropertiesAdmin@CosNotification@@$0PPPPPPPM@A@AEPBDXZ
?_mostDerivedRepoId@_impl_AdminPropertiesAdmin@CosNotification@@$R077PPPPPPPM@M@AEPBDXZ
?_mostDerivedRepoId@_impl_ConsumerAdmin@AttNotification@@$0PPPPPPPM@A@AEPBDXZ
?_mostDerivedRepoId@_impl_ConsumerAdmin@AttNotification@@$R07CA@PPPPPPPM@7AEPBDXZ
?_mostDerivedRepoId@_impl_ConsumerAdmin@AttNotification@@$R0BNI@CA@PPPPPPPM@7AEPBDXZ
?_mostDerivedRepoId@_impl_ConsumerAdmin@CosEventChannelAdmin@@$0PPPPPPPM@A@AEPBDXZ
?_mostDerivedRepoId@_impl_ConsumerAdmin@CosEventChannelAdmin@@$R077PPPPPPPM@M@AEPBDXZ
?_mostDerivedRepoId@_impl_ConsumerAdmin@CosNotifyChannelAdmin@@$0PPPPPPPM@A@AEPBDXZ
?_mostDerivedRepoId@_impl_ConsumerAdmin@CosNotifyChannelAdmin@@$R07BI@PPPPPPPM@M@AEPBDXZ
?_mostDerivedRepoId@_impl_CosEvProxyPullConsumer@AttNotification@@$0PPPPPPPM@A@AEPBDXZ
?_mostDerivedRepoId@_impl_CosEvProxyPullConsumer@AttNotification@@$R07BE@PPPPPPPM@7AEPBDXZ
?_mostDerivedRepoId@_impl_CosEvProxyPullConsumer@AttNotification@@$R0FE@BE@PPPPPPPM@7AEPBDXZ
?_mostDerivedRepoId@_impl_CosEvProxyPullSupplier@AttNotification@@$0PPPPPPPM@A@AEPBDXZ
?_mostDerivedRepoId@_impl_CosEvProxyPullSupplier@AttNotification@@$R07BE@PPPPPPPM@7AEPBDXZ
?_mostDerivedRepoId@_impl_CosEvProxyPullSupplier@AttNotification@@$R0FM@BE@PPPPPPPM@7AEPBDXZ
?_mostDerivedRepoId@_impl_CosEvProxyPushConsumer@AttNotification@@$0PPPPPPPM@A@AEPBDXZ
?_mostDerivedRepoId@_impl_CosEvProxyPushConsumer@AttNotification@@$R07BE@PPPPPPPM@7AEPBDXZ
?_mostDerivedRepoId@_impl_CosEvProxyPushConsumer@AttNotification@@$R0DM@BE@PPPPPPPM@7AEPBDXZ
?_mostDerivedRepoId@_impl_CosEvProxyPushSupplier@AttNotification@@$0PPPPPPPM@A@AEPBDXZ
?_mostDerivedRepoId@_impl_CosEvProxyPushSupplier@AttNotification@@$R07BE@PPPPPPPM@7AEPBDXZ
?_mostDerivedRepoId@_impl_CosEvProxyPushSupplier@AttNotification@@$R0GM@BE@PPPPPPPM@7AEPBDXZ
?_mostDerivedRepoId@_impl_EventChannel@AttNotification@@$0PPPPPPPM@A@AEPBDXZ
?_mostDerivedRepoId@_impl_EventChannel@AttNotification@@$R07BM@PPPPPPPM@M@AEPBDXZ
?_mostDerivedRepoId@_impl_EventChannel@AttNotification@@$R0CBM@BM@PPPPPPPM@M@AEPBDXZ
?_mostDerivedRepoId@_impl_EventChannel@CosEventChannelAdmin@@$0PPPPPPPM@A@AEPBDXZ
?_mostDerivedRepoId@_impl_EventChannel@CosEventChannelAdmin@@$R077PPPPPPPM@M@AEPBDXZ
?_mostDerivedRepoId@_impl_EventChannel@CosNotifyChannelAdmin@@$0PPPPPPPM@A@AEPBDXZ
?_mostDerivedRepoId@_impl_EventChannel@CosNotifyChannelAdmin@@$R07BE@PPPPPPPM@M@AEPBDXZ
?_mostDerivedRepoId@_impl_EventChannelFactory@AttNotification@@$0PPPPPPPM@A@AEPBDXZ
?_mostDerivedRepoId@_impl_EventChannelFactory@AttNotification@@$R07BI@PPPPPPPM@7AEPBDXZ
?_mostDerivedRepoId@_impl_EventChannelFactory@AttNotification@@$R0LM@BI@PPPPPPPM@7AEPBDXZ
?_mostDerivedRepoId@_impl_EventChannelFactory@CosNotifyChannelAdmin@@$0PPPPPPPM@A@AEPBDXZ
?_mostDerivedRepoId@_impl_EventChannelFactory@CosNotifyChannelAdmin@@$R077PPPPPPPM@M@AEPBDXZ
?_mostDerivedRepoId@_impl_Filter@AttNotification@@$0PPPPPPPM@A@AEPBDXZ
?_mostDerivedRepoId@_impl_Filter@AttNotification@@$R07BA@PPPPPPPM@M@AEPBDXZ
?_mostDerivedRepoId@_impl_Filter@AttNotification@@$R0BAM@BA@PPPPPPPM@M@AEPBDXZ
?_mostDerivedRepoId@_impl_Filter@CosNotifyFilter@@$0PPPPPPPM@A@AEPBDXZ
?_mostDerivedRepoId@_impl_Filter@CosNotifyFilter@@$R077PPPPPPPM@M@AEPBDXZ
?_mostDerivedRepoId@_impl_FilterAdmin@CosNotifyFilter@@$0PPPPPPPM@A@AEPBDXZ
?_mostDerivedRepoId@_impl_FilterAdmin@CosNotifyFilter@@$R077PPPPPPPM@M@AEPBDXZ
?_mostDerivedRepoId@_impl_FilterFactory@AttNotification@@$0PPPPPPPM@A@AEPBDXZ
?_mostDerivedRepoId@_impl_FilterFactory@AttNotification@@$R07BA@PPPPPPPM@7AEPBDXZ
?_mostDerivedRepoId@_impl_FilterFactory@AttNotification@@$R0DI@BA@PPPPPPPM@7AEPBDXZ
?_mostDerivedRepoId@_impl_FilterFactory@CosNotifyFilter@@$0PPPPPPPM@A@AEPBDXZ
?_mostDerivedRepoId@_impl_FilterFactory@CosNotifyFilter@@$R077PPPPPPPM@M@AEPBDXZ
?_mostDerivedRepoId@_impl_Interactive@AttNotification@@$0PPPPPPPM@A@AEPBDXZ
?_mostDerivedRepoId@_impl_Interactive@AttNotification@@$R077PPPPPPPM@M@AEPBDXZ
?_mostDerivedRepoId@_impl_MappingFilter@AttNotification@@$0PPPPPPPM@A@AEPBDXZ
?_mostDerivedRepoId@_impl_MappingFilter@AttNotification@@$R07BA@PPPPPPPM@7AEPBDXZ
?_mostDerivedRepoId@_impl_MappingFilter@AttNotification@@$R0EE@BA@PPPPPPPM@7AEPBDXZ
?_mostDerivedRepoId@_impl_MappingFilter@CosNotifyFilter@@$0PPPPPPPM@A@AEPBDXZ
?_mostDerivedRepoId@_impl_MappingFilter@CosNotifyFilter@@$R077PPPPPPPM@M@AEPBDXZ
?_mostDerivedRepoId@_impl_NotifyPublish@CosNotifyComm@@$0PPPPPPPM@A@AEPBDXZ
?_mostDerivedRepoId@_impl_NotifyPublish@CosNotifyComm@@$R077PPPPPPPM@M@AEPBDXZ
?_mostDerivedRepoId@_impl_NotifySubscribe@CosNotifyComm@@$0PPPPPPPM@A@AEPBDXZ
?_mostDerivedRepoId@_impl_NotifySubscribe@CosNotifyComm@@$R077PPPPPPPM@M@AEPBDXZ
?_mostDerivedRepoId@_impl_ProxyConsumer@CosNotifyChannelAdmin@@$0PPPPPPPM@A@AEPBDXZ
?_mostDerivedRepoId@_impl_ProxyConsumer@CosNotifyChannelAdmin@@$R07BA@PPPPPPPM@M@AEPBDXZ
?_mostDerivedRepoId@_impl_ProxyPullConsumer@AttNotification@@$0PPPPPPPM@A@AEPBDXZ
?_mostDerivedRepoId@_impl_ProxyPullConsumer@AttNotification@@$R07CI@PPPPPPPM@7AEPBDXZ
?_mostDerivedRepoId@_impl_ProxyPullConsumer@AttNotification@@$R0NM@CI@PPPPPPPM@7AEPBDXZ
?_mostDerivedRepoId@_impl_ProxyPullConsumer@CosEventChannelAdmin@@$0PPPPPPPM@A@AEPBDXZ
?_mostDerivedRepoId@_impl_ProxyPullConsumer@CosEventChannelAdmin@@$R07M@PPPPPPPM@M@AEPBDXZ
?_mostDerivedRepoId@_impl_ProxyPullConsumer@CosNotifyChannelAdmin@@$0PPPPPPPM@A@AEPBDXZ
?_mostDerivedRepoId@_impl_ProxyPullConsumer@CosNotifyChannelAdmin@@$R07CA@PPPPPPPM@M@AEPBDXZ
?_mostDerivedRepoId@_impl_ProxyPullSupplier@AttNotification@@$0PPPPPPPM@A@AEPBDXZ
?_mostDerivedRepoId@_impl_ProxyPullSupplier@AttNotification@@$R07CI@PPPPPPPM@7AEPBDXZ
?_mostDerivedRepoId@_impl_ProxyPullSupplier@AttNotification@@$R0MM@CI@PPPPPPPM@7AEPBDXZ
?_mostDerivedRepoId@_impl_ProxyPullSupplier@CosEventChannelAdmin@@$0PPPPPPPM@A@AEPBDXZ
?_mostDerivedRepoId@_impl_ProxyPullSupplier@CosEventChannelAdmin@@$R07M@PPPPPPPM@M@AEPBDXZ
?_mostDerivedRepoId@_impl_ProxyPullSupplier@CosNotifyChannelAdmin@@$0PPPPPPPM@A@AEPBDXZ
?_mostDerivedRepoId@_impl_ProxyPullSupplier@CosNotifyChannelAdmin@@$R07CA@PPPPPPPM@M@AEPBDXZ
?_mostDerivedRepoId@_impl_ProxyPushConsumer@AttNotification@@$0PPPPPPPM@A@AEPBDXZ
?_mostDerivedRepoId@_impl_ProxyPushConsumer@AttNotification@@$R07CI@PPPPPPPM@7AEPBDXZ
?_mostDerivedRepoId@_impl_ProxyPushConsumer@AttNotification@@$R0ME@CI@PPPPPPPM@7AEPBDXZ
?_mostDerivedRepoId@_impl_ProxyPushConsumer@CosEventChannelAdmin@@$0PPPPPPPM@A@AEPBDXZ
?_mostDerivedRepoId@_impl_ProxyPushConsumer@CosEventChannelAdmin@@$R07M@PPPPPPPM@M@AEPBDXZ
?_mostDerivedRepoId@_impl_ProxyPushConsumer@CosNotifyChannelAdmin@@$0PPPPPPPM@A@AEPBDXZ
?_mostDerivedRepoId@_impl_ProxyPushConsumer@CosNotifyChannelAdmin@@$R07CA@PPPPPPPM@M@AEPBDXZ
?_mostDerivedRepoId@_impl_ProxyPushSupplier@AttNotification@@$0PPPPPPPM@A@AEPBDXZ
?_mostDerivedRepoId@_impl_ProxyPushSupplier@AttNotification@@$R07CI@PPPPPPPM@7AEPBDXZ
?_mostDerivedRepoId@_impl_ProxyPushSupplier@AttNotification@@$R0NM@CI@PPPPPPPM@7AEPBDXZ
?_mostDerivedRepoId@_impl_ProxyPushSupplier@CosEventChannelAdmin@@$0PPPPPPPM@A@AEPBDXZ
?_mostDerivedRepoId@_impl_ProxyPushSupplier@CosEventChannelAdmin@@$R07M@PPPPPPPM@M@AEPBDXZ
?_mostDerivedRepoId@_impl_ProxyPushSupplier@CosNotifyChannelAdmin@@$0PPPPPPPM@A@AEPBDXZ
?_mostDerivedRepoId@_impl_ProxyPushSupplier@CosNotifyChannelAdmin@@$R07CA@PPPPPPPM@M@AEPBDXZ
?_mostDerivedRepoId@_impl_ProxySupplier@CosNotifyChannelAdmin@@$0PPPPPPPM@A@AEPBDXZ
?_mostDerivedRepoId@_impl_ProxySupplier@CosNotifyChannelAdmin@@$R07BA@PPPPPPPM@M@AEPBDXZ
?_mostDerivedRepoId@_impl_PullConsumer@CosEventComm@@$0PPPPPPPM@A@AEPBDXZ
?_mostDerivedRepoId@_impl_PullConsumer@CosEventComm@@$R077PPPPPPPM@M@AEPBDXZ
?_mostDerivedRepoId@_impl_PullConsumer@CosNotifyComm@@$0PPPPPPPM@A@AEPBDXZ
?_mostDerivedRepoId@_impl_PullConsumer@CosNotifyComm@@$R07BA@PPPPPPPM@7AEPBDXZ
?_mostDerivedRepoId@_impl_PullSupplier@CosEventComm@@$0PPPPPPPM@A@AEPBDXZ
?_mostDerivedRepoId@_impl_PullSupplier@CosEventComm@@$R077PPPPPPPM@M@AEPBDXZ
?_mostDerivedRepoId@_impl_PullSupplier@CosNotifyComm@@$0PPPPPPPM@A@AEPBDXZ
?_mostDerivedRepoId@_impl_PullSupplier@CosNotifyComm@@$R07BA@PPPPPPPM@7AEPBDXZ
?_mostDerivedRepoId@_impl_PushConsumer@CosEventComm@@$0PPPPPPPM@A@AEPBDXZ
?_mostDerivedRepoId@_impl_PushConsumer@CosEventComm@@$R077PPPPPPPM@M@AEPBDXZ
?_mostDerivedRepoId@_impl_PushConsumer@CosNotifyComm@@$0PPPPPPPM@A@AEPBDXZ
?_mostDerivedRepoId@_impl_PushConsumer@CosNotifyComm@@$R07BA@PPPPPPPM@7AEPBDXZ
?_mostDerivedRepoId@_impl_PushSupplier@CosEventComm@@$0PPPPPPPM@A@AEPBDXZ
?_mostDerivedRepoId@_impl_PushSupplier@CosEventComm@@$R077PPPPPPPM@M@AEPBDXZ
?_mostDerivedRepoId@_impl_PushSupplier@CosNotifyComm@@$0PPPPPPPM@A@AEPBDXZ
?_mostDerivedRepoId@_impl_PushSupplier@CosNotifyComm@@$R07BA@PPPPPPPM@7AEPBDXZ
?_mostDerivedRepoId@_impl_QoSAdmin@CosNotification@@$0PPPPPPPM@A@AEPBDXZ
?_mostDerivedRepoId@_impl_QoSAdmin@CosNotification@@$R077PPPPPPPM@M@AEPBDXZ
?_mostDerivedRepoId@_impl_SequenceProxyPullConsumer@AttNotification@@$0PPPPPPPM@A@AEPBDXZ
?_mostDerivedRepoId@_impl_SequenceProxyPullConsumer@AttNotification@@$R07CE@PPPPPPPM@7AEPBDXZ
?_mostDerivedRepoId@_impl_SequenceProxyPullConsumer@AttNotification@@$R0NM@CE@PPPPPPPM@7AEPBDXZ
?_mostDerivedRepoId@_impl_SequenceProxyPullConsumer@CosNotifyChannelAdmin@@$0PPPPPPPM@A@AEPBDXZ
?_mostDerivedRepoId@_impl_SequenceProxyPullConsumer@CosNotifyChannelAdmin@@$R07BM@PPPPPPPM@M@AEPBDXZ
?_mostDerivedRepoId@_impl_SequenceProxyPullSupplier@AttNotification@@$0PPPPPPPM@A@AEPBDXZ
?_mostDerivedRepoId@_impl_SequenceProxyPullSupplier@AttNotification@@$R07CE@PPPPPPPM@7AEPBDXZ
?_mostDerivedRepoId@_impl_SequenceProxyPullSupplier@AttNotification@@$R0NE@CE@PPPPPPPM@7AEPBDXZ
?_mostDerivedRepoId@_impl_SequenceProxyPullSupplier@CosNotifyChannelAdmin@@$0PPPPPPPM@A@AEPBDXZ
?_mostDerivedRepoId@_impl_SequenceProxyPullSupplier@CosNotifyChannelAdmin@@$R07BM@PPPPPPPM@M@AEPBDXZ
?_mostDerivedRepoId@_impl_SequenceProxyPushConsumer@AttNotification@@$0PPPPPPPM@A@AEPBDXZ
?_mostDerivedRepoId@_impl_SequenceProxyPushConsumer@AttNotification@@$R07CE@PPPPPPPM@7AEPBDXZ
?_mostDerivedRepoId@_impl_SequenceProxyPushConsumer@AttNotification@@$R0ME@CE@PPPPPPPM@7AEPBDXZ
?_mostDerivedRepoId@_impl_SequenceProxyPushConsumer@CosNotifyChannelAdmin@@$0PPPPPPPM@A@AEPBDXZ
?_mostDerivedRepoId@_impl_SequenceProxyPushConsumer@CosNotifyChannelAdmin@@$R07BM@PPPPPPPM@M@AEPBDXZ
?_mostDerivedRepoId@_impl_SequenceProxyPushSupplier@AttNotification@@$0PPPPPPPM@A@AEPBDXZ
?_mostDerivedRepoId@_impl_SequenceProxyPushSupplier@AttNotification@@$R07CE@PPPPPPPM@7AEPBDXZ
?_mostDerivedRepoId@_impl_SequenceProxyPushSupplier@AttNotification@@$R0NM@CE@PPPPPPPM@7AEPBDXZ
?_mostDerivedRepoId@_impl_SequenceProxyPushSupplier@CosNotifyChannelAdmin@@$0PPPPPPPM@A@AEPBDXZ
?_mostDerivedRepoId@_impl_SequenceProxyPushSupplier@CosNotifyChannelAdmin@@$R07BM@PPPPPPPM@M@AEPBDXZ
?_mostDerivedRepoId@_impl_SequencePullConsumer@CosNotifyComm@@$0PPPPPPPM@A@AEPBDXZ
?_mostDerivedRepoId@_impl_SequencePullConsumer@CosNotifyComm@@$R07M@PPPPPPPM@M@AEPBDXZ
?_mostDerivedRepoId@_impl_SequencePullSupplier@CosNotifyComm@@$0PPPPPPPM@A@AEPBDXZ
?_mostDerivedRepoId@_impl_SequencePullSupplier@CosNotifyComm@@$R07M@PPPPPPPM@M@AEPBDXZ
?_mostDerivedRepoId@_impl_SequencePushConsumer@CosNotifyComm@@$0PPPPPPPM@A@AEPBDXZ
?_mostDerivedRepoId@_impl_SequencePushConsumer@CosNotifyComm@@$R07M@PPPPPPPM@M@AEPBDXZ
?_mostDerivedRepoId@_impl_SequencePushSupplier@CosNotifyComm@@$0PPPPPPPM@A@AEPBDXZ
?_mostDerivedRepoId@_impl_SequencePushSupplier@CosNotifyComm@@$R07M@PPPPPPPM@M@AEPBDXZ
?_mostDerivedRepoId@_impl_Server@AttNotification@@$0PPPPPPPM@A@AEPBDXZ
?_mostDerivedRepoId@_impl_Server@AttNotification@@$R07M@PPPPPPPM@M@AEPBDXZ
?_mostDerivedRepoId@_impl_Server@AttNotification@@$R0GA@M@PPPPPPPM@M@AEPBDXZ
?_mostDerivedRepoId@_impl_StructuredProxyPullConsumer@AttNotification@@$0PPPPPPPM@A@AEPBDXZ
?_mostDerivedRepoId@_impl_StructuredProxyPullConsumer@AttNotification@@$R07CE@PPPPPPPM@7AEPBDXZ
?_mostDerivedRepoId@_impl_StructuredProxyPullConsumer@AttNotification@@$R0NM@CE@PPPPPPPM@7AEPBDXZ
?_mostDerivedRepoId@_impl_StructuredProxyPullConsumer@CosNotifyChannelAdmin@@$0PPPPPPPM@A@AEPBDXZ
?_mostDerivedRepoId@_impl_StructuredProxyPullConsumer@CosNotifyChannelAdmin@@$R07BM@PPPPPPPM@M@AEPBDXZ
?_mostDerivedRepoId@_impl_StructuredProxyPullSupplier@AttNotification@@$0PPPPPPPM@A@AEPBDXZ
?_mostDerivedRepoId@_impl_StructuredProxyPullSupplier@AttNotification@@$R07CE@PPPPPPPM@7AEPBDXZ
?_mostDerivedRepoId@_impl_StructuredProxyPullSupplier@AttNotification@@$R0MM@CE@PPPPPPPM@7AEPBDXZ
?_mostDerivedRepoId@_impl_StructuredProxyPullSupplier@CosNotifyChannelAdmin@@$0PPPPPPPM@A@AEPBDXZ
?_mostDerivedRepoId@_impl_StructuredProxyPullSupplier@CosNotifyChannelAdmin@@$R07BM@PPPPPPPM@M@AEPBDXZ
?_mostDerivedRepoId@_impl_StructuredProxyPushConsumer@AttNotification@@$0PPPPPPPM@A@AEPBDXZ
?_mostDerivedRepoId@_impl_StructuredProxyPushConsumer@AttNotification@@$R07CE@PPPPPPPM@7AEPBDXZ
?_mostDerivedRepoId@_impl_StructuredProxyPushConsumer@AttNotification@@$R0ME@CE@PPPPPPPM@7AEPBDXZ
?_mostDerivedRepoId@_impl_StructuredProxyPushConsumer@CosNotifyChannelAdmin@@$0PPPPPPPM@A@AEPBDXZ
?_mostDerivedRepoId@_impl_StructuredProxyPushConsumer@CosNotifyChannelAdmin@@$R07BM@PPPPPPPM@M@AEPBDXZ
?_mostDerivedRepoId@_impl_StructuredProxyPushSupplier@AttNotification@@$0PPPPPPPM@A@AEPBDXZ
?_mostDerivedRepoId@_impl_StructuredProxyPushSupplier@AttNotification@@$R07CE@PPPPPPPM@7AEPBDXZ
?_mostDerivedRepoId@_impl_StructuredProxyPushSupplier@AttNotification@@$R0NE@CE@PPPPPPPM@7AEPBDXZ
?_mostDerivedRepoId@_impl_StructuredProxyPushSupplier@CosNotifyChannelAdmin@@$0PPPPPPPM@A@AEPBDXZ
?_mostDerivedRepoId@_impl_StructuredProxyPushSupplier@CosNotifyChannelAdmin@@$R07BM@PPPPPPPM@M@AEPBDXZ
?_mostDerivedRepoId@_impl_StructuredPullConsumer@CosNotifyComm@@$0PPPPPPPM@A@AEPBDXZ
?_mostDerivedRepoId@_impl_StructuredPullConsumer@CosNotifyComm@@$R07M@PPPPPPPM@M@AEPBDXZ
?_mostDerivedRepoId@_impl_StructuredPullSupplier@CosNotifyComm@@$0PPPPPPPM@A@AEPBDXZ
?_mostDerivedRepoId@_impl_StructuredPullSupplier@CosNotifyComm@@$R07M@PPPPPPPM@M@AEPBDXZ
?_mostDerivedRepoId@_impl_StructuredPushConsumer@CosNotifyComm@@$0PPPPPPPM@A@AEPBDXZ
?_mostDerivedRepoId@_impl_StructuredPushConsumer@CosNotifyComm@@$R07M@PPPPPPPM@M@AEPBDXZ
?_mostDerivedRepoId@_impl_StructuredPushSupplier@CosNotifyComm@@$0PPPPPPPM@A@AEPBDXZ
?_mostDerivedRepoId@_impl_StructuredPushSupplier@CosNotifyComm@@$R07M@PPPPPPPM@M@AEPBDXZ
?_mostDerivedRepoId@_impl_SupplierAdmin@AttNotification@@$0PPPPPPPM@A@AEPBDXZ
?_mostDerivedRepoId@_impl_SupplierAdmin@AttNotification@@$R07CA@PPPPPPPM@7AEPBDXZ
?_mostDerivedRepoId@_impl_SupplierAdmin@AttNotification@@$R0BPA@CA@PPPPPPPM@7AEPBDXZ
?_mostDerivedRepoId@_impl_SupplierAdmin@CosEventChannelAdmin@@$0PPPPPPPM@A@AEPBDXZ
?_mostDerivedRepoId@_impl_SupplierAdmin@CosEventChannelAdmin@@$R077PPPPPPPM@M@AEPBDXZ
?_mostDerivedRepoId@_impl_SupplierAdmin@CosNotifyChannelAdmin@@$0PPPPPPPM@A@AEPBDXZ
?_mostDerivedRepoId@_impl_SupplierAdmin@CosNotifyChannelAdmin@@$R07BI@PPPPPPPM@M@AEPBDXZ
?_new_structured_event@EventChannel_i@@AAEHPAVRDI_StructuredEvent@@@Z
?_newlblctr@RDI_Op@@0HA
?_next_available@RDI_ChangePool@@AAEPAUProxyEntry_t@1@PAPAUCEntry_t@1@@Z
?_next_available@RDI_NotifyConsumer@@AAEPAUProxyEntry_t@1@PAK0@Z
?_next_available@RDI_PullSupplier@@AAEPAUProxyEntry_t@1@PAK0@Z
?_null_ops@RDI_RVM@@AAEXXZ
?_one_call_per_connection@WRAPPED_ORB_OA@@2_NA
?_oplock@RDIOplocks@@0Vomni_mutex@@A
?_oplock_ptrhash@RDIOplocks@@0Vomni_mutex@@A
?_orb@WRAPPED_ORB_OA@@2PAVORB@CORBA@@A
?_parent@RDIPriorityQueue@@CAKK@Z
?_poa@WRAPPED_ORB_OA@@2PAVPOA@PortableServer@@A
?_poa_activated@WRAPPED_ORB_OA@@2_NA
?_poolGCollect@RDI_ChangePool@@AAEXXZ
?_prepend@RDIOplockEntry@@AAEXPAV1@@Z
?_propagate_ochange@SupplierAdmin_i@@AAEXAAURDI_LocksHeld_s@@ABVEventTypeSeq@CosNotification@@1@Z
?_proxy_id@RDIProxyConsumer@@QAEJXZ
?_proxy_id@RDIProxySupplier@@QAEJXZ
?_ptrToInterface@_impl_AdminPropertiesAdmin@CosNotification@@$0PPPPPPPM@A@AEPAXPBD@Z
?_ptrToInterface@_impl_AdminPropertiesAdmin@CosNotification@@$R077PPPPPPPM@M@AEPAXPBD@Z
?_ptrToInterface@_impl_ConsumerAdmin@AttNotification@@$0PPPPPPPM@A@AEPAXPBD@Z
?_ptrToInterface@_impl_ConsumerAdmin@AttNotification@@$R07CA@PPPPPPPM@7AEPAXPBD@Z
?_ptrToInterface@_impl_ConsumerAdmin@AttNotification@@$R0BNI@CA@PPPPPPPM@7AEPAXPBD@Z
?_ptrToInterface@_impl_ConsumerAdmin@CosEventChannelAdmin@@$0PPPPPPPM@A@AEPAXPBD@Z
?_ptrToInterface@_impl_ConsumerAdmin@CosEventChannelAdmin@@$R077PPPPPPPM@M@AEPAXPBD@Z
?_ptrToInterface@_impl_ConsumerAdmin@CosNotifyChannelAdmin@@$0PPPPPPPM@A@AEPAXPBD@Z
?_ptrToInterface@_impl_ConsumerAdmin@CosNotifyChannelAdmin@@$R07BI@PPPPPPPM@M@AEPAXPBD@Z
?_ptrToInterface@_impl_CosEvProxyPullConsumer@AttNotification@@$0PPPPPPPM@A@AEPAXPBD@Z
?_ptrToInterface@_impl_CosEvProxyPullConsumer@AttNotification@@$R07BE@PPPPPPPM@7AEPAXPBD@Z
?_ptrToInterface@_impl_CosEvProxyPullConsumer@AttNotification@@$R0FE@BE@PPPPPPPM@7AEPAXPBD@Z
?_ptrToInterface@_impl_CosEvProxyPullSupplier@AttNotification@@$0PPPPPPPM@A@AEPAXPBD@Z
?_ptrToInterface@_impl_CosEvProxyPullSupplier@AttNotification@@$R07BE@PPPPPPPM@7AEPAXPBD@Z
?_ptrToInterface@_impl_CosEvProxyPullSupplier@AttNotification@@$R0FM@BE@PPPPPPPM@7AEPAXPBD@Z
?_ptrToInterface@_impl_CosEvProxyPushConsumer@AttNotification@@$0PPPPPPPM@A@AEPAXPBD@Z
?_ptrToInterface@_impl_CosEvProxyPushConsumer@AttNotification@@$R07BE@PPPPPPPM@7AEPAXPBD@Z
?_ptrToInterface@_impl_CosEvProxyPushConsumer@AttNotification@@$R0DM@BE@PPPPPPPM@7AEPAXPBD@Z
?_ptrToInterface@_impl_CosEvProxyPushSupplier@AttNotification@@$0PPPPPPPM@A@AEPAXPBD@Z
?_ptrToInterface@_impl_CosEvProxyPushSupplier@AttNotification@@$R07BE@PPPPPPPM@7AEPAXPBD@Z
?_ptrToInterface@_impl_CosEvProxyPushSupplier@AttNotification@@$R0GM@BE@PPPPPPPM@7AEPAXPBD@Z
?_ptrToInterface@_impl_EventChannel@AttNotification@@$0PPPPPPPM@A@AEPAXPBD@Z
?_ptrToInterface@_impl_EventChannel@AttNotification@@$R07BM@PPPPPPPM@M@AEPAXPBD@Z
?_ptrToInterface@_impl_EventChannel@AttNotification@@$R0CBM@BM@PPPPPPPM@M@AEPAXPBD@Z
?_ptrToInterface@_impl_EventChannel@CosEventChannelAdmin@@$0PPPPPPPM@A@AEPAXPBD@Z
?_ptrToInterface@_impl_EventChannel@CosEventChannelAdmin@@$R077PPPPPPPM@M@AEPAXPBD@Z
?_ptrToInterface@_impl_EventChannel@CosNotifyChannelAdmin@@$0PPPPPPPM@A@AEPAXPBD@Z
?_ptrToInterface@_impl_EventChannel@CosNotifyChannelAdmin@@$R07BE@PPPPPPPM@M@AEPAXPBD@Z
?_ptrToInterface@_impl_EventChannelFactory@AttNotification@@$0PPPPPPPM@A@AEPAXPBD@Z
?_ptrToInterface@_impl_EventChannelFactory@AttNotification@@$R07BI@PPPPPPPM@7AEPAXPBD@Z
?_ptrToInterface@_impl_EventChannelFactory@AttNotification@@$R0LM@BI@PPPPPPPM@7AEPAXPBD@Z
?_ptrToInterface@_impl_EventChannelFactory@CosNotifyChannelAdmin@@$0PPPPPPPM@A@AEPAXPBD@Z
?_ptrToInterface@_impl_EventChannelFactory@CosNotifyChannelAdmin@@$R077PPPPPPPM@M@AEPAXPBD@Z
?_ptrToInterface@_impl_Filter@AttNotification@@$0PPPPPPPM@A@AEPAXPBD@Z
?_ptrToInterface@_impl_Filter@AttNotification@@$R07BA@PPPPPPPM@M@AEPAXPBD@Z
?_ptrToInterface@_impl_Filter@AttNotification@@$R0BAM@BA@PPPPPPPM@M@AEPAXPBD@Z
?_ptrToInterface@_impl_Filter@CosNotifyFilter@@$0PPPPPPPM@A@AEPAXPBD@Z
?_ptrToInterface@_impl_Filter@CosNotifyFilter@@$R077PPPPPPPM@M@AEPAXPBD@Z
?_ptrToInterface@_impl_FilterAdmin@CosNotifyFilter@@$0PPPPPPPM@A@AEPAXPBD@Z
?_ptrToInterface@_impl_FilterAdmin@CosNotifyFilter@@$R077PPPPPPPM@M@AEPAXPBD@Z
?_ptrToInterface@_impl_FilterFactory@AttNotification@@$0PPPPPPPM@A@AEPAXPBD@Z
?_ptrToInterface@_impl_FilterFactory@AttNotification@@$R07BA@PPPPPPPM@7AEPAXPBD@Z
?_ptrToInterface@_impl_FilterFactory@AttNotification@@$R0DI@BA@PPPPPPPM@7AEPAXPBD@Z
?_ptrToInterface@_impl_FilterFactory@CosNotifyFilter@@$0PPPPPPPM@A@AEPAXPBD@Z
?_ptrToInterface@_impl_FilterFactory@CosNotifyFilter@@$R077PPPPPPPM@M@AEPAXPBD@Z
?_ptrToInterface@_impl_Interactive@AttNotification@@$0PPPPPPPM@A@AEPAXPBD@Z
?_ptrToInterface@_impl_Interactive@AttNotification@@$R077PPPPPPPM@M@AEPAXPBD@Z
?_ptrToInterface@_impl_MappingFilter@AttNotification@@$0PPPPPPPM@A@AEPAXPBD@Z
?_ptrToInterface@_impl_MappingFilter@AttNotification@@$R07BA@PPPPPPPM@7AEPAXPBD@Z
?_ptrToInterface@_impl_MappingFilter@AttNotification@@$R0EE@BA@PPPPPPPM@7AEPAXPBD@Z
?_ptrToInterface@_impl_MappingFilter@CosNotifyFilter@@$0PPPPPPPM@A@AEPAXPBD@Z
?_ptrToInterface@_impl_MappingFilter@CosNotifyFilter@@$R077PPPPPPPM@M@AEPAXPBD@Z
?_ptrToInterface@_impl_NotifyPublish@CosNotifyComm@@$0PPPPPPPM@A@AEPAXPBD@Z
?_ptrToInterface@_impl_NotifyPublish@CosNotifyComm@@$R077PPPPPPPM@M@AEPAXPBD@Z
?_ptrToInterface@_impl_NotifySubscribe@CosNotifyComm@@$0PPPPPPPM@A@AEPAXPBD@Z
?_ptrToInterface@_impl_NotifySubscribe@CosNotifyComm@@$R077PPPPPPPM@M@AEPAXPBD@Z
?_ptrToInterface@_impl_ProxyConsumer@CosNotifyChannelAdmin@@$0PPPPPPPM@A@AEPAXPBD@Z
?_ptrToInterface@_impl_ProxyConsumer@CosNotifyChannelAdmin@@$R07BA@PPPPPPPM@M@AEPAXPBD@Z
?_ptrToInterface@_impl_ProxyPullConsumer@AttNotification@@$0PPPPPPPM@A@AEPAXPBD@Z
?_ptrToInterface@_impl_ProxyPullConsumer@AttNotification@@$R07CI@PPPPPPPM@7AEPAXPBD@Z
?_ptrToInterface@_impl_ProxyPullConsumer@AttNotification@@$R0NM@CI@PPPPPPPM@7AEPAXPBD@Z
?_ptrToInterface@_impl_ProxyPullConsumer@CosEventChannelAdmin@@$0PPPPPPPM@A@AEPAXPBD@Z
?_ptrToInterface@_impl_ProxyPullConsumer@CosEventChannelAdmin@@$R07M@PPPPPPPM@M@AEPAXPBD@Z
?_ptrToInterface@_impl_ProxyPullConsumer@CosNotifyChannelAdmin@@$0PPPPPPPM@A@AEPAXPBD@Z
?_ptrToInterface@_impl_ProxyPullConsumer@CosNotifyChannelAdmin@@$R07CA@PPPPPPPM@M@AEPAXPBD@Z
?_ptrToInterface@_impl_ProxyPullSupplier@AttNotification@@$0PPPPPPPM@A@AEPAXPBD@Z
?_ptrToInterface@_impl_ProxyPullSupplier@AttNotification@@$R07CI@PPPPPPPM@7AEPAXPBD@Z
?_ptrToInterface@_impl_ProxyPullSupplier@AttNotification@@$R0MM@CI@PPPPPPPM@7AEPAXPBD@Z
?_ptrToInterface@_impl_ProxyPullSupplier@CosEventChannelAdmin@@$0PPPPPPPM@A@AEPAXPBD@Z
?_ptrToInterface@_impl_ProxyPullSupplier@CosEventChannelAdmin@@$R07M@PPPPPPPM@M@AEPAXPBD@Z
?_ptrToInterface@_impl_ProxyPullSupplier@CosNotifyChannelAdmin@@$0PPPPPPPM@A@AEPAXPBD@Z
?_ptrToInterface@_impl_ProxyPullSupplier@CosNotifyChannelAdmin@@$R07CA@PPPPPPPM@M@AEPAXPBD@Z
?_ptrToInterface@_impl_ProxyPushConsumer@AttNotification@@$0PPPPPPPM@A@AEPAXPBD@Z
?_ptrToInterface@_impl_ProxyPushConsumer@AttNotification@@$R07CI@PPPPPPPM@7AEPAXPBD@Z
?_ptrToInterface@_impl_ProxyPushConsumer@AttNotification@@$R0ME@CI@PPPPPPPM@7AEPAXPBD@Z
?_ptrToInterface@_impl_ProxyPushConsumer@CosEventChannelAdmin@@$0PPPPPPPM@A@AEPAXPBD@Z
?_ptrToInterface@_impl_ProxyPushConsumer@CosEventChannelAdmin@@$R07M@PPPPPPPM@M@AEPAXPBD@Z
?_ptrToInterface@_impl_ProxyPushConsumer@CosNotifyChannelAdmin@@$0PPPPPPPM@A@AEPAXPBD@Z
?_ptrToInterface@_impl_ProxyPushConsumer@CosNotifyChannelAdmin@@$R07CA@PPPPPPPM@M@AEPAXPBD@Z
?_ptrToInterface@_impl_ProxyPushSupplier@AttNotification@@$0PPPPPPPM@A@AEPAXPBD@Z
?_ptrToInterface@_impl_ProxyPushSupplier@AttNotification@@$R07CI@PPPPPPPM@7AEPAXPBD@Z
?_ptrToInterface@_impl_ProxyPushSupplier@AttNotification@@$R0NM@CI@PPPPPPPM@7AEPAXPBD@Z
?_ptrToInterface@_impl_ProxyPushSupplier@CosEventChannelAdmin@@$0PPPPPPPM@A@AEPAXPBD@Z
?_ptrToInterface@_impl_ProxyPushSupplier@CosEventChannelAdmin@@$R07M@PPPPPPPM@M@AEPAXPBD@Z
?_ptrToInterface@_impl_ProxyPushSupplier@CosNotifyChannelAdmin@@$0PPPPPPPM@A@AEPAXPBD@Z
?_ptrToInterface@_impl_ProxyPushSupplier@CosNotifyChannelAdmin@@$R07CA@PPPPPPPM@M@AEPAXPBD@Z
?_ptrToInterface@_impl_ProxySupplier@CosNotifyChannelAdmin@@$0PPPPPPPM@A@AEPAXPBD@Z
?_ptrToInterface@_impl_ProxySupplier@CosNotifyChannelAdmin@@$R07BA@PPPPPPPM@M@AEPAXPBD@Z
?_ptrToInterface@_impl_PullConsumer@CosEventComm@@$0PPPPPPPM@A@AEPAXPBD@Z
?_ptrToInterface@_impl_PullConsumer@CosEventComm@@$R077PPPPPPPM@M@AEPAXPBD@Z
?_ptrToInterface@_impl_PullConsumer@CosNotifyComm@@$0PPPPPPPM@A@AEPAXPBD@Z
?_ptrToInterface@_impl_PullConsumer@CosNotifyComm@@$R07BA@PPPPPPPM@7AEPAXPBD@Z
?_ptrToInterface@_impl_PullSupplier@CosEventComm@@$0PPPPPPPM@A@AEPAXPBD@Z
?_ptrToInterface@_impl_PullSupplier@CosEventComm@@$R077PPPPPPPM@M@AEPAXPBD@Z
?_ptrToInterface@_impl_PullSupplier@CosNotifyComm@@$0PPPPPPPM@A@AEPAXPBD@Z
?_ptrToInterface@_impl_PullSupplier@CosNotifyComm@@$R07BA@PPPPPPPM@7AEPAXPBD@Z
?_ptrToInterface@_impl_PushConsumer@CosEventComm@@$0PPPPPPPM@A@AEPAXPBD@Z
?_ptrToInterface@_impl_PushConsumer@CosEventComm@@$R077PPPPPPPM@M@AEPAXPBD@Z
?_ptrToInterface@_impl_PushConsumer@CosNotifyComm@@$0PPPPPPPM@A@AEPAXPBD@Z
?_ptrToInterface@_impl_PushConsumer@CosNotifyComm@@$R07BA@PPPPPPPM@7AEPAXPBD@Z
?_ptrToInterface@_impl_PushSupplier@CosEventComm@@$0PPPPPPPM@A@AEPAXPBD@Z
?_ptrToInterface@_impl_PushSupplier@CosEventComm@@$R077PPPPPPPM@M@AEPAXPBD@Z
?_ptrToInterface@_impl_PushSupplier@CosNotifyComm@@$0PPPPPPPM@A@AEPAXPBD@Z
?_ptrToInterface@_impl_PushSupplier@CosNotifyComm@@$R07BA@PPPPPPPM@7AEPAXPBD@Z
?_ptrToInterface@_impl_QoSAdmin@CosNotification@@$0PPPPPPPM@A@AEPAXPBD@Z
?_ptrToInterface@_impl_QoSAdmin@CosNotification@@$R077PPPPPPPM@M@AEPAXPBD@Z
?_ptrToInterface@_impl_SequenceProxyPullConsumer@AttNotification@@$0PPPPPPPM@A@AEPAXPBD@Z
?_ptrToInterface@_impl_SequenceProxyPullConsumer@AttNotification@@$R07CE@PPPPPPPM@7AEPAXPBD@Z
?_ptrToInterface@_impl_SequenceProxyPullConsumer@AttNotification@@$R0NM@CE@PPPPPPPM@7AEPAXPBD@Z
?_ptrToInterface@_impl_SequenceProxyPullConsumer@CosNotifyChannelAdmin@@$0PPPPPPPM@A@AEPAXPBD@Z
?_ptrToInterface@_impl_SequenceProxyPullConsumer@CosNotifyChannelAdmin@@$R07BM@PPPPPPPM@M@AEPAXPBD@Z
?_ptrToInterface@_impl_SequenceProxyPullSupplier@AttNotification@@$0PPPPPPPM@A@AEPAXPBD@Z
?_ptrToInterface@_impl_SequenceProxyPullSupplier@AttNotification@@$R07CE@PPPPPPPM@7AEPAXPBD@Z
?_ptrToInterface@_impl_SequenceProxyPullSupplier@AttNotification@@$R0NE@CE@PPPPPPPM@7AEPAXPBD@Z
?_ptrToInterface@_impl_SequenceProxyPullSupplier@CosNotifyChannelAdmin@@$0PPPPPPPM@A@AEPAXPBD@Z
?_ptrToInterface@_impl_SequenceProxyPullSupplier@CosNotifyChannelAdmin@@$R07BM@PPPPPPPM@M@AEPAXPBD@Z
?_ptrToInterface@_impl_SequenceProxyPushConsumer@AttNotification@@$0PPPPPPPM@A@AEPAXPBD@Z
?_ptrToInterface@_impl_SequenceProxyPushConsumer@AttNotification@@$R07CE@PPPPPPPM@7AEPAXPBD@Z
?_ptrToInterface@_impl_SequenceProxyPushConsumer@AttNotification@@$R0ME@CE@PPPPPPPM@7AEPAXPBD@Z
?_ptrToInterface@_impl_SequenceProxyPushConsumer@CosNotifyChannelAdmin@@$0PPPPPPPM@A@AEPAXPBD@Z
?_ptrToInterface@_impl_SequenceProxyPushConsumer@CosNotifyChannelAdmin@@$R07BM@PPPPPPPM@M@AEPAXPBD@Z
?_ptrToInterface@_impl_SequenceProxyPushSupplier@AttNotification@@$0PPPPPPPM@A@AEPAXPBD@Z
?_ptrToInterface@_impl_SequenceProxyPushSupplier@AttNotification@@$R07CE@PPPPPPPM@7AEPAXPBD@Z
?_ptrToInterface@_impl_SequenceProxyPushSupplier@AttNotification@@$R0NM@CE@PPPPPPPM@7AEPAXPBD@Z
?_ptrToInterface@_impl_SequenceProxyPushSupplier@CosNotifyChannelAdmin@@$0PPPPPPPM@A@AEPAXPBD@Z
?_ptrToInterface@_impl_SequenceProxyPushSupplier@CosNotifyChannelAdmin@@$R07BM@PPPPPPPM@M@AEPAXPBD@Z
?_ptrToInterface@_impl_SequencePullConsumer@CosNotifyComm@@$0PPPPPPPM@A@AEPAXPBD@Z
?_ptrToInterface@_impl_SequencePullConsumer@CosNotifyComm@@$R07M@PPPPPPPM@M@AEPAXPBD@Z
?_ptrToInterface@_impl_SequencePullSupplier@CosNotifyComm@@$0PPPPPPPM@A@AEPAXPBD@Z
?_ptrToInterface@_impl_SequencePullSupplier@CosNotifyComm@@$R07M@PPPPPPPM@M@AEPAXPBD@Z
?_ptrToInterface@_impl_SequencePushConsumer@CosNotifyComm@@$0PPPPPPPM@A@AEPAXPBD@Z
?_ptrToInterface@_impl_SequencePushConsumer@CosNotifyComm@@$R07M@PPPPPPPM@M@AEPAXPBD@Z
?_ptrToInterface@_impl_SequencePushSupplier@CosNotifyComm@@$0PPPPPPPM@A@AEPAXPBD@Z
?_ptrToInterface@_impl_SequencePushSupplier@CosNotifyComm@@$R07M@PPPPPPPM@M@AEPAXPBD@Z
?_ptrToInterface@_impl_Server@AttNotification@@$0PPPPPPPM@A@AEPAXPBD@Z
?_ptrToInterface@_impl_Server@AttNotification@@$R07M@PPPPPPPM@M@AEPAXPBD@Z
?_ptrToInterface@_impl_Server@AttNotification@@$R0GA@M@PPPPPPPM@M@AEPAXPBD@Z
?_ptrToInterface@_impl_StructuredProxyPullConsumer@AttNotification@@$0PPPPPPPM@A@AEPAXPBD@Z
?_ptrToInterface@_impl_StructuredProxyPullConsumer@AttNotification@@$R07CE@PPPPPPPM@7AEPAXPBD@Z
?_ptrToInterface@_impl_StructuredProxyPullConsumer@AttNotification@@$R0NM@CE@PPPPPPPM@7AEPAXPBD@Z
?_ptrToInterface@_impl_StructuredProxyPullConsumer@CosNotifyChannelAdmin@@$0PPPPPPPM@A@AEPAXPBD@Z
?_ptrToInterface@_impl_StructuredProxyPullConsumer@CosNotifyChannelAdmin@@$R07BM@PPPPPPPM@M@AEPAXPBD@Z
?_ptrToInterface@_impl_StructuredProxyPullSupplier@AttNotification@@$0PPPPPPPM@A@AEPAXPBD@Z
?_ptrToInterface@_impl_StructuredProxyPullSupplier@AttNotification@@$R07CE@PPPPPPPM@7AEPAXPBD@Z
?_ptrToInterface@_impl_StructuredProxyPullSupplier@AttNotification@@$R0MM@CE@PPPPPPPM@7AEPAXPBD@Z
?_ptrToInterface@_impl_StructuredProxyPullSupplier@CosNotifyChannelAdmin@@$0PPPPPPPM@A@AEPAXPBD@Z
?_ptrToInterface@_impl_StructuredProxyPullSupplier@CosNotifyChannelAdmin@@$R07BM@PPPPPPPM@M@AEPAXPBD@Z
?_ptrToInterface@_impl_StructuredProxyPushConsumer@AttNotification@@$0PPPPPPPM@A@AEPAXPBD@Z
?_ptrToInterface@_impl_StructuredProxyPushConsumer@AttNotification@@$R07CE@PPPPPPPM@7AEPAXPBD@Z
?_ptrToInterface@_impl_StructuredProxyPushConsumer@AttNotification@@$R0ME@CE@PPPPPPPM@7AEPAXPBD@Z
?_ptrToInterface@_impl_StructuredProxyPushConsumer@CosNotifyChannelAdmin@@$0PPPPPPPM@A@AEPAXPBD@Z
?_ptrToInterface@_impl_StructuredProxyPushConsumer@CosNotifyChannelAdmin@@$R07BM@PPPPPPPM@M@AEPAXPBD@Z
?_ptrToInterface@_impl_StructuredProxyPushSupplier@AttNotification@@$0PPPPPPPM@A@AEPAXPBD@Z
?_ptrToInterface@_impl_StructuredProxyPushSupplier@AttNotification@@$R07CE@PPPPPPPM@7AEPAXPBD@Z
?_ptrToInterface@_impl_StructuredProxyPushSupplier@AttNotification@@$R0NE@CE@PPPPPPPM@7AEPAXPBD@Z
?_ptrToInterface@_impl_StructuredProxyPushSupplier@CosNotifyChannelAdmin@@$0PPPPPPPM@A@AEPAXPBD@Z
?_ptrToInterface@_impl_StructuredProxyPushSupplier@CosNotifyChannelAdmin@@$R07BM@PPPPPPPM@M@AEPAXPBD@Z
?_ptrToInterface@_impl_StructuredPullConsumer@CosNotifyComm@@$0PPPPPPPM@A@AEPAXPBD@Z
?_ptrToInterface@_impl_StructuredPullConsumer@CosNotifyComm@@$R07M@PPPPPPPM@M@AEPAXPBD@Z
?_ptrToInterface@_impl_StructuredPullSupplier@CosNotifyComm@@$0PPPPPPPM@A@AEPAXPBD@Z
?_ptrToInterface@_impl_StructuredPullSupplier@CosNotifyComm@@$R07M@PPPPPPPM@M@AEPAXPBD@Z
?_ptrToInterface@_impl_StructuredPushConsumer@CosNotifyComm@@$0PPPPPPPM@A@AEPAXPBD@Z
?_ptrToInterface@_impl_StructuredPushConsumer@CosNotifyComm@@$R07M@PPPPPPPM@M@AEPAXPBD@Z
?_ptrToInterface@_impl_StructuredPushSupplier@CosNotifyComm@@$0PPPPPPPM@A@AEPAXPBD@Z
?_ptrToInterface@_impl_StructuredPushSupplier@CosNotifyComm@@$R07M@PPPPPPPM@M@AEPAXPBD@Z
?_ptrToInterface@_impl_SupplierAdmin@AttNotification@@$0PPPPPPPM@A@AEPAXPBD@Z
?_ptrToInterface@_impl_SupplierAdmin@AttNotification@@$R07CA@PPPPPPPM@7AEPAXPBD@Z
?_ptrToInterface@_impl_SupplierAdmin@AttNotification@@$R0BPA@CA@PPPPPPPM@7AEPAXPBD@Z
?_ptrToInterface@_impl_SupplierAdmin@CosEventChannelAdmin@@$0PPPPPPPM@A@AEPAXPBD@Z
?_ptrToInterface@_impl_SupplierAdmin@CosEventChannelAdmin@@$R077PPPPPPPM@M@AEPAXPBD@Z
?_ptrToInterface@_impl_SupplierAdmin@CosNotifyChannelAdmin@@$0PPPPPPPM@A@AEPAXPBD@Z
?_ptrToInterface@_impl_SupplierAdmin@CosNotifyChannelAdmin@@$R07BI@PPPPPPPM@M@AEPAXPBD@Z
?_pull@EventProxyPullConsumer_i@@AAEXXZ
?_pull_event@ProxyPullConsumer_i@@AAEXXZ
?_pull_event@SequenceProxyPullConsumer_i@@AAEXXZ
?_pull_event@StructuredProxyPullConsumer_i@@AAEXXZ
?_push@EventProxyPushSupplier_i@@AAEXXZ
?_push_event@ProxyPushSupplier_i@@AAEXXZ
?_push_event@SequenceProxyPushSupplier_i@@AAEXXZ
?_push_event@StructuredProxyPushSupplier_i@@AAEXXZ
?_qos_changed@ConsumerAdmin_i@@AAEXAAURDI_LocksHeld_s@@@Z
?_qos_changed@RDIProxySupplier@@IAEXAAURDI_LocksHeld_s@@@Z
?_remove@RDIOplockEntry@@AAEXXZ
?_remove@RDIPriorityQueue@@AAEPAVRDI_StructuredEvent@@K@Z
?_remove_all_constraints@Filter_i@@AAEXAAURDI_LocksHeld_s@@@Z
?_remove_constraint@Filter_i@@AAEXABJAAVEventTypeSeq@CosNotification@@1@Z
?_remove_idx@?$RDI_SafeList@VConsumerAdmin_i@@@@AAEXH@Z
?_remove_ref@ServantBase@PortableServer@@$4PPPPPPPM@A@AEXXZ
?_remove_ref@ServantBase@PortableServer@@$R47BA@PPPPPPPM@BA@AEXXZ
?_remove_ref@ServantBase@PortableServer@@$R47BE@PPPPPPPM@BA@AEXXZ
?_remove_ref@ServantBase@PortableServer@@$R47BI@PPPPPPPM@BA@AEXXZ
?_remove_ref@ServantBase@PortableServer@@$R47BM@PPPPPPPM@BA@AEXXZ
?_remove_ref@ServantBase@PortableServer@@$R47CA@PPPPPPPM@BA@AEXXZ
?_remove_ref@ServantBase@PortableServer@@$R47CE@PPPPPPPM@BA@AEXXZ
?_remove_ref@ServantBase@PortableServer@@$R47CI@PPPPPPPM@BA@AEXXZ
?_remove_ref@ServantBase@PortableServer@@$R47CM@PPPPPPPM@BA@AEXXZ
?_remove_ref@ServantBase@PortableServer@@$R47M@PPPPPPPM@BA@AEXXZ
?_remove_ref@ServantBase@PortableServer@@$R4BAM@BE@PPPPPPPM@BA@AEXXZ
?_remove_ref@ServantBase@PortableServer@@$R4BNI@CE@PPPPPPPM@BA@AEXXZ
?_remove_ref@ServantBase@PortableServer@@$R4BPA@CE@PPPPPPPM@BA@AEXXZ
?_remove_ref@ServantBase@PortableServer@@$R4CBM@CA@PPPPPPPM@BA@AEXXZ
?_remove_ref@ServantBase@PortableServer@@$R4DI@BE@PPPPPPPM@BA@AEXXZ
?_remove_ref@ServantBase@PortableServer@@$R4DM@BI@PPPPPPPM@BA@AEXXZ
?_remove_ref@ServantBase@PortableServer@@$R4EE@BE@PPPPPPPM@BA@AEXXZ
?_remove_ref@ServantBase@PortableServer@@$R4FE@BI@PPPPPPPM@BA@AEXXZ
?_remove_ref@ServantBase@PortableServer@@$R4FM@BI@PPPPPPPM@BA@AEXXZ
?_remove_ref@ServantBase@PortableServer@@$R4GA@BA@PPPPPPPM@BA@AEXXZ
?_remove_ref@ServantBase@PortableServer@@$R4GM@BI@PPPPPPPM@BA@AEXXZ
?_remove_ref@ServantBase@PortableServer@@$R4LM@BM@PPPPPPPM@BA@AEXXZ
?_remove_ref@ServantBase@PortableServer@@$R4ME@CI@PPPPPPPM@BA@AEXXZ
?_remove_ref@ServantBase@PortableServer@@$R4ME@CM@PPPPPPPM@BA@AEXXZ
?_remove_ref@ServantBase@PortableServer@@$R4MM@CI@PPPPPPPM@BA@AEXXZ
?_remove_ref@ServantBase@PortableServer@@$R4MM@CM@PPPPPPPM@BA@AEXXZ
?_remove_ref@ServantBase@PortableServer@@$R4NE@CI@PPPPPPPM@BA@AEXXZ
?_remove_ref@ServantBase@PortableServer@@$R4NM@CI@PPPPPPPM@BA@AEXXZ
?_remove_ref@ServantBase@PortableServer@@$R4NM@CM@PPPPPPPM@BA@AEXXZ
?_removed_pull_proxy@ConsumerAdmin_i@@AAEXXZ
?_removed_pull_proxy@SupplierAdmin_i@@AAEXPAVRDIProxyPullConsumer@@@Z
?_removed_push_proxy@ConsumerAdmin_i@@AAEXPAVRDIProxyPushSupplier@@@Z
?_removed_push_proxy@SupplierAdmin_i@@AAEXXZ
?_report_reject_any@RDIProxyConsumer@@IAEXPBDJABVAny@CORBA@@@Z
?_report_reject_se@RDIProxyConsumer@@IAEXPBDJABUStructuredEvent@CosNotification@@@Z
?_resize@RDIPriorityQueue@@AAEHXZ
?_revoke_offers@RDIProxyConsumer@@QAEXAAURDI_LocksHeld_s@@@Z
?_right@RDIPriorityQueue@@CAKK@Z
?_rightmost@RDI_Constraint@@AAEPAV1@XZ
?_rpt_stats@EventChannel_i@@QAEXAAVRDIstrstream@@@Z
?_rvmIDctr@RDI_RVM@@0KA
?_sec_head_index@RDIPriorityQueue@@AAEKXZ
?_shutdown@RDIOplocks@@0_NA
?_sort_val@RDINotifQueue@@AAE_KFPAVRDI_StructuredEvent@@@Z
?_swap@RDIPriorityQueue@@AAEXKK@Z
?_this@ConsumerAdmin@POA_AttNotification@@QAEPAV_objref_ConsumerAdmin@AttNotification@@XZ
?_this@CosEvProxyPullConsumer@POA_AttNotification@@QAEPAV_objref_CosEvProxyPullConsumer@AttNotification@@XZ
?_this@CosEvProxyPullSupplier@POA_AttNotification@@QAEPAV_objref_CosEvProxyPullSupplier@AttNotification@@XZ
?_this@CosEvProxyPushConsumer@POA_AttNotification@@QAEPAV_objref_CosEvProxyPushConsumer@AttNotification@@XZ
?_this@CosEvProxyPushSupplier@POA_AttNotification@@QAEPAV_objref_CosEvProxyPushSupplier@AttNotification@@XZ
?_this@EventChannel@POA_AttNotification@@QAEPAV_objref_EventChannel@AttNotification@@XZ
?_this@EventChannelFactory@POA_AttNotification@@QAEPAV_objref_EventChannelFactory@AttNotification@@XZ
?_this@Filter@POA_AttNotification@@QAEPAV_objref_Filter@AttNotification@@XZ
?_this@FilterFactory@POA_AttNotification@@QAEPAV_objref_FilterFactory@AttNotification@@XZ
?_this@MappingFilter@POA_AttNotification@@QAEPAV_objref_MappingFilter@AttNotification@@XZ
?_this@ProxyPullConsumer@POA_AttNotification@@QAEPAV_objref_ProxyPullConsumer@AttNotification@@XZ
?_this@ProxyPullSupplier@POA_AttNotification@@QAEPAV_objref_ProxyPullSupplier@AttNotification@@XZ
?_this@ProxyPushConsumer@POA_AttNotification@@QAEPAV_objref_ProxyPushConsumer@AttNotification@@XZ
?_this@ProxyPushSupplier@POA_AttNotification@@QAEPAV_objref_ProxyPushSupplier@AttNotification@@XZ
?_this@SequenceProxyPullConsumer@POA_AttNotification@@QAEPAV_objref_SequenceProxyPullConsumer@AttNotification@@XZ
?_this@SequenceProxyPullSupplier@POA_AttNotification@@QAEPAV_objref_SequenceProxyPullSupplier@AttNotification@@XZ
?_this@SequenceProxyPushConsumer@POA_AttNotification@@QAEPAV_objref_SequenceProxyPushConsumer@AttNotification@@XZ
?_this@SequenceProxyPushSupplier@POA_AttNotification@@QAEPAV_objref_SequenceProxyPushSupplier@AttNotification@@XZ
?_this@Server@POA_AttNotification@@QAEPAV_objref_Server@AttNotification@@XZ
?_this@StructuredProxyPullConsumer@POA_AttNotification@@QAEPAV_objref_StructuredProxyPullConsumer@AttNotification@@XZ
?_this@StructuredProxyPullSupplier@POA_AttNotification@@QAEPAV_objref_StructuredProxyPullSupplier@AttNotification@@XZ
?_this@StructuredProxyPushConsumer@POA_AttNotification@@QAEPAV_objref_StructuredProxyPushConsumer@AttNotification@@XZ
?_this@StructuredProxyPushSupplier@POA_AttNotification@@QAEPAV_objref_StructuredProxyPushSupplier@AttNotification@@XZ
?_this@SupplierAdmin@POA_AttNotification@@QAEPAV_objref_SupplierAdmin@AttNotification@@XZ
?_update_ev_tables@Filter_i@@AAEXABUConstraintExp@CosNotifyFilter@@AAVEventTypeSeq@CosNotification@@1@Z
?_widenAndResultKinds@RDI_RVM@@AAEXW4RDI_RTValKind@@0AAW42@1@Z
?acquire@RDIOplockEntry@@QAE_NPAPAV1@@Z
?activate_oas@WRAPPED_ORB_OA@@SAXXZ
?add_assoc@RDI_Constraint@@QAEPAV1@PAVRDI_PCState@@PAD@Z
?add_condition@RDIOplockEntry@@QAEPAVomni_condition@@XZ
?add_constraints@Filter_i@@$4PPPPPPPM@A@AEPAVConstraintInfoSeq@CosNotifyFilter@@ABVConstraintExpSeq@3@@Z
?add_constraints@Filter_i@@UAEPAVConstraintInfoSeq@CosNotifyFilter@@ABVConstraintExpSeq@3@@Z
?add_dot_ident@RDI_Constraint@@QAEPAV1@PAVRDI_PCState@@PAD@Z
?add_dot_num@RDI_Constraint@@QAEPAV1@PAVRDI_PCState@@PAD@Z
?add_event@EventProxyPullSupplier_i@@QAEXPAVRDI_StructuredEvent@@@Z
?add_event@EventProxyPushSupplier_i@@QAEXPAVRDI_StructuredEvent@@@Z
?add_event@ProxyPullSupplier_i@@QAEXPAVRDI_StructuredEvent@@@Z
?add_event@ProxyPushSupplier_i@@QAEXPAVRDI_StructuredEvent@@@Z
?add_event@SequenceProxyPullSupplier_i@@QAEXPAVRDI_StructuredEvent@@@Z
?add_event@SequenceProxyPushSupplier_i@@QAEXPAVRDI_StructuredEvent@@@Z
?add_event@StructuredProxyPullSupplier_i@@QAEXPAVRDI_StructuredEvent@@@Z
?add_event@StructuredProxyPushSupplier_i@@QAEXPAVRDI_StructuredEvent@@@Z
?add_filter@ConsumerAdmin_i@@$4PPPPPPPM@A@AEJPAV_objref_Filter@CosNotifyFilter@@@Z
?add_filter@ConsumerAdmin_i@@UAEJPAV_objref_Filter@CosNotifyFilter@@@Z
?add_filter@ProxyPullConsumer_i@@$4PPPPPPPM@A@AEJPAV_objref_Filter@CosNotifyFilter@@@Z
?add_filter@ProxyPullConsumer_i@@UAEJPAV_objref_Filter@CosNotifyFilter@@@Z
?add_filter@ProxyPullSupplier_i@@$4PPPPPPPM@A@AEJPAV_objref_Filter@CosNotifyFilter@@@Z
?add_filter@ProxyPullSupplier_i@@UAEJPAV_objref_Filter@CosNotifyFilter@@@Z
?add_filter@ProxyPushConsumer_i@@$4PPPPPPPM@A@AEJPAV_objref_Filter@CosNotifyFilter@@@Z
?add_filter@ProxyPushConsumer_i@@UAEJPAV_objref_Filter@CosNotifyFilter@@@Z
?add_filter@ProxyPushSupplier_i@@$4PPPPPPPM@A@AEJPAV_objref_Filter@CosNotifyFilter@@@Z
?add_filter@ProxyPushSupplier_i@@UAEJPAV_objref_Filter@CosNotifyFilter@@@Z
?add_filter@RDIProxyConsumer@@QAEJPAV_objref_Filter@CosNotifyFilter@@@Z
?add_filter@RDIProxySupplier@@QAEJPAV_objref_Filter@CosNotifyFilter@@@Z
?add_filter@SequenceProxyPullConsumer_i@@$4PPPPPPPM@A@AEJPAV_objref_Filter@CosNotifyFilter@@@Z
?add_filter@SequenceProxyPullConsumer_i@@UAEJPAV_objref_Filter@CosNotifyFilter@@@Z
?add_filter@SequenceProxyPullSupplier_i@@$4PPPPPPPM@A@AEJPAV_objref_Filter@CosNotifyFilter@@@Z
?add_filter@SequenceProxyPullSupplier_i@@UAEJPAV_objref_Filter@CosNotifyFilter@@@Z
?add_filter@SequenceProxyPushConsumer_i@@$4PPPPPPPM@A@AEJPAV_objref_Filter@CosNotifyFilter@@@Z
?add_filter@SequenceProxyPushConsumer_i@@UAEJPAV_objref_Filter@CosNotifyFilter@@@Z
?add_filter@SequenceProxyPushSupplier_i@@$4PPPPPPPM@A@AEJPAV_objref_Filter@CosNotifyFilter@@@Z
?add_filter@SequenceProxyPushSupplier_i@@UAEJPAV_objref_Filter@CosNotifyFilter@@@Z
?add_filter@StructuredProxyPullConsumer_i@@$4PPPPPPPM@A@AEJPAV_objref_Filter@CosNotifyFilter@@@Z
?add_filter@StructuredProxyPullConsumer_i@@UAEJPAV_objref_Filter@CosNotifyFilter@@@Z
?add_filter@StructuredProxyPullSupplier_i@@$4PPPPPPPM@A@AEJPAV_objref_Filter@CosNotifyFilter@@@Z
?add_filter@StructuredProxyPullSupplier_i@@UAEJPAV_objref_Filter@CosNotifyFilter@@@Z
?add_filter@StructuredProxyPushConsumer_i@@$4PPPPPPPM@A@AEJPAV_objref_Filter@CosNotifyFilter@@@Z
?add_filter@StructuredProxyPushConsumer_i@@UAEJPAV_objref_Filter@CosNotifyFilter@@@Z
?add_filter@StructuredProxyPushSupplier_i@@$4PPPPPPPM@A@AEJPAV_objref_Filter@CosNotifyFilter@@@Z
?add_filter@StructuredProxyPushSupplier_i@@UAEJPAV_objref_Filter@CosNotifyFilter@@@Z
?add_filter@SupplierAdmin_i@@$4PPPPPPPM@A@AEJPAV_objref_Filter@CosNotifyFilter@@@Z
?add_filter@SupplierAdmin_i@@UAEJPAV_objref_Filter@CosNotifyFilter@@@Z
?add_filter_i@FAdminHelper@@QAEJAAURDI_LocksHeld_s@@PAV_objref_Filter@CosNotifyFilter@@PAVRDINotifySubscribe@@_N@Z
?add_grammar@FilterFactory_i@@QAEHPBD@Z
?add_index@RDI_Constraint@@QAEPAV1@PAVRDI_PCState@@PAD@Z
?add_mapping_constraints@MappingFilter_i@@$4PPPPPPPM@A@AEPAVMappingConstraintInfoSeq@CosNotifyFilter@@ABVMappingConstraintPairSeq@3@@Z
?add_mapping_constraints@MappingFilter_i@@UAEPAVMappingConstraintInfoSeq@CosNotifyFilter@@ABVMappingConstraintPairSeq@3@@Z
?add_tag_bool@RDI_Constraint@@QAEPAV1@PAVRDI_PCState@@_N@Z
?add_tag_char@RDI_Constraint@@QAEPAV1@PAVRDI_PCState@@PAD@Z
?add_tag_default@RDI_Constraint@@QAEPAV1@PAVRDI_PCState@@@Z
?add_tag_ident@RDI_Constraint@@QAEPAV1@PAVRDI_PCState@@PAD@Z
?add_tag_num@RDI_Constraint@@QAEPAV1@PAVRDI_PCState@@PAD_N@Z
?admin_dispatch@EventChannel_i@@AAEXXZ
?all_children@Filter_i@@SAPAVIactSeq@AttNotification@@_N@Z
?all_filter_names@Filter_i@@SAPAVNameSeq@AttNotification@@XZ
?alloc@_CORBA_String_helper@@SAPADH@Z
?alloc_entry@RDIOplocks@@SAPAVRDIOplockEntry@@PAPAV2@PAVNameSeq@AttNotification@@PBD@Z
?allocate_range@CAdminGroupMgr@@QAE_NAAI0@Z
?allocbuf@?$_CORBA_Sequence@J@@SAPAJK@Z
?allocbuf@?$_CORBA_Sequence@PAVConstraintImpl@@@@SAPAPAVConstraintImpl@@K@Z
?allocbuf@?$_CORBA_Sequence@PAVConsumerAdmin_i@@@@SAPAPAVConsumerAdmin_i@@K@Z
?allocbuf@?$_CORBA_Sequence@PAVEventProxyPullConsumer_i@@@@SAPAPAVEventProxyPullConsumer_i@@K@Z
?allocbuf@?$_CORBA_Sequence@PAVEventProxyPullSupplier_i@@@@SAPAPAVEventProxyPullSupplier_i@@K@Z
?allocbuf@?$_CORBA_Sequence@PAVEventProxyPushConsumer_i@@@@SAPAPAVEventProxyPushConsumer_i@@K@Z
?allocbuf@?$_CORBA_Sequence@PAVEventProxyPushSupplier_i@@@@SAPAPAVEventProxyPushSupplier_i@@K@Z
?allocbuf@?$_CORBA_Sequence@PAVFilter_i@@@@SAPAPAVFilter_i@@K@Z
?allocbuf@?$_CORBA_Sequence@PAVProxyPullConsumer_i@@@@SAPAPAVProxyPullConsumer_i@@K@Z
?allocbuf@?$_CORBA_Sequence@PAVProxyPullSupplier_i@@@@SAPAPAVProxyPullSupplier_i@@K@Z
?allocbuf@?$_CORBA_Sequence@PAVProxyPushConsumer_i@@@@SAPAPAVProxyPushConsumer_i@@K@Z
?allocbuf@?$_CORBA_Sequence@PAVProxyPushSupplier_i@@@@SAPAPAVProxyPushSupplier_i@@K@Z
?allocbuf@?$_CORBA_Sequence@PAVRDINotifySubscribe@@@@SAPAPAVRDINotifySubscribe@@K@Z
?allocbuf@?$_CORBA_Sequence@PAVSequenceProxyPullConsumer_i@@@@SAPAPAVSequenceProxyPullConsumer_i@@K@Z
?allocbuf@?$_CORBA_Sequence@PAVSequenceProxyPullSupplier_i@@@@SAPAPAVSequenceProxyPullSupplier_i@@K@Z
?allocbuf@?$_CORBA_Sequence@PAVSequenceProxyPushConsumer_i@@@@SAPAPAVSequenceProxyPushConsumer_i@@K@Z
?allocbuf@?$_CORBA_Sequence@PAVSequenceProxyPushSupplier_i@@@@SAPAPAVSequenceProxyPushSupplier_i@@K@Z
?allocbuf@?$_CORBA_Sequence@PAVStructuredProxyPullConsumer_i@@@@SAPAPAVStructuredProxyPullConsumer_i@@K@Z
?allocbuf@?$_CORBA_Sequence@PAVStructuredProxyPullSupplier_i@@@@SAPAPAVStructuredProxyPullSupplier_i@@K@Z
?allocbuf@?$_CORBA_Sequence@PAVStructuredProxyPushConsumer_i@@@@SAPAPAVStructuredProxyPushConsumer_i@@K@Z
?allocbuf@?$_CORBA_Sequence@PAVStructuredProxyPushSupplier_i@@@@SAPAPAVStructuredProxyPushSupplier_i@@K@Z
?allocbuf@?$_CORBA_Sequence@PAVSupplierAdmin_i@@@@SAPAPAVSupplierAdmin_i@@K@Z
?allocbuf@?$_CORBA_Sequence@PAV_objref_ConsumerAdmin@CosNotifyChannelAdmin@@@@SAPAPAV_objref_ConsumerAdmin@CosNotifyChannelAdmin@@K@Z
?allocbuf@?$_CORBA_Sequence@PAV_objref_Filter@CosNotifyFilter@@@@SAPAPAV_objref_Filter@CosNotifyFilter@@K@Z
?allocbuf@?$_CORBA_Sequence@PAV_objref_NotifySubscribe@CosNotifyComm@@@@SAPAPAV_objref_NotifySubscribe@CosNotifyComm@@K@Z
?allocbuf@?$_CORBA_Sequence@PAV_objref_ProxyPullConsumer@CosEventChannelAdmin@@@@SAPAPAV_objref_ProxyPullConsumer@CosEventChannelAdmin@@K@Z
?allocbuf@?$_CORBA_Sequence@PAV_objref_ProxyPullConsumer@CosNotifyChannelAdmin@@@@SAPAPAV_objref_ProxyPullConsumer@CosNotifyChannelAdmin@@K@Z
?allocbuf@?$_CORBA_Sequence@PAV_objref_ProxyPullSupplier@CosEventChannelAdmin@@@@SAPAPAV_objref_ProxyPullSupplier@CosEventChannelAdmin@@K@Z
?allocbuf@?$_CORBA_Sequence@PAV_objref_ProxyPullSupplier@CosNotifyChannelAdmin@@@@SAPAPAV_objref_ProxyPullSupplier@CosNotifyChannelAdmin@@K@Z
?allocbuf@?$_CORBA_Sequence@PAV_objref_ProxyPushConsumer@CosEventChannelAdmin@@@@SAPAPAV_objref_ProxyPushConsumer@CosEventChannelAdmin@@K@Z
?allocbuf@?$_CORBA_Sequence@PAV_objref_ProxyPushConsumer@CosNotifyChannelAdmin@@@@SAPAPAV_objref_ProxyPushConsumer@CosNotifyChannelAdmin@@K@Z
?allocbuf@?$_CORBA_Sequence@PAV_objref_ProxyPushSupplier@CosEventChannelAdmin@@@@SAPAPAV_objref_ProxyPushSupplier@CosEventChannelAdmin@@K@Z
?allocbuf@?$_CORBA_Sequence@PAV_objref_ProxyPushSupplier@CosNotifyChannelAdmin@@@@SAPAPAV_objref_ProxyPushSupplier@CosNotifyChannelAdmin@@K@Z
?allocbuf@?$_CORBA_Sequence@PAV_objref_SequenceProxyPullConsumer@CosNotifyChannelAdmin@@@@SAPAPAV_objref_SequenceProxyPullConsumer@CosNotifyChannelAdmin@@K@Z
?allocbuf@?$_CORBA_Sequence@PAV_objref_SequenceProxyPullSupplier@CosNotifyChannelAdmin@@@@SAPAPAV_objref_SequenceProxyPullSupplier@CosNotifyChannelAdmin@@K@Z
?allocbuf@?$_CORBA_Sequence@PAV_objref_SequenceProxyPushConsumer@CosNotifyChannelAdmin@@@@SAPAPAV_objref_SequenceProxyPushConsumer@CosNotifyChannelAdmin@@K@Z
?allocbuf@?$_CORBA_Sequence@PAV_objref_SequenceProxyPushSupplier@CosNotifyChannelAdmin@@@@SAPAPAV_objref_SequenceProxyPushSupplier@CosNotifyChannelAdmin@@K@Z
?allocbuf@?$_CORBA_Sequence@PAV_objref_StructuredProxyPullConsumer@CosNotifyChannelAdmin@@@@SAPAPAV_objref_StructuredProxyPullConsumer@CosNotifyChannelAdmin@@K@Z
?allocbuf@?$_CORBA_Sequence@PAV_objref_StructuredProxyPullSupplier@CosNotifyChannelAdmin@@@@SAPAPAV_objref_StructuredProxyPullSupplier@CosNotifyChannelAdmin@@K@Z
?allocbuf@?$_CORBA_Sequence@PAV_objref_StructuredProxyPushConsumer@CosNotifyChannelAdmin@@@@SAPAPAV_objref_StructuredProxyPushConsumer@CosNotifyChannelAdmin@@K@Z
?allocbuf@?$_CORBA_Sequence@PAV_objref_StructuredProxyPushSupplier@CosNotifyChannelAdmin@@@@SAPAPAV_objref_StructuredProxyPushSupplier@CosNotifyChannelAdmin@@K@Z
?allocbuf@?$_CORBA_Sequence@PAV_objref_SupplierAdmin@CosNotifyChannelAdmin@@@@SAPAPAV_objref_SupplierAdmin@CosNotifyChannelAdmin@@K@Z
?allocbuf@?$_CORBA_Sequence@UConstraintInfo@CosNotifyFilter@@@@SAPAUConstraintInfo@CosNotifyFilter@@K@Z
?allocbuf@?$_CORBA_Sequence@UEventType@CosNotification@@@@SAPAUEventType@CosNotification@@K@Z
?allocbuf@?$_CORBA_Sequence@UNameComponent@CosNaming@@@@SAPAUNameComponent@CosNaming@@K@Z
?allocbuf@?$_CORBA_Sequence@UNamedPropertyRange@CosNotification@@@@SAPAUNamedPropertyRange@CosNotification@@K@Z
?allocbuf@?$_CORBA_Sequence@UProperty@CosNotification@@@@SAPAUProperty@CosNotification@@K@Z
?allocbuf@?$_CORBA_Sequence@UPropertyError@CosNotification@@@@SAPAUPropertyError@CosNotification@@K@Z
?allocbuf@?$_CORBA_Sequence@UStructuredEvent@CosNotification@@@@SAPAUStructuredEvent@CosNotification@@K@Z
?allocbuf@?$_CORBA_Sequence_ObjRef@V_objref_Interactive@AttNotification@@V?$_CORBA_ObjRef_Element@V_objref_Interactive@AttNotification@@VInteractive_Helper@2@@@VInteractive_Helper@2@@@SAPAPAV_objref_Interactive@AttNotification@@K@Z
?allocbuf@_CORBA_Sequence_String@@SAPAPADK@Z
?altcv_timedwait@RDIOplockEntry@@QAEXAAVomni_condition@@KK@Z
?altcv_wait@RDIOplockEntry@@QAEXAAVomni_condition@@@Z
?append@RDI_OpSeq@@QAEXAAVRDI_Op@@@Z
?append@RDI_OpSeq@@QAEXPAV1@@Z
?apply_discard_policy@RDI_EventQueue@@AAEHXZ
?assert_none_reg@RDI_PCState@@QAEXXZ
?attach_callback@Filter_i@@$4PPPPPPPM@A@AEJPAV_objref_NotifySubscribe@CosNotifyComm@@@Z
?attach_callback@Filter_i@@UAEJPAV_objref_NotifySubscribe@CosNotifyComm@@@Z
?attach_callback_i@Filter_i@@QAEJAAURDI_LocksHeld_s@@PAVRDINotifySubscribe@@_N@Z
?b_required@RDI_OpSeq@@QAEXPBDAA_NPAD@Z
?broadcast@RDIOplockEntry@@QAEXXZ
?buf@RDIstrstream@@QAEPBDXZ
?bump@RDIOplockEntry@@QAEXXZ
?check_pre@RDI_OpSeq@@QAEXW4RDI_OpCode@@@Z
?child_names@ConsumerAdmin_i@@$4PPPPPPPM@A@AEPAVNameSeq@AttNotification@@XZ
?child_names@ConsumerAdmin_i@@UAEPAVNameSeq@AttNotification@@XZ
?child_names@EventChannelFactory_i@@$4PPPPPPPM@A@AEPAVNameSeq@AttNotification@@XZ
?child_names@EventChannelFactory_i@@UAEPAVNameSeq@AttNotification@@XZ
?child_names@EventChannel_i@@$4PPPPPPPM@A@AEPAVNameSeq@AttNotification@@XZ
?child_names@EventChannel_i@@UAEPAVNameSeq@AttNotification@@XZ
?child_names@EventProxyPullConsumer_i@@$4PPPPPPPM@A@AEPAVNameSeq@AttNotification@@XZ
?child_names@EventProxyPullConsumer_i@@UAEPAVNameSeq@AttNotification@@XZ
?child_names@EventProxyPullSupplier_i@@$4PPPPPPPM@A@AEPAVNameSeq@AttNotification@@XZ
?child_names@EventProxyPullSupplier_i@@UAEPAVNameSeq@AttNotification@@XZ
?child_names@EventProxyPushConsumer_i@@$4PPPPPPPM@A@AEPAVNameSeq@AttNotification@@XZ
?child_names@EventProxyPushConsumer_i@@UAEPAVNameSeq@AttNotification@@XZ
?child_names@EventProxyPushSupplier_i@@$4PPPPPPPM@A@AEPAVNameSeq@AttNotification@@XZ
?child_names@EventProxyPushSupplier_i@@UAEPAVNameSeq@AttNotification@@XZ
?child_names@FilterFactory_i@@$4PPPPPPPM@A@AEPAVNameSeq@AttNotification@@XZ
?child_names@FilterFactory_i@@UAEPAVNameSeq@AttNotification@@XZ
?child_names@Filter_i@@$4PPPPPPPM@A@AEPAVNameSeq@AttNotification@@XZ
?child_names@Filter_i@@UAEPAVNameSeq@AttNotification@@XZ
?child_names@MappingFilter_i@@$4PPPPPPPM@A@AEPAVNameSeq@AttNotification@@XZ
?child_names@MappingFilter_i@@UAEPAVNameSeq@AttNotification@@XZ
?child_names@ProxyPullConsumer_i@@$4PPPPPPPM@A@AEPAVNameSeq@AttNotification@@XZ
?child_names@ProxyPullConsumer_i@@UAEPAVNameSeq@AttNotification@@XZ
?child_names@ProxyPullSupplier_i@@$4PPPPPPPM@A@AEPAVNameSeq@AttNotification@@XZ
?child_names@ProxyPullSupplier_i@@UAEPAVNameSeq@AttNotification@@XZ
?child_names@ProxyPushConsumer_i@@$4PPPPPPPM@A@AEPAVNameSeq@AttNotification@@XZ
?child_names@ProxyPushConsumer_i@@UAEPAVNameSeq@AttNotification@@XZ
?child_names@ProxyPushSupplier_i@@$4PPPPPPPM@A@AEPAVNameSeq@AttNotification@@XZ
?child_names@ProxyPushSupplier_i@@UAEPAVNameSeq@AttNotification@@XZ
?child_names@RDINotifServer@@$4PPPPPPPM@A@AEPAVNameSeq@AttNotification@@XZ
?child_names@RDINotifServer@@UAEPAVNameSeq@AttNotification@@XZ
?child_names@RDIProxyConsumer@@QAEPAVNameSeq@AttNotification@@XZ
?child_names@RDIProxySupplier@@QAEPAVNameSeq@AttNotification@@XZ
?child_names@SequenceProxyPullConsumer_i@@$4PPPPPPPM@A@AEPAVNameSeq@AttNotification@@XZ
?child_names@SequenceProxyPullConsumer_i@@UAEPAVNameSeq@AttNotification@@XZ
?child_names@SequenceProxyPullSupplier_i@@$4PPPPPPPM@A@AEPAVNameSeq@AttNotification@@XZ
?child_names@SequenceProxyPullSupplier_i@@UAEPAVNameSeq@AttNotification@@XZ
?child_names@SequenceProxyPushConsumer_i@@$4PPPPPPPM@A@AEPAVNameSeq@AttNotification@@XZ
?child_names@SequenceProxyPushConsumer_i@@UAEPAVNameSeq@AttNotification@@XZ
?child_names@SequenceProxyPushSupplier_i@@$4PPPPPPPM@A@AEPAVNameSeq@AttNotification@@XZ
?child_names@SequenceProxyPushSupplier_i@@UAEPAVNameSeq@AttNotification@@XZ
?child_names@StructuredProxyPullConsumer_i@@$4PPPPPPPM@A@AEPAVNameSeq@AttNotification@@XZ
?child_names@StructuredProxyPullConsumer_i@@UAEPAVNameSeq@AttNotification@@XZ
?child_names@StructuredProxyPullSupplier_i@@$4PPPPPPPM@A@AEPAVNameSeq@AttNotification@@XZ
?child_names@StructuredProxyPullSupplier_i@@UAEPAVNameSeq@AttNotification@@XZ
?child_names@StructuredProxyPushConsumer_i@@$4PPPPPPPM@A@AEPAVNameSeq@AttNotification@@XZ
?child_names@StructuredProxyPushConsumer_i@@UAEPAVNameSeq@AttNotification@@XZ
?child_names@StructuredProxyPushSupplier_i@@$4PPPPPPPM@A@AEPAVNameSeq@AttNotification@@XZ
?child_names@StructuredProxyPushSupplier_i@@UAEPAVNameSeq@AttNotification@@XZ
?child_names@SupplierAdmin_i@@$4PPPPPPPM@A@AEPAVNameSeq@AttNotification@@XZ
?child_names@SupplierAdmin_i@@UAEPAVNameSeq@AttNotification@@XZ
?children@ConsumerAdmin_i@@$4PPPPPPPM@A@AEPAVIactSeq@AttNotification@@_N@Z
?children@ConsumerAdmin_i@@UAEPAVIactSeq@AttNotification@@_N@Z
?children@EventChannelFactory_i@@$4PPPPPPPM@A@AEPAVIactSeq@AttNotification@@_N@Z
?children@EventChannelFactory_i@@UAEPAVIactSeq@AttNotification@@_N@Z
?children@EventChannel_i@@$4PPPPPPPM@A@AEPAVIactSeq@AttNotification@@_N@Z
?children@EventChannel_i@@UAEPAVIactSeq@AttNotification@@_N@Z
?children@EventProxyPullConsumer_i@@$4PPPPPPPM@A@AEPAVIactSeq@AttNotification@@_N@Z
?children@EventProxyPullConsumer_i@@UAEPAVIactSeq@AttNotification@@_N@Z
?children@EventProxyPullSupplier_i@@$4PPPPPPPM@A@AEPAVIactSeq@AttNotification@@_N@Z
?children@EventProxyPullSupplier_i@@UAEPAVIactSeq@AttNotification@@_N@Z
?children@EventProxyPushConsumer_i@@$4PPPPPPPM@A@AEPAVIactSeq@AttNotification@@_N@Z
?children@EventProxyPushConsumer_i@@UAEPAVIactSeq@AttNotification@@_N@Z
?children@EventProxyPushSupplier_i@@$4PPPPPPPM@A@AEPAVIactSeq@AttNotification@@_N@Z
?children@EventProxyPushSupplier_i@@UAEPAVIactSeq@AttNotification@@_N@Z
?children@FilterFactory_i@@$4PPPPPPPM@A@AEPAVIactSeq@AttNotification@@_N@Z
?children@FilterFactory_i@@UAEPAVIactSeq@AttNotification@@_N@Z
?children@Filter_i@@$4PPPPPPPM@A@AEPAVIactSeq@AttNotification@@_N@Z
?children@Filter_i@@UAEPAVIactSeq@AttNotification@@_N@Z
?children@MappingFilter_i@@$4PPPPPPPM@A@AEPAVIactSeq@AttNotification@@_N@Z
?children@MappingFilter_i@@UAEPAVIactSeq@AttNotification@@_N@Z
?children@ProxyPullConsumer_i@@$4PPPPPPPM@A@AEPAVIactSeq@AttNotification@@_N@Z
?children@ProxyPullConsumer_i@@UAEPAVIactSeq@AttNotification@@_N@Z
?children@ProxyPullSupplier_i@@$4PPPPPPPM@A@AEPAVIactSeq@AttNotification@@_N@Z
?children@ProxyPullSupplier_i@@UAEPAVIactSeq@AttNotification@@_N@Z
?children@ProxyPushConsumer_i@@$4PPPPPPPM@A@AEPAVIactSeq@AttNotification@@_N@Z
?children@ProxyPushConsumer_i@@UAEPAVIactSeq@AttNotification@@_N@Z
?children@ProxyPushSupplier_i@@$4PPPPPPPM@A@AEPAVIactSeq@AttNotification@@_N@Z
?children@ProxyPushSupplier_i@@UAEPAVIactSeq@AttNotification@@_N@Z
?children@RDINotifServer@@$4PPPPPPPM@A@AEPAVIactSeq@AttNotification@@_N@Z
?children@RDINotifServer@@UAEPAVIactSeq@AttNotification@@_N@Z
?children@RDIProxyConsumer@@QAEPAVIactSeq@AttNotification@@_N@Z
?children@RDIProxySupplier@@QAEPAVIactSeq@AttNotification@@_N@Z
?children@SequenceProxyPullConsumer_i@@$4PPPPPPPM@A@AEPAVIactSeq@AttNotification@@_N@Z
?children@SequenceProxyPullConsumer_i@@UAEPAVIactSeq@AttNotification@@_N@Z
?children@SequenceProxyPullSupplier_i@@$4PPPPPPPM@A@AEPAVIactSeq@AttNotification@@_N@Z
?children@SequenceProxyPullSupplier_i@@UAEPAVIactSeq@AttNotification@@_N@Z
?children@SequenceProxyPushConsumer_i@@$4PPPPPPPM@A@AEPAVIactSeq@AttNotification@@_N@Z
?children@SequenceProxyPushConsumer_i@@UAEPAVIactSeq@AttNotification@@_N@Z
?children@SequenceProxyPushSupplier_i@@$4PPPPPPPM@A@AEPAVIactSeq@AttNotification@@_N@Z
?children@SequenceProxyPushSupplier_i@@UAEPAVIactSeq@AttNotification@@_N@Z
?children@StructuredProxyPullConsumer_i@@$4PPPPPPPM@A@AEPAVIactSeq@AttNotification@@_N@Z
?children@StructuredProxyPullConsumer_i@@UAEPAVIactSeq@AttNotification@@_N@Z
?children@StructuredProxyPullSupplier_i@@$4PPPPPPPM@A@AEPAVIactSeq@AttNotification@@_N@Z
?children@StructuredProxyPullSupplier_i@@UAEPAVIactSeq@AttNotification@@_N@Z
?children@StructuredProxyPushConsumer_i@@$4PPPPPPPM@A@AEPAVIactSeq@AttNotification@@_N@Z
?children@StructuredProxyPushConsumer_i@@UAEPAVIactSeq@AttNotification@@_N@Z
?children@StructuredProxyPushSupplier_i@@$4PPPPPPPM@A@AEPAVIactSeq@AttNotification@@_N@Z
?children@StructuredProxyPushSupplier_i@@UAEPAVIactSeq@AttNotification@@_N@Z
?children@SupplierAdmin_i@@$4PPPPPPPM@A@AEPAVIactSeq@AttNotification@@_N@Z
?children@SupplierAdmin_i@@UAEPAVIactSeq@AttNotification@@_N@Z
?cleanup@ConsumerAdmin_i@@QAEXAAVRDIstrstream@@_N1@Z
?cleanup@EventChannel_i@@QAEXAAVRDIstrstream@@_N1@Z
?cleanup@RDIOplocks@@SAKXZ
?cleanup@SupplierAdmin_i@@QAEXAAVRDIstrstream@@_N1@Z
?cleanup@WRAPPED_ORB_OA@@SAXXZ
?cleanup_admin@RDIInteractive@@SA_NAAVRDIstrstream@@PAV_objref_Interactive@AttNotification@@_N2@Z
?cleanup_all@EventChannelFactory_i@@QAEXAAVRDIstrstream@@_N1@Z
?cleanup_all@FilterFactory_i@@SAXAAVRDIstrstream@@@Z
?cleanup_and_dispose@EventChannelFactory_i@@QAEXXZ
?cleanup_and_dispose@FilterFactory_i@@QAEXXZ
?cleanup_and_dispose@Filter_i@@AAE_NAAURDI_LocksHeld_s@@_NAAPAVObjectId@PortableServer@@@Z
?cleanup_and_dispose@MappingFilter_i@@AAE_NAAURDI_LocksHeld_s@@_NAAPAVObjectId@PortableServer@@@Z
?cleanup_channel@RDIInteractive@@SAXAAVRDIstrstream@@PAV_objref_Interactive@AttNotification@@_N2@Z
?cleanup_channels@RDIInteractive@@SAXAAVRDIstrstream@@PAV_objref_Interactive@AttNotification@@_N2@Z
?clear@?$RDI_Hash@JPAVConsumerAdmin_i@@@@QAEXXZ
?clear@?$RDI_Hash@JPAVEventChannel_i@@@@QAEXXZ
?clear@?$RDI_Hash@JPAVProxyPullConsumer_i@@@@QAEXXZ
?clear@?$RDI_Hash@JPAVProxyPullSupplier_i@@@@QAEXXZ
?clear@?$RDI_Hash@JPAVProxyPushConsumer_i@@@@QAEXXZ
?clear@?$RDI_Hash@JPAVProxyPushSupplier_i@@@@QAEXXZ
?clear@?$RDI_Hash@JPAVSequenceProxyPullConsumer_i@@@@QAEXXZ
?clear@?$RDI_Hash@JPAVSequenceProxyPullSupplier_i@@@@QAEXXZ
?clear@?$RDI_Hash@JPAVSequenceProxyPushConsumer_i@@@@QAEXXZ
?clear@?$RDI_Hash@JPAVSequenceProxyPushSupplier_i@@@@QAEXXZ
?clear@?$RDI_Hash@JPAVStructuredProxyPullConsumer_i@@@@QAEXXZ
?clear@?$RDI_Hash@JPAVStructuredProxyPullSupplier_i@@@@QAEXXZ
?clear@?$RDI_Hash@JPAVStructuredProxyPushConsumer_i@@@@QAEXXZ
?clear@?$RDI_Hash@JPAVStructuredProxyPushSupplier_i@@@@QAEXXZ
?clear@?$RDI_Hash@JPAVSupplierAdmin_i@@@@QAEXXZ
?clear@?$RDI_Hash@JPAV_objref_NotifySubscribe@CosNotifyComm@@@@QAEXXZ
?clear@?$RDI_Hash@JUFAdminFilterEntry_s@@@@QAEXXZ
?clear@?$RDI_Hash@JURDINfyCB@@@@QAEXXZ
?clear@?$RDI_Hash@PAVRDIOplockEntry@@H@@QAEXXZ
?clear@?$RDI_Hash@UEventType@CosNotification@@K@@QAEXXZ
?clear@?$RDI_Hash@UEventType@CosNotification@@UVNode_t@RDI_TypeMap@@@@QAEXXZ
?clear@?$RDI_Hash@UKey_t@RDI_StructuredEvent@@UVal_t@2@@@QAEXXZ
?clear@?$RDI_Hash@VRDI_EventType@@K@@QAEXXZ
?clear@?$RDI_Hash@VRDI_EventType@@PAX@@QAEXXZ
?clear@RDI_Bitmap@@QAEXII@Z
?clear@RDI_Bitmap@@QAEXXZ
?clear@RDI_Op@@QAEX_N@Z
?clear@RDI_RTVal@@QAEXXZ
?clear@RDIstrstream@@QAEXXZ
?clearops@RDI_OpSeq@@QAEXXZ
?comp_done@RDI_Constraint@@QAEPAV1@PAVRDI_PCState@@@Z
?compute_diff@RDI_EventType@@SAXABVEventTypeSeq@CosNotification@@00AAV23@1@Z
?connect_any_pull_consumer@ProxyPullSupplier_i@@$4PPPPPPPM@A@AEXPAV_objref_PullConsumer@CosEventComm@@@Z
?connect_any_pull_consumer@ProxyPullSupplier_i@@UAEXPAV_objref_PullConsumer@CosEventComm@@@Z
?connect_any_pull_supplier@ProxyPullConsumer_i@@$4PPPPPPPM@A@AEXPAV_objref_PullSupplier@CosEventComm@@@Z
?connect_any_pull_supplier@ProxyPullConsumer_i@@UAEXPAV_objref_PullSupplier@CosEventComm@@@Z
?connect_any_push_consumer@ProxyPushSupplier_i@@$4PPPPPPPM@A@AEXPAV_objref_PushConsumer@CosEventComm@@@Z
?connect_any_push_consumer@ProxyPushSupplier_i@@UAEXPAV_objref_PushConsumer@CosEventComm@@@Z
?connect_any_push_supplier@ProxyPushConsumer_i@@$4PPPPPPPM@A@AEXPAV_objref_PushSupplier@CosEventComm@@@Z
?connect_any_push_supplier@ProxyPushConsumer_i@@UAEXPAV_objref_PushSupplier@CosEventComm@@@Z
?connect_pull_consumer@EventProxyPullSupplier_i@@$4PPPPPPPM@A@AEXPAV_objref_PullConsumer@CosEventComm@@@Z
?connect_pull_consumer@EventProxyPullSupplier_i@@UAEXPAV_objref_PullConsumer@CosEventComm@@@Z
?connect_pull_supplier@EventProxyPullConsumer_i@@$4PPPPPPPM@A@AEXPAV_objref_PullSupplier@CosEventComm@@@Z
?connect_pull_supplier@EventProxyPullConsumer_i@@UAEXPAV_objref_PullSupplier@CosEventComm@@@Z
?connect_push_consumer@EventProxyPushSupplier_i@@$4PPPPPPPM@A@AEXPAV_objref_PushConsumer@CosEventComm@@@Z
?connect_push_consumer@EventProxyPushSupplier_i@@UAEXPAV_objref_PushConsumer@CosEventComm@@@Z
?connect_push_supplier@EventProxyPushConsumer_i@@$4PPPPPPPM@A@AEXPAV_objref_PushSupplier@CosEventComm@@@Z
?connect_push_supplier@EventProxyPushConsumer_i@@UAEXPAV_objref_PushSupplier@CosEventComm@@@Z
?connect_sequence_pull_consumer@SequenceProxyPullSupplier_i@@$4PPPPPPPM@A@AEXPAV_objref_SequencePullConsumer@CosNotifyComm@@@Z
?connect_sequence_pull_consumer@SequenceProxyPullSupplier_i@@UAEXPAV_objref_SequencePullConsumer@CosNotifyComm@@@Z
?connect_sequence_pull_supplier@SequenceProxyPullConsumer_i@@$4PPPPPPPM@A@AEXPAV_objref_SequencePullSupplier@CosNotifyComm@@@Z
?connect_sequence_pull_supplier@SequenceProxyPullConsumer_i@@UAEXPAV_objref_SequencePullSupplier@CosNotifyComm@@@Z
?connect_sequence_push_consumer@SequenceProxyPushSupplier_i@@$4PPPPPPPM@A@AEXPAV_objref_SequencePushConsumer@CosNotifyComm@@@Z
?connect_sequence_push_consumer@SequenceProxyPushSupplier_i@@UAEXPAV_objref_SequencePushConsumer@CosNotifyComm@@@Z
?connect_sequence_push_supplier@SequenceProxyPushConsumer_i@@$4PPPPPPPM@A@AEXPAV_objref_SequencePushSupplier@CosNotifyComm@@@Z
?connect_sequence_push_supplier@SequenceProxyPushConsumer_i@@UAEXPAV_objref_SequencePushSupplier@CosNotifyComm@@@Z
?connect_structured_pull_consumer@StructuredProxyPullSupplier_i@@$4PPPPPPPM@A@AEXPAV_objref_StructuredPullConsumer@CosNotifyComm@@@Z
?connect_structured_pull_consumer@StructuredProxyPullSupplier_i@@UAEXPAV_objref_StructuredPullConsumer@CosNotifyComm@@@Z
?connect_structured_pull_supplier@StructuredProxyPullConsumer_i@@$4PPPPPPPM@A@AEXPAV_objref_StructuredPullSupplier@CosNotifyComm@@@Z
?connect_structured_pull_supplier@StructuredProxyPullConsumer_i@@UAEXPAV_objref_StructuredPullSupplier@CosNotifyComm@@@Z
?connect_structured_push_consumer@StructuredProxyPushSupplier_i@@$4PPPPPPPM@A@AEXPAV_objref_StructuredPushConsumer@CosNotifyComm@@@Z
?connect_structured_push_consumer@StructuredProxyPushSupplier_i@@UAEXPAV_objref_StructuredPushConsumer@CosNotifyComm@@@Z
?connect_structured_push_supplier@StructuredProxyPushConsumer_i@@$4PPPPPPPM@A@AEXPAV_objref_StructuredPushSupplier@CosNotifyComm@@@Z
?connect_structured_push_supplier@StructuredProxyPushConsumer_i@@UAEXPAV_objref_StructuredPushSupplier@CosNotifyComm@@@Z
?connectionReliability@RDI_NotifQoS@@QAEXF@Z
?connectionReliability@RDI_NotifQoS@@QBEFXZ
?const_val@?$RDI_HashCursor@UKey_t@RDI_StructuredEvent@@UVal_t@2@@@QBEABUVal_t@RDI_StructuredEvent@@XZ
?constraint_grammar@Filter_i@@$4PPPPPPPM@A@AEPADXZ
?constraint_grammar@Filter_i@@UAEPADXZ
?constraint_grammar@MappingFilter_i@@$4PPPPPPPM@A@AEPADXZ
?constraint_grammar@MappingFilter_i@@UAEPADXZ
?copybuffer@?$_CORBA_Sequence@J@@IAEXK@Z
?copybuffer@?$_CORBA_Sequence@PAVConstraintImpl@@@@IAEXK@Z
?copybuffer@?$_CORBA_Sequence@PAVConsumerAdmin_i@@@@IAEXK@Z
?copybuffer@?$_CORBA_Sequence@PAVEventProxyPullConsumer_i@@@@IAEXK@Z
?copybuffer@?$_CORBA_Sequence@PAVEventProxyPullSupplier_i@@@@IAEXK@Z
?copybuffer@?$_CORBA_Sequence@PAVEventProxyPushConsumer_i@@@@IAEXK@Z
?copybuffer@?$_CORBA_Sequence@PAVEventProxyPushSupplier_i@@@@IAEXK@Z
?copybuffer@?$_CORBA_Sequence@PAVFilter_i@@@@IAEXK@Z
?copybuffer@?$_CORBA_Sequence@PAVProxyPullConsumer_i@@@@IAEXK@Z
?copybuffer@?$_CORBA_Sequence@PAVProxyPullSupplier_i@@@@IAEXK@Z
?copybuffer@?$_CORBA_Sequence@PAVProxyPushConsumer_i@@@@IAEXK@Z
?copybuffer@?$_CORBA_Sequence@PAVProxyPushSupplier_i@@@@IAEXK@Z
?copybuffer@?$_CORBA_Sequence@PAVRDINotifySubscribe@@@@IAEXK@Z
?copybuffer@?$_CORBA_Sequence@PAVSequenceProxyPullConsumer_i@@@@IAEXK@Z
?copybuffer@?$_CORBA_Sequence@PAVSequenceProxyPullSupplier_i@@@@IAEXK@Z
?copybuffer@?$_CORBA_Sequence@PAVSequenceProxyPushConsumer_i@@@@IAEXK@Z
?copybuffer@?$_CORBA_Sequence@PAVSequenceProxyPushSupplier_i@@@@IAEXK@Z
?copybuffer@?$_CORBA_Sequence@PAVStructuredProxyPullConsumer_i@@@@IAEXK@Z
?copybuffer@?$_CORBA_Sequence@PAVStructuredProxyPullSupplier_i@@@@IAEXK@Z
?copybuffer@?$_CORBA_Sequence@PAVStructuredProxyPushConsumer_i@@@@IAEXK@Z
?copybuffer@?$_CORBA_Sequence@PAVStructuredProxyPushSupplier_i@@@@IAEXK@Z
?copybuffer@?$_CORBA_Sequence@PAVSupplierAdmin_i@@@@IAEXK@Z
?copybuffer@?$_CORBA_Sequence@PAV_objref_ConsumerAdmin@CosNotifyChannelAdmin@@@@IAEXK@Z
?copybuffer@?$_CORBA_Sequence@PAV_objref_Filter@CosNotifyFilter@@@@IAEXK@Z
?copybuffer@?$_CORBA_Sequence@PAV_objref_NotifySubscribe@CosNotifyComm@@@@IAEXK@Z
?copybuffer@?$_CORBA_Sequence@PAV_objref_ProxyPullConsumer@CosEventChannelAdmin@@@@IAEXK@Z
?copybuffer@?$_CORBA_Sequence@PAV_objref_ProxyPullConsumer@CosNotifyChannelAdmin@@@@IAEXK@Z
?copybuffer@?$_CORBA_Sequence@PAV_objref_ProxyPullSupplier@CosEventChannelAdmin@@@@IAEXK@Z
?copybuffer@?$_CORBA_Sequence@PAV_objref_ProxyPullSupplier@CosNotifyChannelAdmin@@@@IAEXK@Z
?copybuffer@?$_CORBA_Sequence@PAV_objref_ProxyPushConsumer@CosEventChannelAdmin@@@@IAEXK@Z
?copybuffer@?$_CORBA_Sequence@PAV_objref_ProxyPushConsumer@CosNotifyChannelAdmin@@@@IAEXK@Z
?copybuffer@?$_CORBA_Sequence@PAV_objref_ProxyPushSupplier@CosEventChannelAdmin@@@@IAEXK@Z
?copybuffer@?$_CORBA_Sequence@PAV_objref_ProxyPushSupplier@CosNotifyChannelAdmin@@@@IAEXK@Z
?copybuffer@?$_CORBA_Sequence@PAV_objref_SequenceProxyPullConsumer@CosNotifyChannelAdmin@@@@IAEXK@Z
?copybuffer@?$_CORBA_Sequence@PAV_objref_SequenceProxyPullSupplier@CosNotifyChannelAdmin@@@@IAEXK@Z
?copybuffer@?$_CORBA_Sequence@PAV_objref_SequenceProxyPushConsumer@CosNotifyChannelAdmin@@@@IAEXK@Z
?copybuffer@?$_CORBA_Sequence@PAV_objref_SequenceProxyPushSupplier@CosNotifyChannelAdmin@@@@IAEXK@Z
?copybuffer@?$_CORBA_Sequence@PAV_objref_StructuredProxyPullConsumer@CosNotifyChannelAdmin@@@@IAEXK@Z
?copybuffer@?$_CORBA_Sequence@PAV_objref_StructuredProxyPullSupplier@CosNotifyChannelAdmin@@@@IAEXK@Z
?copybuffer@?$_CORBA_Sequence@PAV_objref_StructuredProxyPushConsumer@CosNotifyChannelAdmin@@@@IAEXK@Z
?copybuffer@?$_CORBA_Sequence@PAV_objref_StructuredProxyPushSupplier@CosNotifyChannelAdmin@@@@IAEXK@Z
?copybuffer@?$_CORBA_Sequence@PAV_objref_SupplierAdmin@CosNotifyChannelAdmin@@@@IAEXK@Z
?copybuffer@?$_CORBA_Sequence@UConstraintInfo@CosNotifyFilter@@@@IAEXK@Z
?copybuffer@?$_CORBA_Sequence@UEventType@CosNotification@@@@IAEXK@Z
?copybuffer@?$_CORBA_Sequence@UNameComponent@CosNaming@@@@IAEXK@Z
?copybuffer@?$_CORBA_Sequence@UNamedPropertyRange@CosNotification@@@@IAEXK@Z
?copybuffer@?$_CORBA_Sequence@UProperty@CosNotification@@@@IAEXK@Z
?copybuffer@?$_CORBA_Sequence@UPropertyError@CosNotification@@@@IAEXK@Z
?copybuffer@?$_CORBA_Sequence@UStructuredEvent@CosNotification@@@@IAEXK@Z
?copybuffer@?$_CORBA_Sequence_ObjRef@V_objref_Interactive@AttNotification@@V?$_CORBA_ObjRef_Element@V_objref_Interactive@AttNotification@@VInteractive_Helper@2@@@VInteractive_Helper@2@@@IAEXK@Z
?copybuffer@_CORBA_Sequence_String@@AAEXK@Z
?create@ConstraintImpl@@SAPAV1@ABUConstraintExp@CosNotifyFilter@@@Z
?create@RDINotifServer@@SAPAV1@AAHPAPAD@Z
?create_channel@EventChannelFactory_i@@$4PPPPPPPM@A@AEPAV_objref_EventChannel@CosNotifyChannelAdmin@@ABVPropertySeq@CosNotification@@0AAJ@Z
?create_channel@EventChannelFactory_i@@QAEPAVEventChannel_i@@AAJ@Z
?create_channel@EventChannelFactory_i@@UAEPAV_objref_EventChannel@CosNotifyChannelAdmin@@ABVPropertySeq@CosNotification@@0AAJ@Z
?create_filter@FilterFactory_i@@$4PPPPPPPM@A@AEPAV_objref_Filter@CosNotifyFilter@@PBD@Z
?create_filter@FilterFactory_i@@UAEPAV_objref_Filter@CosNotifyFilter@@PBD@Z
?create_mapping_filter@FilterFactory_i@@$4PPPPPPPM@A@AEPAV_objref_MappingFilter@CosNotifyFilter@@PBDABVAny@CORBA@@@Z
?create_mapping_filter@FilterFactory_i@@UAEPAV_objref_MappingFilter@CosNotifyFilter@@PBDABVAny@CORBA@@@Z
?curr_size@RDIPriorityQueue@@QBEKXZ
?cursor@?$RDI_Hash@JPAVConsumerAdmin_i@@@@QBE?AV?$RDI_HashCursor@JPAVConsumerAdmin_i@@@@XZ
?cursor@?$RDI_Hash@JPAVEventChannel_i@@@@QBE?AV?$RDI_HashCursor@JPAVEventChannel_i@@@@XZ
?cursor@?$RDI_Hash@JPAVFilter_i@@@@QBE?AV?$RDI_HashCursor@JPAVFilter_i@@@@XZ
?cursor@?$RDI_Hash@JPAVProxyPullConsumer_i@@@@QBE?AV?$RDI_HashCursor@JPAVProxyPullConsumer_i@@@@XZ
?cursor@?$RDI_Hash@JPAVProxyPullSupplier_i@@@@QBE?AV?$RDI_HashCursor@JPAVProxyPullSupplier_i@@@@XZ
?cursor@?$RDI_Hash@JPAVProxyPushConsumer_i@@@@QBE?AV?$RDI_HashCursor@JPAVProxyPushConsumer_i@@@@XZ
?cursor@?$RDI_Hash@JPAVProxyPushSupplier_i@@@@QBE?AV?$RDI_HashCursor@JPAVProxyPushSupplier_i@@@@XZ
?cursor@?$RDI_Hash@JPAVSequenceProxyPullConsumer_i@@@@QBE?AV?$RDI_HashCursor@JPAVSequenceProxyPullConsumer_i@@@@XZ
?cursor@?$RDI_Hash@JPAVSequenceProxyPullSupplier_i@@@@QBE?AV?$RDI_HashCursor@JPAVSequenceProxyPullSupplier_i@@@@XZ
?cursor@?$RDI_Hash@JPAVSequenceProxyPushConsumer_i@@@@QBE?AV?$RDI_HashCursor@JPAVSequenceProxyPushConsumer_i@@@@XZ
?cursor@?$RDI_Hash@JPAVSequenceProxyPushSupplier_i@@@@QBE?AV?$RDI_HashCursor@JPAVSequenceProxyPushSupplier_i@@@@XZ
?cursor@?$RDI_Hash@JPAVStructuredProxyPullConsumer_i@@@@QBE?AV?$RDI_HashCursor@JPAVStructuredProxyPullConsumer_i@@@@XZ
?cursor@?$RDI_Hash@JPAVStructuredProxyPullSupplier_i@@@@QBE?AV?$RDI_HashCursor@JPAVStructuredProxyPullSupplier_i@@@@XZ
?cursor@?$RDI_Hash@JPAVStructuredProxyPushConsumer_i@@@@QBE?AV?$RDI_HashCursor@JPAVStructuredProxyPushConsumer_i@@@@XZ
?cursor@?$RDI_Hash@JPAVStructuredProxyPushSupplier_i@@@@QBE?AV?$RDI_HashCursor@JPAVStructuredProxyPushSupplier_i@@@@XZ
?cursor@?$RDI_Hash@JPAVSupplierAdmin_i@@@@QBE?AV?$RDI_HashCursor@JPAVSupplierAdmin_i@@@@XZ
?cursor@?$RDI_Hash@JPAV_objref_NotifySubscribe@CosNotifyComm@@@@QBE?AV?$RDI_HashCursor@JPAV_objref_NotifySubscribe@CosNotifyComm@@@@XZ
?cursor@?$RDI_Hash@JUFAdminFilterEntry_s@@@@QBE?AV?$RDI_HashCursor@JUFAdminFilterEntry_s@@@@XZ
?cursor@?$RDI_Hash@JURDINfyCB@@@@QBE?AV?$RDI_HashCursor@JURDINfyCB@@@@XZ
?cursor@?$RDI_Hash@UEventType@CosNotification@@K@@QBE?AV?$RDI_HashCursor@UEventType@CosNotification@@K@@XZ
?cursor@?$RDI_Hash@UEventType@CosNotification@@UVNode_t@RDI_TypeMap@@@@QBE?AV?$RDI_HashCursor@UEventType@CosNotification@@UVNode_t@RDI_TypeMap@@@@XZ
?cursor@?$RDI_Hash@VRDI_EventType@@K@@QBE?AV?$RDI_HashCursor@VRDI_EventType@@K@@XZ
?cursor@?$RDI_Hash@VRDI_EventType@@PAX@@QBE?AV?$RDI_HashCursor@VRDI_EventType@@PAX@@XZ
?cursor@?$RDI_List@PAVEventProxyPullConsumer_i@@@@QBE?AV?$RDI_ListCursor@PAVEventProxyPullConsumer_i@@@@XZ
?cursor@?$RDI_List@PAVEventProxyPullSupplier_i@@@@QBE?AV?$RDI_ListCursor@PAVEventProxyPullSupplier_i@@@@XZ
?cursor@?$RDI_List@PAVEventProxyPushConsumer_i@@@@QBE?AV?$RDI_ListCursor@PAVEventProxyPushConsumer_i@@@@XZ
?cursor@?$RDI_List@PAVEventProxyPushSupplier_i@@@@QBE?AV?$RDI_ListCursor@PAVEventProxyPushSupplier_i@@@@XZ
?cvt2dbl@RDI_RTVal@@QAE_NAAN@Z
?dbg_output@RDI_Op@@QAEXAAVRDIstrstream@@_N@Z
?dbg_output_opcodes@RDI_OpSeq@@QAEXAAVRDIstrstream@@@Z
?dbg_output_stackT@RDI_OpSeq@@QAEXAAVRDIstrstream@@@Z
?dbg_output_tree@RDI_Constraint@@QAEXAAVRDIstrstream@@PAD@Z
?dbg_record_stackT@RDI_OpSeq@@QAEXXZ
?deallocate@?$omnivector@PAVomniObjTableEntry@@@@AAEXXZ
?debump@RDIOplockEntry@@QAEXXZ
?decr_consumers@EventChannel_i@@QAEXXZ
?decr_ref_counter_lock_held@RDI_StructuredEvent@@QAEXXZ
?decr_suppliers@EventChannel_i@@QAEXXZ
?default_consumer_admin@EventChannel_i@@$4PPPPPPPM@A@AEPAV_objref_ConsumerAdmin@CosNotifyChannelAdmin@@XZ
?default_consumer_admin@EventChannel_i@@UAEPAV_objref_ConsumerAdmin@CosNotifyChannelAdmin@@XZ
?default_filter_factory@EventChannel_i@@$4PPPPPPPM@A@AEPAV_objref_FilterFactory@CosNotifyFilter@@XZ
?default_filter_factory@EventChannel_i@@UAEPAV_objref_FilterFactory@CosNotifyFilter@@XZ
?default_supplier_admin@EventChannel_i@@$4PPPPPPPM@A@AEPAV_objref_SupplierAdmin@CosNotifyChannelAdmin@@XZ
?default_supplier_admin@EventChannel_i@@UAEPAV_objref_SupplierAdmin@CosNotifyChannelAdmin@@XZ
?default_value@MappingFilter_i@@$4PPPPPPPM@A@AEPAVAny@CORBA@@XZ
?default_value@MappingFilter_i@@UAEPAVAny@CORBA@@XZ
?del_grammar@FilterFactory_i@@QAEXPBD@Z
?deleteEmptyEntryNode@RDI_ChangePool@@AAEXXZ
?deleteHeadNoUseNode@RDI_ChangePool@@AAEXXZ
?delete_all_reg@RDI_PCState@@QAEXXZ
?deltree@RDI_PCState@@QAEXXZ
?destroy@ConsumerAdmin_i@@$4PPPPPPPM@A@AEXXZ
?destroy@ConsumerAdmin_i@@UAEXXZ
?destroy@EventChannel_i@@$4PPPPPPPM@A@AEXXZ
?destroy@EventChannel_i@@UAEXXZ
?destroy@Filter_i@@$4PPPPPPPM@A@AEXXZ
?destroy@Filter_i@@UAEXXZ
?destroy@MappingFilter_i@@$4PPPPPPPM@A@AEXXZ
?destroy@MappingFilter_i@@UAEXXZ
?destroy@RDINotifServer@@$4PPPPPPPM@A@AEXXZ
?destroy@RDINotifServer@@UAEXXZ
?destroy@RDI_ChangePool@@QAEXXZ
?destroy@RDI_NotifyConsumer@@QAEXXZ
?destroy@RDI_PullSupplier@@QAEXXZ
?destroy@SupplierAdmin_i@@$4PPPPPPPM@A@AEXXZ
?destroy@SupplierAdmin_i@@UAEXXZ
?destroy_i@Filter_i@@AAE_N_N@Z
?destroyed@RDINotifServer@@QAE_NXZ
?destruct_tree@RDI_Constraint@@QAEXXZ
?detach_callback@Filter_i@@$4PPPPPPPM@A@AEXJ@Z
?detach_callback@Filter_i@@UAEXJ@Z
?detach_callback_i@Filter_i@@QAEXJ@Z
?discardPolicy@RDINotifQueue@@QAEFXZ
?discardPolicy@RDI_NotifQoS@@QAEXF@Z
?discardPolicy@RDI_NotifQoS@@QBEFXZ
?disconnect_client_and_dispose@EventProxyPullConsumer_i@@QAEXAAURDI_LocksHeld_s@@_N@Z
?disconnect_client_and_dispose@EventProxyPullSupplier_i@@QAEXAAURDI_LocksHeld_s@@_N@Z
?disconnect_client_and_dispose@EventProxyPushConsumer_i@@QAEXAAURDI_LocksHeld_s@@_N@Z
?disconnect_client_and_dispose@EventProxyPushSupplier_i@@QAEXAAURDI_LocksHeld_s@@_N@Z
?disconnect_client_and_dispose@RDIProxyConsumer@@IAEXAAURDI_LocksHeld_s@@_N@Z
?disconnect_client_and_dispose@RDIProxySupplier@@IAEXAAURDI_LocksHeld_s@@_N@Z
?disconnect_clients_and_dispose@ConsumerAdmin_i@@AAEX_N@Z
?disconnect_clients_and_dispose@SupplierAdmin_i@@AAEX_N@Z
?disconnect_pull_consumer@EventProxyPullConsumer_i@@$4PPPPPPPM@A@AEXXZ
?disconnect_pull_consumer@EventProxyPullConsumer_i@@UAEXXZ
?disconnect_pull_consumer@ProxyPullConsumer_i@@$4PPPPPPPM@A@AEXXZ
?disconnect_pull_consumer@ProxyPullConsumer_i@@UAEXXZ
?disconnect_pull_supplier@EventProxyPullSupplier_i@@$4PPPPPPPM@A@AEXXZ
?disconnect_pull_supplier@EventProxyPullSupplier_i@@UAEXXZ
?disconnect_pull_supplier@ProxyPullSupplier_i@@$4PPPPPPPM@A@AEXXZ
?disconnect_pull_supplier@ProxyPullSupplier_i@@UAEXXZ
?disconnect_push_consumer@EventProxyPushConsumer_i@@$4PPPPPPPM@A@AEXXZ
?disconnect_push_consumer@EventProxyPushConsumer_i@@UAEXXZ
?disconnect_push_consumer@ProxyPushConsumer_i@@$4PPPPPPPM@A@AEXXZ
?disconnect_push_consumer@ProxyPushConsumer_i@@UAEXXZ
?disconnect_push_supplier@EventProxyPushSupplier_i@@$4PPPPPPPM@A@AEXXZ
?disconnect_push_supplier@EventProxyPushSupplier_i@@UAEXXZ
?disconnect_push_supplier@ProxyPushSupplier_i@@$4PPPPPPPM@A@AEXXZ
?disconnect_push_supplier@ProxyPushSupplier_i@@UAEXXZ
?disconnect_sequence_pull_consumer@SequenceProxyPullConsumer_i@@$4PPPPPPPM@A@AEXXZ
?disconnect_sequence_pull_consumer@SequenceProxyPullConsumer_i@@UAEXXZ
?disconnect_sequence_pull_supplier@SequenceProxyPullSupplier_i@@$4PPPPPPPM@A@AEXXZ
?disconnect_sequence_pull_supplier@SequenceProxyPullSupplier_i@@UAEXXZ
?disconnect_sequence_push_consumer@SequenceProxyPushConsumer_i@@$4PPPPPPPM@A@AEXXZ
?disconnect_sequence_push_consumer@SequenceProxyPushConsumer_i@@UAEXXZ
?disconnect_sequence_push_supplier@SequenceProxyPushSupplier_i@@$4PPPPPPPM@A@AEXXZ
?disconnect_sequence_push_supplier@SequenceProxyPushSupplier_i@@UAEXXZ
?disconnect_structured_pull_consumer@StructuredProxyPullConsumer_i@@$4PPPPPPPM@A@AEXXZ
?disconnect_structured_pull_consumer@StructuredProxyPullConsumer_i@@UAEXXZ
?disconnect_structured_pull_supplier@StructuredProxyPullSupplier_i@@$4PPPPPPPM@A@AEXXZ
?disconnect_structured_pull_supplier@StructuredProxyPullSupplier_i@@UAEXXZ
?disconnect_structured_push_consumer@StructuredProxyPushConsumer_i@@$4PPPPPPPM@A@AEXXZ
?disconnect_structured_push_consumer@StructuredProxyPushConsumer_i@@UAEXXZ
?disconnect_structured_push_supplier@StructuredProxyPushSupplier_i@@$4PPPPPPPM@A@AEXXZ
?disconnect_structured_push_supplier@StructuredProxyPushSupplier_i@@UAEXXZ
?dispatch_event@ConsumerAdmin_i@@AAEXPAVRDI_StructuredEvent@@@Z
?dispatch_event@ConsumerAdmin_i@@AAEXPAVRDI_StructuredEvent@@W4RDI_FilterState_t@@PAVRDI_TypeMap@@@Z
?do_codegen@RDI_Constraint@@QAEXPAVRDI_PCState@@_N@Z
?do_command@ConsumerAdmin_i@@$4PPPPPPPM@A@AEPADPBDAA_N1V?$_CORBA_ObjRef_OUT_arg@V_objref_Interactive@AttNotification@@VInteractive_Helper@2@@@@Z
?do_command@ConsumerAdmin_i@@UAEPADPBDAA_N1V?$_CORBA_ObjRef_OUT_arg@V_objref_Interactive@AttNotification@@VInteractive_Helper@2@@@@Z
?do_command@EventChannelFactory_i@@$4PPPPPPPM@A@AEPADPBDAA_N1V?$_CORBA_ObjRef_OUT_arg@V_objref_Interactive@AttNotification@@VInteractive_Helper@2@@@@Z
?do_command@EventChannelFactory_i@@UAEPADPBDAA_N1V?$_CORBA_ObjRef_OUT_arg@V_objref_Interactive@AttNotification@@VInteractive_Helper@2@@@@Z
?do_command@EventChannel_i@@$4PPPPPPPM@A@AEPADPBDAA_N1V?$_CORBA_ObjRef_OUT_arg@V_objref_Interactive@AttNotification@@VInteractive_Helper@2@@@@Z
?do_command@EventChannel_i@@UAEPADPBDAA_N1V?$_CORBA_ObjRef_OUT_arg@V_objref_Interactive@AttNotification@@VInteractive_Helper@2@@@@Z
?do_command@EventProxyPullConsumer_i@@$4PPPPPPPM@A@AEPADPBDAA_N1V?$_CORBA_ObjRef_OUT_arg@V_objref_Interactive@AttNotification@@VInteractive_Helper@2@@@@Z
?do_command@EventProxyPullConsumer_i@@UAEPADPBDAA_N1V?$_CORBA_ObjRef_OUT_arg@V_objref_Interactive@AttNotification@@VInteractive_Helper@2@@@@Z
?do_command@EventProxyPullSupplier_i@@$4PPPPPPPM@A@AEPADPBDAA_N1V?$_CORBA_ObjRef_OUT_arg@V_objref_Interactive@AttNotification@@VInteractive_Helper@2@@@@Z
?do_command@EventProxyPullSupplier_i@@UAEPADPBDAA_N1V?$_CORBA_ObjRef_OUT_arg@V_objref_Interactive@AttNotification@@VInteractive_Helper@2@@@@Z
?do_command@EventProxyPushConsumer_i@@$4PPPPPPPM@A@AEPADPBDAA_N1V?$_CORBA_ObjRef_OUT_arg@V_objref_Interactive@AttNotification@@VInteractive_Helper@2@@@@Z
?do_command@EventProxyPushConsumer_i@@UAEPADPBDAA_N1V?$_CORBA_ObjRef_OUT_arg@V_objref_Interactive@AttNotification@@VInteractive_Helper@2@@@@Z
?do_command@EventProxyPushSupplier_i@@$4PPPPPPPM@A@AEPADPBDAA_N1V?$_CORBA_ObjRef_OUT_arg@V_objref_Interactive@AttNotification@@VInteractive_Helper@2@@@@Z
?do_command@EventProxyPushSupplier_i@@UAEPADPBDAA_N1V?$_CORBA_ObjRef_OUT_arg@V_objref_Interactive@AttNotification@@VInteractive_Helper@2@@@@Z
?do_command@FilterFactory_i@@$4PPPPPPPM@A@AEPADPBDAA_N1V?$_CORBA_ObjRef_OUT_arg@V_objref_Interactive@AttNotification@@VInteractive_Helper@2@@@@Z
?do_command@FilterFactory_i@@UAEPADPBDAA_N1V?$_CORBA_ObjRef_OUT_arg@V_objref_Interactive@AttNotification@@VInteractive_Helper@2@@@@Z
?do_command@Filter_i@@$4PPPPPPPM@A@AEPADPBDAA_N1V?$_CORBA_ObjRef_OUT_arg@V_objref_Interactive@AttNotification@@VInteractive_Helper@2@@@@Z
?do_command@Filter_i@@UAEPADPBDAA_N1V?$_CORBA_ObjRef_OUT_arg@V_objref_Interactive@AttNotification@@VInteractive_Helper@2@@@@Z
?do_command@MappingFilter_i@@$4PPPPPPPM@A@AEPADPBDAA_N1V?$_CORBA_ObjRef_OUT_arg@V_objref_Interactive@AttNotification@@VInteractive_Helper@2@@@@Z
?do_command@MappingFilter_i@@UAEPADPBDAA_N1V?$_CORBA_ObjRef_OUT_arg@V_objref_Interactive@AttNotification@@VInteractive_Helper@2@@@@Z
?do_command@ProxyPullConsumer_i@@$4PPPPPPPM@A@AEPADPBDAA_N1V?$_CORBA_ObjRef_OUT_arg@V_objref_Interactive@AttNotification@@VInteractive_Helper@2@@@@Z
?do_command@ProxyPullConsumer_i@@UAEPADPBDAA_N1V?$_CORBA_ObjRef_OUT_arg@V_objref_Interactive@AttNotification@@VInteractive_Helper@2@@@@Z
?do_command@ProxyPullSupplier_i@@$4PPPPPPPM@A@AEPADPBDAA_N1V?$_CORBA_ObjRef_OUT_arg@V_objref_Interactive@AttNotification@@VInteractive_Helper@2@@@@Z
?do_command@ProxyPullSupplier_i@@UAEPADPBDAA_N1V?$_CORBA_ObjRef_OUT_arg@V_objref_Interactive@AttNotification@@VInteractive_Helper@2@@@@Z
?do_command@ProxyPushConsumer_i@@$4PPPPPPPM@A@AEPADPBDAA_N1V?$_CORBA_ObjRef_OUT_arg@V_objref_Interactive@AttNotification@@VInteractive_Helper@2@@@@Z
?do_command@ProxyPushConsumer_i@@UAEPADPBDAA_N1V?$_CORBA_ObjRef_OUT_arg@V_objref_Interactive@AttNotification@@VInteractive_Helper@2@@@@Z
?do_command@ProxyPushSupplier_i@@$4PPPPPPPM@A@AEPADPBDAA_N1V?$_CORBA_ObjRef_OUT_arg@V_objref_Interactive@AttNotification@@VInteractive_Helper@2@@@@Z
?do_command@ProxyPushSupplier_i@@UAEPADPBDAA_N1V?$_CORBA_ObjRef_OUT_arg@V_objref_Interactive@AttNotification@@VInteractive_Helper@2@@@@Z
?do_command@RDINotifServer@@$4PPPPPPPM@A@AEPADPBDAA_N1V?$_CORBA_ObjRef_OUT_arg@V_objref_Interactive@AttNotification@@VInteractive_Helper@2@@@@Z
?do_command@RDINotifServer@@UAEPADPBDAA_N1V?$_CORBA_ObjRef_OUT_arg@V_objref_Interactive@AttNotification@@VInteractive_Helper@2@@@@Z
?do_command@RDIProxyConsumer@@QAEPADPBDAA_N1V?$_CORBA_ObjRef_OUT_arg@V_objref_Interactive@AttNotification@@VInteractive_Helper@2@@@@Z
?do_command@RDIProxySupplier@@QAEPADPBDAA_N1V?$_CORBA_ObjRef_OUT_arg@V_objref_Interactive@AttNotification@@VInteractive_Helper@2@@@@Z
?do_command@SequenceProxyPullConsumer_i@@$4PPPPPPPM@A@AEPADPBDAA_N1V?$_CORBA_ObjRef_OUT_arg@V_objref_Interactive@AttNotification@@VInteractive_Helper@2@@@@Z
?do_command@SequenceProxyPullConsumer_i@@UAEPADPBDAA_N1V?$_CORBA_ObjRef_OUT_arg@V_objref_Interactive@AttNotification@@VInteractive_Helper@2@@@@Z
?do_command@SequenceProxyPullSupplier_i@@$4PPPPPPPM@A@AEPADPBDAA_N1V?$_CORBA_ObjRef_OUT_arg@V_objref_Interactive@AttNotification@@VInteractive_Helper@2@@@@Z
?do_command@SequenceProxyPullSupplier_i@@UAEPADPBDAA_N1V?$_CORBA_ObjRef_OUT_arg@V_objref_Interactive@AttNotification@@VInteractive_Helper@2@@@@Z
?do_command@SequenceProxyPushConsumer_i@@$4PPPPPPPM@A@AEPADPBDAA_N1V?$_CORBA_ObjRef_OUT_arg@V_objref_Interactive@AttNotification@@VInteractive_Helper@2@@@@Z
?do_command@SequenceProxyPushConsumer_i@@UAEPADPBDAA_N1V?$_CORBA_ObjRef_OUT_arg@V_objref_Interactive@AttNotification@@VInteractive_Helper@2@@@@Z
?do_command@SequenceProxyPushSupplier_i@@$4PPPPPPPM@A@AEPADPBDAA_N1V?$_CORBA_ObjRef_OUT_arg@V_objref_Interactive@AttNotification@@VInteractive_Helper@2@@@@Z
?do_command@SequenceProxyPushSupplier_i@@UAEPADPBDAA_N1V?$_CORBA_ObjRef_OUT_arg@V_objref_Interactive@AttNotification@@VInteractive_Helper@2@@@@Z
?do_command@StructuredProxyPullConsumer_i@@$4PPPPPPPM@A@AEPADPBDAA_N1V?$_CORBA_ObjRef_OUT_arg@V_objref_Interactive@AttNotification@@VInteractive_Helper@2@@@@Z
?do_command@StructuredProxyPullConsumer_i@@UAEPADPBDAA_N1V?$_CORBA_ObjRef_OUT_arg@V_objref_Interactive@AttNotification@@VInteractive_Helper@2@@@@Z
?do_command@StructuredProxyPullSupplier_i@@$4PPPPPPPM@A@AEPADPBDAA_N1V?$_CORBA_ObjRef_OUT_arg@V_objref_Interactive@AttNotification@@VInteractive_Helper@2@@@@Z
?do_command@StructuredProxyPullSupplier_i@@UAEPADPBDAA_N1V?$_CORBA_ObjRef_OUT_arg@V_objref_Interactive@AttNotification@@VInteractive_Helper@2@@@@Z
?do_command@StructuredProxyPushConsumer_i@@$4PPPPPPPM@A@AEPADPBDAA_N1V?$_CORBA_ObjRef_OUT_arg@V_objref_Interactive@AttNotification@@VInteractive_Helper@2@@@@Z
?do_command@StructuredProxyPushConsumer_i@@UAEPADPBDAA_N1V?$_CORBA_ObjRef_OUT_arg@V_objref_Interactive@AttNotification@@VInteractive_Helper@2@@@@Z
?do_command@StructuredProxyPushSupplier_i@@$4PPPPPPPM@A@AEPADPBDAA_N1V?$_CORBA_ObjRef_OUT_arg@V_objref_Interactive@AttNotification@@VInteractive_Helper@2@@@@Z
?do_command@StructuredProxyPushSupplier_i@@UAEPADPBDAA_N1V?$_CORBA_ObjRef_OUT_arg@V_objref_Interactive@AttNotification@@VInteractive_Helper@2@@@@Z
?do_command@SupplierAdmin_i@@$4PPPPPPPM@A@AEPADPBDAA_N1V?$_CORBA_ObjRef_OUT_arg@V_objref_Interactive@AttNotification@@VInteractive_Helper@2@@@@Z
?do_command@SupplierAdmin_i@@UAEPADPBDAA_N1V?$_CORBA_ObjRef_OUT_arg@V_objref_Interactive@AttNotification@@VInteractive_Helper@2@@@@Z
?do_go_command@ConsumerAdmin_i@@QAE_NAAVRDIstrstream@@AAVRDIParseCmd@@AA_NV?$_CORBA_ObjRef_OUT_arg@V_objref_Interactive@AttNotification@@VInteractive_Helper@2@@@@Z
?do_go_command@EventChannelFactory_i@@QAE_NAAVRDIstrstream@@AAVRDIParseCmd@@AA_NV?$_CORBA_ObjRef_OUT_arg@V_objref_Interactive@AttNotification@@VInteractive_Helper@2@@@@Z
?do_go_command@EventChannel_i@@QAE_NAAVRDIstrstream@@AAVRDIParseCmd@@AA_NV?$_CORBA_ObjRef_OUT_arg@V_objref_Interactive@AttNotification@@VInteractive_Helper@2@@@@Z
?do_go_command@RDINotifServer@@QAE_NAAVRDIstrstream@@AAVRDIParseCmd@@AA_NV?$_CORBA_ObjRef_OUT_arg@V_objref_Interactive@AttNotification@@VInteractive_Helper@2@@@@Z
?do_go_command@SupplierAdmin_i@@QAE_NAAVRDIstrstream@@AAVRDIParseCmd@@AA_NV?$_CORBA_ObjRef_OUT_arg@V_objref_Interactive@AttNotification@@VInteractive_Helper@2@@@@Z
?do_set_command@ConsumerAdmin_i@@QAE_NAAVRDIstrstream@@AAVRDIParseCmd@@@Z
?do_set_command@EventChannelFactory_i@@QAE_NAAVRDIstrstream@@AAVRDIParseCmd@@@Z
?do_set_command@EventChannel_i@@QAE_NAAVRDIstrstream@@AAVRDIParseCmd@@@Z
?do_set_command@RDINotifServer@@QAE_NAAVRDIstrstream@@AAVRDIParseCmd@@@Z
?do_set_command@RDIProxyConsumer@@QAE_NAAVRDIstrstream@@AAVRDIParseCmd@@@Z
?do_set_command@RDIProxySupplier@@QAE_NAAVRDIstrstream@@AAVRDIParseCmd@@@Z
?do_set_command@SupplierAdmin_i@@QAE_NAAVRDIstrstream@@AAVRDIParseCmd@@@Z
?dominates@RDI_EventType@@SAHABUEventType@CosNotification@@0@Z
?drain@?$RDI_List@PAVEventProxyPullConsumer_i@@@@QAEXXZ
?drain@?$RDI_List@PAVEventProxyPullSupplier_i@@@@QAEXXZ
?drain@?$RDI_List@PAVEventProxyPushConsumer_i@@@@QAEXXZ
?drain@?$RDI_List@PAVEventProxyPushSupplier_i@@@@QAEXXZ
?drain@?$RDI_List@PAVRDI_StructuredEvent@@@@QAEXXZ
?drain@?$RDI_List@UProxyDispatch_t@EventChannel_i@@@@QAEXXZ
?drain@?$RDI_SafeList@VConsumerAdmin_i@@@@QAEXXZ
?dump_stats@EventChannel_i@@QAEXAAURDI_LocksHeld_s@@_N@Z
?dup@_CORBA_String_helper@@SAPADPBD@Z
?dynany2dynenum@RDI_RTVal@@QAEXPAVDynEnum@DynamicAny@@@Z
?early_release@TW_MutexLock@@QAEXXZ
?entry@?$RDI_List@PAVEventProxyPullConsumer_i@@@@ABEABQAVEventProxyPullConsumer_i@@I@Z
?entry@?$RDI_List@PAVEventProxyPullSupplier_i@@@@ABEABQAVEventProxyPullSupplier_i@@I@Z
?entry@?$RDI_List@PAVEventProxyPushConsumer_i@@@@ABEABQAVEventProxyPushConsumer_i@@I@Z
?entry@?$RDI_List@PAVEventProxyPushSupplier_i@@@@ABEABQAVEventProxyPushSupplier_i@@I@Z
?env_update@RDI_Config@@QAEHPBD@Z
?eval@RDI_RVM@@QAEXPAVRDI_StructuredEvent@@@Z
?eventReliability@RDI_NotifQoS@@QAEXF@Z
?eventReliability@RDI_NotifQoS@@QBEFXZ
?exists@?$RDI_Hash@JPAVConsumerAdmin_i@@@@QAEHABJ@Z
?exists@?$RDI_Hash@JPAVProxyPullConsumer_i@@@@QAEHABJ@Z
?exists@?$RDI_Hash@JPAVProxyPullSupplier_i@@@@QAEHABJ@Z
?exists@?$RDI_Hash@JPAVProxyPushConsumer_i@@@@QAEHABJ@Z
?exists@?$RDI_Hash@JPAVProxyPushSupplier_i@@@@QAEHABJ@Z
?exists@?$RDI_Hash@JPAVSequenceProxyPullConsumer_i@@@@QAEHABJ@Z
?exists@?$RDI_Hash@JPAVSequenceProxyPullSupplier_i@@@@QAEHABJ@Z
?exists@?$RDI_Hash@JPAVSequenceProxyPushConsumer_i@@@@QAEHABJ@Z
?exists@?$RDI_Hash@JPAVSequenceProxyPushSupplier_i@@@@QAEHABJ@Z
?exists@?$RDI_Hash@JPAVStructuredProxyPullConsumer_i@@@@QAEHABJ@Z
?exists@?$RDI_Hash@JPAVStructuredProxyPullSupplier_i@@@@QAEHABJ@Z
?exists@?$RDI_Hash@JPAVStructuredProxyPushConsumer_i@@@@QAEHABJ@Z
?exists@?$RDI_Hash@JPAVStructuredProxyPushSupplier_i@@@@QAEHABJ@Z
?exists@?$RDI_Hash@JPAVSupplierAdmin_i@@@@QAEHABJ@Z
?exists@?$RDI_Hash@PAVRDIOplockEntry@@H@@QAEHABQAVRDIOplockEntry@@@Z
?export_settings@RDI_Config@@QBEHPBD0@Z
?externalize_sequence@RDI_EventType@@SAXAAVEventTypeSeq@CosNotification@@@Z
?fadmin_removal_i@Filter_i@@QAEXAAURDI_LocksHeld_s@@JPAVRDINotifySubscribe@@@Z
?filter_destroy_i@ConsumerAdmin_i@@UAEXPAVFilter_i@@@Z
?filter_destroy_i@RDIProxyConsumer@@UAEXPAVFilter_i@@@Z
?filter_destroy_i@RDIProxySupplier@@UAEXPAVFilter_i@@@Z
?filter_destroy_i@SupplierAdmin_i@@UAEXPAVFilter_i@@@Z
?finalize@RDI_OpSeq@@QAEXXZ
?find_filter@Filter_i@@SAPAV1@PBD@Z
?first_set@RDI_Bitmap@@QBEHI@Z
?flag_change@RDINotifServer@@QAE_NAAVRDIstrstream@@PBD@Z
?flush@logger@RDI@@QAEX_N@Z
?flush_wo_prefix@logger@RDI@@QAEX_N@Z
?fmt_local@RDI_TimeT@@QAEPBDXZ
?for_consumers@EventChannel_i@@$4PPPPPPPM@A@AEPAV_objref_ConsumerAdmin@CosEventChannelAdmin@@XZ
?for_consumers@EventChannel_i@@UAEPAV_objref_ConsumerAdmin@CosEventChannelAdmin@@XZ
?for_suppliers@EventChannel_i@@$4PPPPPPPM@A@AEPAV_objref_SupplierAdmin@CosEventChannelAdmin@@XZ
?for_suppliers@EventChannel_i@@UAEPAV_objref_SupplierAdmin@CosEventChannelAdmin@@XZ
?foreach@?$RDI_SafeList@VConsumerAdmin_i@@@@QAEXP6AXHHPAVConsumerAdmin_i@@PAX@Z1@Z
?free@_CORBA_String_helper@@SAXPAD@Z
?free_entry@RDIOplocks@@SAXPAVRDIOplockEntry@@PAPAV2@PAVObjectId@PortableServer@@@Z
?freebuf@?$_CORBA_Sequence@E@@SAXPAE@Z
?freebuf@?$_CORBA_Sequence@J@@SAXPAJ@Z
?freebuf@?$_CORBA_Sequence@PAVConstraintImpl@@@@SAXPAPAVConstraintImpl@@@Z
?freebuf@?$_CORBA_Sequence@PAVConsumerAdmin_i@@@@SAXPAPAVConsumerAdmin_i@@@Z
?freebuf@?$_CORBA_Sequence@PAVEventProxyPullConsumer_i@@@@SAXPAPAVEventProxyPullConsumer_i@@@Z
?freebuf@?$_CORBA_Sequence@PAVEventProxyPullSupplier_i@@@@SAXPAPAVEventProxyPullSupplier_i@@@Z
?freebuf@?$_CORBA_Sequence@PAVEventProxyPushConsumer_i@@@@SAXPAPAVEventProxyPushConsumer_i@@@Z
?freebuf@?$_CORBA_Sequence@PAVEventProxyPushSupplier_i@@@@SAXPAPAVEventProxyPushSupplier_i@@@Z
?freebuf@?$_CORBA_Sequence@PAVFilter_i@@@@SAXPAPAVFilter_i@@@Z
?freebuf@?$_CORBA_Sequence@PAVProxyPullConsumer_i@@@@SAXPAPAVProxyPullConsumer_i@@@Z
?freebuf@?$_CORBA_Sequence@PAVProxyPullSupplier_i@@@@SAXPAPAVProxyPullSupplier_i@@@Z
?freebuf@?$_CORBA_Sequence@PAVProxyPushConsumer_i@@@@SAXPAPAVProxyPushConsumer_i@@@Z
?freebuf@?$_CORBA_Sequence@PAVProxyPushSupplier_i@@@@SAXPAPAVProxyPushSupplier_i@@@Z
?freebuf@?$_CORBA_Sequence@PAVRDINotifySubscribe@@@@SAXPAPAVRDINotifySubscribe@@@Z
?freebuf@?$_CORBA_Sequence@PAVSequenceProxyPullConsumer_i@@@@SAXPAPAVSequenceProxyPullConsumer_i@@@Z
?freebuf@?$_CORBA_Sequence@PAVSequenceProxyPullSupplier_i@@@@SAXPAPAVSequenceProxyPullSupplier_i@@@Z
?freebuf@?$_CORBA_Sequence@PAVSequenceProxyPushConsumer_i@@@@SAXPAPAVSequenceProxyPushConsumer_i@@@Z
?freebuf@?$_CORBA_Sequence@PAVSequenceProxyPushSupplier_i@@@@SAXPAPAVSequenceProxyPushSupplier_i@@@Z
?freebuf@?$_CORBA_Sequence@PAVStructuredProxyPullConsumer_i@@@@SAXPAPAVStructuredProxyPullConsumer_i@@@Z
?freebuf@?$_CORBA_Sequence@PAVStructuredProxyPullSupplier_i@@@@SAXPAPAVStructuredProxyPullSupplier_i@@@Z
?freebuf@?$_CORBA_Sequence@PAVStructuredProxyPushConsumer_i@@@@SAXPAPAVStructuredProxyPushConsumer_i@@@Z
?freebuf@?$_CORBA_Sequence@PAVStructuredProxyPushSupplier_i@@@@SAXPAPAVStructuredProxyPushSupplier_i@@@Z
?freebuf@?$_CORBA_Sequence@PAVSupplierAdmin_i@@@@SAXPAPAVSupplierAdmin_i@@@Z
?freebuf@?$_CORBA_Sequence@PAV_objref_ConsumerAdmin@CosNotifyChannelAdmin@@@@SAXPAPAV_objref_ConsumerAdmin@CosNotifyChannelAdmin@@@Z
?freebuf@?$_CORBA_Sequence@PAV_objref_Filter@CosNotifyFilter@@@@SAXPAPAV_objref_Filter@CosNotifyFilter@@@Z
?freebuf@?$_CORBA_Sequence@PAV_objref_NotifySubscribe@CosNotifyComm@@@@SAXPAPAV_objref_NotifySubscribe@CosNotifyComm@@@Z
?freebuf@?$_CORBA_Sequence@PAV_objref_ProxyPullConsumer@CosEventChannelAdmin@@@@SAXPAPAV_objref_ProxyPullConsumer@CosEventChannelAdmin@@@Z
?freebuf@?$_CORBA_Sequence@PAV_objref_ProxyPullConsumer@CosNotifyChannelAdmin@@@@SAXPAPAV_objref_ProxyPullConsumer@CosNotifyChannelAdmin@@@Z
?freebuf@?$_CORBA_Sequence@PAV_objref_ProxyPullSupplier@CosEventChannelAdmin@@@@SAXPAPAV_objref_ProxyPullSupplier@CosEventChannelAdmin@@@Z
?freebuf@?$_CORBA_Sequence@PAV_objref_ProxyPullSupplier@CosNotifyChannelAdmin@@@@SAXPAPAV_objref_ProxyPullSupplier@CosNotifyChannelAdmin@@@Z
?freebuf@?$_CORBA_Sequence@PAV_objref_ProxyPushConsumer@CosEventChannelAdmin@@@@SAXPAPAV_objref_ProxyPushConsumer@CosEventChannelAdmin@@@Z
?freebuf@?$_CORBA_Sequence@PAV_objref_ProxyPushConsumer@CosNotifyChannelAdmin@@@@SAXPAPAV_objref_ProxyPushConsumer@CosNotifyChannelAdmin@@@Z
?freebuf@?$_CORBA_Sequence@PAV_objref_ProxyPushSupplier@CosEventChannelAdmin@@@@SAXPAPAV_objref_ProxyPushSupplier@CosEventChannelAdmin@@@Z
?freebuf@?$_CORBA_Sequence@PAV_objref_ProxyPushSupplier@CosNotifyChannelAdmin@@@@SAXPAPAV_objref_ProxyPushSupplier@CosNotifyChannelAdmin@@@Z
?freebuf@?$_CORBA_Sequence@PAV_objref_SequenceProxyPullConsumer@CosNotifyChannelAdmin@@@@SAXPAPAV_objref_SequenceProxyPullConsumer@CosNotifyChannelAdmin@@@Z
?freebuf@?$_CORBA_Sequence@PAV_objref_SequenceProxyPullSupplier@CosNotifyChannelAdmin@@@@SAXPAPAV_objref_SequenceProxyPullSupplier@CosNotifyChannelAdmin@@@Z
?freebuf@?$_CORBA_Sequence@PAV_objref_SequenceProxyPushConsumer@CosNotifyChannelAdmin@@@@SAXPAPAV_objref_SequenceProxyPushConsumer@CosNotifyChannelAdmin@@@Z
?freebuf@?$_CORBA_Sequence@PAV_objref_SequenceProxyPushSupplier@CosNotifyChannelAdmin@@@@SAXPAPAV_objref_SequenceProxyPushSupplier@CosNotifyChannelAdmin@@@Z
?freebuf@?$_CORBA_Sequence@PAV_objref_StructuredProxyPullConsumer@CosNotifyChannelAdmin@@@@SAXPAPAV_objref_StructuredProxyPullConsumer@CosNotifyChannelAdmin@@@Z
?freebuf@?$_CORBA_Sequence@PAV_objref_StructuredProxyPullSupplier@CosNotifyChannelAdmin@@@@SAXPAPAV_objref_StructuredProxyPullSupplier@CosNotifyChannelAdmin@@@Z
?freebuf@?$_CORBA_Sequence@PAV_objref_StructuredProxyPushConsumer@CosNotifyChannelAdmin@@@@SAXPAPAV_objref_StructuredProxyPushConsumer@CosNotifyChannelAdmin@@@Z
?freebuf@?$_CORBA_Sequence@PAV_objref_StructuredProxyPushSupplier@CosNotifyChannelAdmin@@@@SAXPAPAV_objref_StructuredProxyPushSupplier@CosNotifyChannelAdmin@@@Z
?freebuf@?$_CORBA_Sequence@PAV_objref_SupplierAdmin@CosNotifyChannelAdmin@@@@SAXPAPAV_objref_SupplierAdmin@CosNotifyChannelAdmin@@@Z
?freebuf@?$_CORBA_Sequence@UConstraintInfo@CosNotifyFilter@@@@SAXPAUConstraintInfo@CosNotifyFilter@@@Z
?freebuf@?$_CORBA_Sequence@UEventType@CosNotification@@@@SAXPAUEventType@CosNotification@@@Z
?freebuf@?$_CORBA_Sequence@UNameComponent@CosNaming@@@@SAXPAUNameComponent@CosNaming@@@Z
?freebuf@?$_CORBA_Sequence@UNamedPropertyRange@CosNotification@@@@SAXPAUNamedPropertyRange@CosNotification@@@Z
?freebuf@?$_CORBA_Sequence@UProperty@CosNotification@@@@SAXPAUProperty@CosNotification@@@Z
?freebuf@?$_CORBA_Sequence@UPropertyError@CosNotification@@@@SAXPAUPropertyError@CosNotification@@@Z
?freebuf@?$_CORBA_Sequence@UStructuredEvent@CosNotification@@@@SAXPAUStructuredEvent@CosNotification@@@Z
?freebuf@?$_CORBA_Sequence_ObjRef@V_objref_Interactive@AttNotification@@V?$_CORBA_ObjRef_Element@V_objref_Interactive@AttNotification@@VInteractive_Helper@2@@@VInteractive_Helper@2@@@SAXPAPAV_objref_Interactive@AttNotification@@@Z
?freebuf@_CORBA_Sequence_String@@SAXPAPAD@Z
?from_admin@RDI_AdminQoS@@QAEXABVPropertySeq@CosNotification@@@Z
?from_server_props@RDI_ServerQoS@@QAEXABVPropertySeq@CosNotification@@@Z
?frst_node@?$RDI_Hash@JPAVConsumerAdmin_i@@@@ABEXAAPAU?$RDI_KeyValuePair@JPAVConsumerAdmin_i@@@@AAI@Z
?frst_node@?$RDI_Hash@JPAVEventChannel_i@@@@ABEXAAPAU?$RDI_KeyValuePair@JPAVEventChannel_i@@@@AAI@Z
?frst_node@?$RDI_Hash@JPAVFilter_i@@@@ABEXAAPAU?$RDI_KeyValuePair@JPAVFilter_i@@@@AAI@Z
?frst_node@?$RDI_Hash@JPAVProxyPullConsumer_i@@@@ABEXAAPAU?$RDI_KeyValuePair@JPAVProxyPullConsumer_i@@@@AAI@Z
?frst_node@?$RDI_Hash@JPAVProxyPullSupplier_i@@@@ABEXAAPAU?$RDI_KeyValuePair@JPAVProxyPullSupplier_i@@@@AAI@Z
?frst_node@?$RDI_Hash@JPAVProxyPushConsumer_i@@@@ABEXAAPAU?$RDI_KeyValuePair@JPAVProxyPushConsumer_i@@@@AAI@Z
?frst_node@?$RDI_Hash@JPAVProxyPushSupplier_i@@@@ABEXAAPAU?$RDI_KeyValuePair@JPAVProxyPushSupplier_i@@@@AAI@Z
?frst_node@?$RDI_Hash@JPAVSequenceProxyPullConsumer_i@@@@ABEXAAPAU?$RDI_KeyValuePair@JPAVSequenceProxyPullConsumer_i@@@@AAI@Z
?frst_node@?$RDI_Hash@JPAVSequenceProxyPullSupplier_i@@@@ABEXAAPAU?$RDI_KeyValuePair@JPAVSequenceProxyPullSupplier_i@@@@AAI@Z
?frst_node@?$RDI_Hash@JPAVSequenceProxyPushConsumer_i@@@@ABEXAAPAU?$RDI_KeyValuePair@JPAVSequenceProxyPushConsumer_i@@@@AAI@Z
?frst_node@?$RDI_Hash@JPAVSequenceProxyPushSupplier_i@@@@ABEXAAPAU?$RDI_KeyValuePair@JPAVSequenceProxyPushSupplier_i@@@@AAI@Z
?frst_node@?$RDI_Hash@JPAVStructuredProxyPullConsumer_i@@@@ABEXAAPAU?$RDI_KeyValuePair@JPAVStructuredProxyPullConsumer_i@@@@AAI@Z
?frst_node@?$RDI_Hash@JPAVStructuredProxyPullSupplier_i@@@@ABEXAAPAU?$RDI_KeyValuePair@JPAVStructuredProxyPullSupplier_i@@@@AAI@Z
?frst_node@?$RDI_Hash@JPAVStructuredProxyPushConsumer_i@@@@ABEXAAPAU?$RDI_KeyValuePair@JPAVStructuredProxyPushConsumer_i@@@@AAI@Z
?frst_node@?$RDI_Hash@JPAVStructuredProxyPushSupplier_i@@@@ABEXAAPAU?$RDI_KeyValuePair@JPAVStructuredProxyPushSupplier_i@@@@AAI@Z
?frst_node@?$RDI_Hash@JPAVSupplierAdmin_i@@@@ABEXAAPAU?$RDI_KeyValuePair@JPAVSupplierAdmin_i@@@@AAI@Z
?frst_node@?$RDI_Hash@JPAV_objref_NotifySubscribe@CosNotifyComm@@@@ABEXAAPAU?$RDI_KeyValuePair@JPAV_objref_NotifySubscribe@CosNotifyComm@@@@AAI@Z
?frst_node@?$RDI_Hash@JUFAdminFilterEntry_s@@@@ABEXAAPAU?$RDI_KeyValuePair@JUFAdminFilterEntry_s@@@@AAI@Z
?frst_node@?$RDI_Hash@JURDINfyCB@@@@ABEXAAPAU?$RDI_KeyValuePair@JURDINfyCB@@@@AAI@Z
?frst_node@?$RDI_Hash@UEventType@CosNotification@@K@@ABEXAAPAU?$RDI_KeyValuePair@UEventType@CosNotification@@K@@AAI@Z
?frst_node@?$RDI_Hash@UEventType@CosNotification@@UVNode_t@RDI_TypeMap@@@@ABEXAAPAU?$RDI_KeyValuePair@UEventType@CosNotification@@UVNode_t@RDI_TypeMap@@@@AAI@Z
?frst_node@?$RDI_Hash@UKey_t@RDI_StructuredEvent@@UVal_t@2@@@ABEXAAPAU?$RDI_KeyValuePair@UKey_t@RDI_StructuredEvent@@UVal_t@2@@@AAI@Z
?frst_node@?$RDI_Hash@VRDI_EventType@@K@@ABEXAAPAU?$RDI_KeyValuePair@VRDI_EventType@@K@@AAI@Z
?frst_node@?$RDI_Hash@VRDI_EventType@@PAX@@ABEXAAPAU?$RDI_KeyValuePair@VRDI_EventType@@PAX@@AAI@Z
?garbage_collect@RDI_EventQueue@@AAEXXZ
?gc1@RDI_EventQueue@@AAEHXZ
?gc_able@ConsumerAdmin_i@@QAE_NVRDI_TimeT@@K@Z
?gc_able@SupplierAdmin_i@@QAE_NVRDI_TimeT@@K@Z
?gcollect@EventChannel_i@@AAEXXZ
?gcollect@RDINotifServer@@AAEXXZ
?getID@Filter_i@@QBEKXZ
?get_TimeBaseTimeT@RDI_TimeT@@QBEXAA_K@Z
?get_admin@EventChannelFactory_i@@$4PPPPPPPM@A@AEPAVPropertySeq@CosNotification@@XZ
?get_admin@EventChannelFactory_i@@UAEPAVPropertySeq@CosNotification@@XZ
?get_admin@EventChannel_i@@$4PPPPPPPM@A@AEPAVPropertySeq@CosNotification@@XZ
?get_admin@EventChannel_i@@UAEPAVPropertySeq@CosNotification@@XZ
?get_all_channels@EventChannelFactory_i@@$4PPPPPPPM@A@AEPAVChannelIDSeq@CosNotifyChannelAdmin@@XZ
?get_all_channels@EventChannelFactory_i@@UAEPAVChannelIDSeq@CosNotifyChannelAdmin@@XZ
?get_all_constraints@Filter_i@@$4PPPPPPPM@A@AEPAVConstraintInfoSeq@CosNotifyFilter@@XZ
?get_all_constraints@Filter_i@@UAEPAVConstraintInfoSeq@CosNotifyFilter@@XZ
?get_all_consumeradmins@EventChannel_i@@$4PPPPPPPM@A@AEPAVAdminIDSeq@CosNotifyChannelAdmin@@XZ
?get_all_consumeradmins@EventChannel_i@@UAEPAVAdminIDSeq@CosNotifyChannelAdmin@@XZ
?get_all_filters@ConsumerAdmin_i@@$4PPPPPPPM@A@AEPAVFilterIDSeq@CosNotifyFilter@@XZ
?get_all_filters@ConsumerAdmin_i@@UAEPAVFilterIDSeq@CosNotifyFilter@@XZ
?get_all_filters@FAdminHelper@@QAEPAVFilterIDSeq@CosNotifyFilter@@XZ
?get_all_filters@ProxyPullConsumer_i@@$4PPPPPPPM@A@AEPAVFilterIDSeq@CosNotifyFilter@@XZ
?get_all_filters@ProxyPullConsumer_i@@UAEPAVFilterIDSeq@CosNotifyFilter@@XZ
?get_all_filters@ProxyPullSupplier_i@@$4PPPPPPPM@A@AEPAVFilterIDSeq@CosNotifyFilter@@XZ
?get_all_filters@ProxyPullSupplier_i@@UAEPAVFilterIDSeq@CosNotifyFilter@@XZ
?get_all_filters@ProxyPushConsumer_i@@$4PPPPPPPM@A@AEPAVFilterIDSeq@CosNotifyFilter@@XZ
?get_all_filters@ProxyPushConsumer_i@@UAEPAVFilterIDSeq@CosNotifyFilter@@XZ
?get_all_filters@ProxyPushSupplier_i@@$4PPPPPPPM@A@AEPAVFilterIDSeq@CosNotifyFilter@@XZ
?get_all_filters@ProxyPushSupplier_i@@UAEPAVFilterIDSeq@CosNotifyFilter@@XZ
?get_all_filters@RDIProxyConsumer@@QAEPAVFilterIDSeq@CosNotifyFilter@@XZ
?get_all_filters@RDIProxySupplier@@QAEPAVFilterIDSeq@CosNotifyFilter@@XZ
?get_all_filters@SequenceProxyPullConsumer_i@@$4PPPPPPPM@A@AEPAVFilterIDSeq@CosNotifyFilter@@XZ
?get_all_filters@SequenceProxyPullConsumer_i@@UAEPAVFilterIDSeq@CosNotifyFilter@@XZ
?get_all_filters@SequenceProxyPullSupplier_i@@$4PPPPPPPM@A@AEPAVFilterIDSeq@CosNotifyFilter@@XZ
?get_all_filters@SequenceProxyPullSupplier_i@@UAEPAVFilterIDSeq@CosNotifyFilter@@XZ
?get_all_filters@SequenceProxyPushConsumer_i@@$4PPPPPPPM@A@AEPAVFilterIDSeq@CosNotifyFilter@@XZ
?get_all_filters@SequenceProxyPushConsumer_i@@UAEPAVFilterIDSeq@CosNotifyFilter@@XZ
?get_all_filters@SequenceProxyPushSupplier_i@@$4PPPPPPPM@A@AEPAVFilterIDSeq@CosNotifyFilter@@XZ
?get_all_filters@SequenceProxyPushSupplier_i@@UAEPAVFilterIDSeq@CosNotifyFilter@@XZ
?get_all_filters@StructuredProxyPullConsumer_i@@$4PPPPPPPM@A@AEPAVFilterIDSeq@CosNotifyFilter@@XZ
?get_all_filters@StructuredProxyPullConsumer_i@@UAEPAVFilterIDSeq@CosNotifyFilter@@XZ
?get_all_filters@StructuredProxyPullSupplier_i@@$4PPPPPPPM@A@AEPAVFilterIDSeq@CosNotifyFilter@@XZ
?get_all_filters@StructuredProxyPullSupplier_i@@UAEPAVFilterIDSeq@CosNotifyFilter@@XZ
?get_all_filters@StructuredProxyPushConsumer_i@@$4PPPPPPPM@A@AEPAVFilterIDSeq@CosNotifyFilter@@XZ
?get_all_filters@StructuredProxyPushConsumer_i@@UAEPAVFilterIDSeq@CosNotifyFilter@@XZ
?get_all_filters@StructuredProxyPushSupplier_i@@$4PPPPPPPM@A@AEPAVFilterIDSeq@CosNotifyFilter@@XZ
?get_all_filters@StructuredProxyPushSupplier_i@@UAEPAVFilterIDSeq@CosNotifyFilter@@XZ
?get_all_filters@SupplierAdmin_i@@$4PPPPPPPM@A@AEPAVFilterIDSeq@CosNotifyFilter@@XZ
?get_all_filters@SupplierAdmin_i@@UAEPAVFilterIDSeq@CosNotifyFilter@@XZ
?get_all_mapping_constraints@MappingFilter_i@@$4PPPPPPPM@A@AEPAVMappingConstraintInfoSeq@CosNotifyFilter@@XZ
?get_all_mapping_constraints@MappingFilter_i@@UAEPAVMappingConstraintInfoSeq@CosNotifyFilter@@XZ
?get_all_supplieradmins@EventChannel_i@@$4PPPPPPPM@A@AEPAVAdminIDSeq@CosNotifyChannelAdmin@@XZ
?get_all_supplieradmins@EventChannel_i@@UAEPAVAdminIDSeq@CosNotifyChannelAdmin@@XZ
?get_callbacks@Filter_i@@$4PPPPPPPM@A@AEPAVCallbackIDSeq@CosNotifyFilter@@XZ
?get_callbacks@Filter_i@@UAEPAVCallbackIDSeq@CosNotifyFilter@@XZ
?get_channel_factory@RDINotifServer@@$4PPPPPPPM@A@AEPAV_objref_EventChannelFactory@AttNotification@@XZ
?get_channel_factory@RDINotifServer@@UAEPAV_objref_EventChannelFactory@AttNotification@@XZ
?get_constraints@Filter_i@@$4PPPPPPPM@A@AEPAVConstraintInfoSeq@CosNotifyFilter@@ABVConstraintIDSeq@3@@Z
?get_constraints@Filter_i@@UAEPAVConstraintInfoSeq@CosNotifyFilter@@ABVConstraintIDSeq@3@@Z
?get_consumeradmin@EventChannel_i@@$4PPPPPPPM@A@AEPAV_objref_ConsumerAdmin@CosNotifyChannelAdmin@@J@Z
?get_consumeradmin@EventChannel_i@@UAEPAV_objref_ConsumerAdmin@CosNotifyChannelAdmin@@J@Z
?get_cos_event@RDI_StructuredEvent@@QBEABUStructuredEvent@CosNotification@@XZ
?get_default_channel@RDINotifServer@@$4PPPPPPPM@A@AEPAV_objref_EventChannel@AttNotification@@XZ
?get_default_channel@RDINotifServer@@UAEPAV_objref_EventChannel@AttNotification@@XZ
?get_dname_rtval@RDI_StructuredEvent@@QAEPBVRDI_RTVal@@XZ
?get_domain_name@RDI_StructuredEvent@@QBEPBDXZ
?get_ename_rtval@RDI_StructuredEvent@@QAEPBVRDI_RTVal@@XZ
?get_etype_rtval@RDI_StructuredEvent@@QAEPBVRDI_RTVal@@XZ
?get_event@RDIPriorityQueue@@QAEPAVRDI_StructuredEvent@@K@Z
?get_event_channel@EventChannelFactory_i@@$4PPPPPPPM@A@AEPAV_objref_EventChannel@CosNotifyChannelAdmin@@J@Z
?get_event_channel@EventChannelFactory_i@@UAEPAV_objref_EventChannel@CosNotifyChannelAdmin@@J@Z
?get_event_name@RDI_StructuredEvent@@QBEPBDXZ
?get_fdata_rtval@RDI_StructuredEvent@@QAEPBVRDI_RTVal@@XZ
?get_fhdr_rtval@RDI_StructuredEvent@@QAEPBVRDI_RTVal@@XZ
?get_filter@ConsumerAdmin_i@@$4PPPPPPPM@A@AEPAV_objref_Filter@CosNotifyFilter@@J@Z
?get_filter@ConsumerAdmin_i@@UAEPAV_objref_Filter@CosNotifyFilter@@J@Z
?get_filter@FAdminHelper@@QAEPAV_objref_Filter@CosNotifyFilter@@J@Z
?get_filter@ProxyPullConsumer_i@@$4PPPPPPPM@A@AEPAV_objref_Filter@CosNotifyFilter@@J@Z
?get_filter@ProxyPullConsumer_i@@UAEPAV_objref_Filter@CosNotifyFilter@@J@Z
?get_filter@ProxyPullSupplier_i@@$4PPPPPPPM@A@AEPAV_objref_Filter@CosNotifyFilter@@J@Z
?get_filter@ProxyPullSupplier_i@@UAEPAV_objref_Filter@CosNotifyFilter@@J@Z
?get_filter@ProxyPushConsumer_i@@$4PPPPPPPM@A@AEPAV_objref_Filter@CosNotifyFilter@@J@Z
?get_filter@ProxyPushConsumer_i@@UAEPAV_objref_Filter@CosNotifyFilter@@J@Z
?get_filter@ProxyPushSupplier_i@@$4PPPPPPPM@A@AEPAV_objref_Filter@CosNotifyFilter@@J@Z
?get_filter@ProxyPushSupplier_i@@UAEPAV_objref_Filter@CosNotifyFilter@@J@Z
?get_filter@RDIProxyConsumer@@QAEPAV_objref_Filter@CosNotifyFilter@@J@Z
?get_filter@RDIProxySupplier@@QAEPAV_objref_Filter@CosNotifyFilter@@J@Z
?get_filter@SequenceProxyPullConsumer_i@@$4PPPPPPPM@A@AEPAV_objref_Filter@CosNotifyFilter@@J@Z
?get_filter@SequenceProxyPullConsumer_i@@UAEPAV_objref_Filter@CosNotifyFilter@@J@Z
?get_filter@SequenceProxyPullSupplier_i@@$4PPPPPPPM@A@AEPAV_objref_Filter@CosNotifyFilter@@J@Z
?get_filter@SequenceProxyPullSupplier_i@@UAEPAV_objref_Filter@CosNotifyFilter@@J@Z
?get_filter@SequenceProxyPushConsumer_i@@$4PPPPPPPM@A@AEPAV_objref_Filter@CosNotifyFilter@@J@Z
?get_filter@SequenceProxyPushConsumer_i@@UAEPAV_objref_Filter@CosNotifyFilter@@J@Z
?get_filter@SequenceProxyPushSupplier_i@@$4PPPPPPPM@A@AEPAV_objref_Filter@CosNotifyFilter@@J@Z
?get_filter@SequenceProxyPushSupplier_i@@UAEPAV_objref_Filter@CosNotifyFilter@@J@Z
?get_filter@StructuredProxyPullConsumer_i@@$4PPPPPPPM@A@AEPAV_objref_Filter@CosNotifyFilter@@J@Z
?get_filter@StructuredProxyPullConsumer_i@@UAEPAV_objref_Filter@CosNotifyFilter@@J@Z
?get_filter@StructuredProxyPullSupplier_i@@$4PPPPPPPM@A@AEPAV_objref_Filter@CosNotifyFilter@@J@Z
?get_filter@StructuredProxyPullSupplier_i@@UAEPAV_objref_Filter@CosNotifyFilter@@J@Z
?get_filter@StructuredProxyPushConsumer_i@@$4PPPPPPPM@A@AEPAV_objref_Filter@CosNotifyFilter@@J@Z
?get_filter@StructuredProxyPushConsumer_i@@UAEPAV_objref_Filter@CosNotifyFilter@@J@Z
?get_filter@StructuredProxyPushSupplier_i@@$4PPPPPPPM@A@AEPAV_objref_Filter@CosNotifyFilter@@J@Z
?get_filter@StructuredProxyPushSupplier_i@@UAEPAV_objref_Filter@CosNotifyFilter@@J@Z
?get_filter@SupplierAdmin_i@@$4PPPPPPPM@A@AEPAV_objref_Filter@CosNotifyFilter@@J@Z
?get_filter@SupplierAdmin_i@@UAEPAV_objref_Filter@CosNotifyFilter@@J@Z
?get_filter_factory@RDINotifServer@@$4PPPPPPPM@A@AEPAV_objref_FilterFactory@AttNotification@@XZ
?get_filter_factory@RDINotifServer@@UAEPAV_objref_FilterFactory@AttNotification@@XZ
?get_gmt_cosbase_secs_nanosecs@RDI_UtcT@@QBEXAAK0@Z
?get_hdr_rtval@RDI_StructuredEvent@@QAEPBVRDI_RTVal@@XZ
?get_head@?$RDI_List@PAVRDI_StructuredEvent@@@@QAEPAVRDI_StructuredEvent@@XZ
?get_head@?$RDI_List@UProxyDispatch_t@EventChannel_i@@@@QAE?AUProxyDispatch_t@EventChannel_i@@XZ
?get_mapping_constraints@MappingFilter_i@@$4PPPPPPPM@A@AEPAVMappingConstraintInfoSeq@CosNotifyFilter@@ABVConstraintIDSeq@3@@Z
?get_mapping_constraints@MappingFilter_i@@UAEPAVMappingConstraintInfoSeq@CosNotifyFilter@@ABVConstraintIDSeq@3@@Z
?get_posixbase_secs_msecs@RDI_TimeT@@QBEXAAK0@Z
?get_posixbase_secs_nanosecs@RDI_TimeT@@QBEXAAK0@Z
?get_pri_head@RDINotifQueue@@QAEPAVRDI_StructuredEvent@@XZ
?get_pri_head@RDIPriorityQueue@@QAEPAVRDI_StructuredEvent@@XZ
?get_proxy_consumer@SupplierAdmin_i@@$4PPPPPPPM@A@AEPAV_objref_ProxyConsumer@CosNotifyChannelAdmin@@J@Z
?get_proxy_consumer@SupplierAdmin_i@@UAEPAV_objref_ProxyConsumer@CosNotifyChannelAdmin@@J@Z
?get_proxy_supplier@ConsumerAdmin_i@@$4PPPPPPPM@A@AEPAV_objref_ProxySupplier@CosNotifyChannelAdmin@@J@Z
?get_proxy_supplier@ConsumerAdmin_i@@UAEPAV_objref_ProxySupplier@CosNotifyChannelAdmin@@J@Z
?get_qos@ConsumerAdmin_i@@$4PPPPPPPM@A@AEPAVPropertySeq@CosNotification@@XZ
?get_qos@ConsumerAdmin_i@@UAEPAVPropertySeq@CosNotification@@XZ
?get_qos@EventChannelFactory_i@@$4PPPPPPPM@A@AEPAVPropertySeq@CosNotification@@XZ
?get_qos@EventChannelFactory_i@@UAEPAVPropertySeq@CosNotification@@XZ
?get_qos@EventChannel_i@@$4PPPPPPPM@A@AEPAVPropertySeq@CosNotification@@XZ
?get_qos@EventChannel_i@@UAEPAVPropertySeq@CosNotification@@XZ
?get_qos@ProxyPullConsumer_i@@$4PPPPPPPM@A@AEPAVPropertySeq@CosNotification@@XZ
?get_qos@ProxyPullConsumer_i@@UAEPAVPropertySeq@CosNotification@@XZ
?get_qos@ProxyPullSupplier_i@@$4PPPPPPPM@A@AEPAVPropertySeq@CosNotification@@XZ
?get_qos@ProxyPullSupplier_i@@UAEPAVPropertySeq@CosNotification@@XZ
?get_qos@ProxyPushConsumer_i@@$4PPPPPPPM@A@AEPAVPropertySeq@CosNotification@@XZ
?get_qos@ProxyPushConsumer_i@@UAEPAVPropertySeq@CosNotification@@XZ
?get_qos@ProxyPushSupplier_i@@$4PPPPPPPM@A@AEPAVPropertySeq@CosNotification@@XZ
?get_qos@ProxyPushSupplier_i@@UAEPAVPropertySeq@CosNotification@@XZ
?get_qos@RDIProxyConsumer@@QAEPAVPropertySeq@CosNotification@@XZ
?get_qos@RDIProxySupplier@@QAEPAVPropertySeq@CosNotification@@XZ
?get_qos@RDI_NotifQoS@@QBEPAVPropertySeq@CosNotification@@W4RDI_ObjectKind@@@Z
?get_qos@SequenceProxyPullConsumer_i@@$4PPPPPPPM@A@AEPAVPropertySeq@CosNotification@@XZ
?get_qos@SequenceProxyPullConsumer_i@@UAEPAVPropertySeq@CosNotification@@XZ
?get_qos@SequenceProxyPullSupplier_i@@$4PPPPPPPM@A@AEPAVPropertySeq@CosNotification@@XZ
?get_qos@SequenceProxyPullSupplier_i@@UAEPAVPropertySeq@CosNotification@@XZ
?get_qos@SequenceProxyPushConsumer_i@@$4PPPPPPPM@A@AEPAVPropertySeq@CosNotification@@XZ
?get_qos@SequenceProxyPushConsumer_i@@UAEPAVPropertySeq@CosNotification@@XZ
?get_qos@SequenceProxyPushSupplier_i@@$4PPPPPPPM@A@AEPAVPropertySeq@CosNotification@@XZ
?get_qos@SequenceProxyPushSupplier_i@@UAEPAVPropertySeq@CosNotification@@XZ
?get_qos@StructuredProxyPullConsumer_i@@$4PPPPPPPM@A@AEPAVPropertySeq@CosNotification@@XZ
?get_qos@StructuredProxyPullConsumer_i@@UAEPAVPropertySeq@CosNotification@@XZ
?get_qos@StructuredProxyPullSupplier_i@@$4PPPPPPPM@A@AEPAVPropertySeq@CosNotification@@XZ
?get_qos@StructuredProxyPullSupplier_i@@UAEPAVPropertySeq@CosNotification@@XZ
?get_qos@StructuredProxyPushConsumer_i@@$4PPPPPPPM@A@AEPAVPropertySeq@CosNotification@@XZ
?get_qos@StructuredProxyPushConsumer_i@@UAEPAVPropertySeq@CosNotification@@XZ
?get_qos@StructuredProxyPushSupplier_i@@$4PPPPPPPM@A@AEPAVPropertySeq@CosNotification@@XZ
?get_qos@StructuredProxyPushSupplier_i@@UAEPAVPropertySeq@CosNotification@@XZ
?get_qos@SupplierAdmin_i@@$4PPPPPPPM@A@AEPAVPropertySeq@CosNotification@@XZ
?get_qos@SupplierAdmin_i@@UAEPAVPropertySeq@CosNotification@@XZ
?get_rel_secs_nanosecs@RDI_TimeT@@QBEXAAK0@Z
?get_rob_rtval@RDI_StructuredEvent@@QAEPBVRDI_RTVal@@XZ
?get_sec_head@RDINotifQueue@@QAEPAVRDI_StructuredEvent@@XZ
?get_sec_head@RDIPriorityQueue@@QAEPAVRDI_StructuredEvent@@XZ
?get_server@RDI@@SAPAV_objref_Server@AttNotification@@XZ
?get_server@omniNotify@@SAPAV_objref_Server@AttNotification@@XZ
?get_server_i@RDI@@SAPAVRDINotifServer@@XZ
?get_server_props@RDINotifServer@@$4PPPPPPPM@A@AEPAVPropertySeq@CosNotification@@XZ
?get_server_props@RDINotifServer@@UAEPAVPropertySeq@CosNotification@@XZ
?get_server_qos@RDI@@SAPAVRDI_ServerQoS@@XZ
?get_state@RDI_StructuredEvent@@QBE?AW4state_t@1@XZ
?get_supplieradmin@EventChannel_i@@$4PPPPPPPM@A@AEPAV_objref_SupplierAdmin@CosNotifyChannelAdmin@@J@Z
?get_supplieradmin@EventChannel_i@@UAEPAV_objref_SupplierAdmin@CosNotifyChannelAdmin@@J@Z
?get_timestamp@RDI_StructuredEvent@@QBE_KXZ
?get_tname_rtval@RDI_StructuredEvent@@QAEPBVRDI_RTVal@@XZ
?get_top_rtval@RDI_StructuredEvent@@QAEPBVRDI_RTVal@@XZ
?get_type@RDI_StructuredEvent@@QBEABUEventType@CosNotification@@XZ
?get_type_name@RDI_StructuredEvent@@QBEPBDXZ
?get_vahdr_rtval@RDI_StructuredEvent@@QAEPBVRDI_RTVal@@XZ
?get_value@RDI_Config@@QBEHAAVRDIstrstream@@PBDAAF_N@Z
?get_value@RDI_Config@@QBEHAAVRDIstrstream@@PBDAAG_N@Z
?get_value@RDI_Config@@QBEHAAVRDIstrstream@@PBDAAJ_N@Z
?get_value@RDI_Config@@QBEHAAVRDIstrstream@@PBDAAK_N@Z
?get_value@RDI_Config@@QBEHAAVRDIstrstream@@PBDAAN_N@Z
?get_value@RDI_Config@@QBEHAAVRDIstrstream@@PBDAAPAD_N@Z
?get_value@RDI_Config@@QBEHAAVRDIstrstream@@PBDAA_N_N@Z
?greenwich_time@RDI_UtcT@@QBE_KXZ
?has_events@EventProxyPushSupplier_i@@$4PPPPPPPM@A@AE_NPAK0@Z
?has_events@EventProxyPushSupplier_i@@UAE_NPAK0@Z
?has_events@ProxyPushSupplier_i@@$4PPPPPPPM@A@AE_NPAK0@Z
?has_events@ProxyPushSupplier_i@@UAE_NPAK0@Z
?has_events@SequenceProxyPushSupplier_i@@$4PPPPPPPM@A@AE_NPAK0@Z
?has_events@SequenceProxyPushSupplier_i@@UAE_NPAK0@Z
?has_events@StructuredProxyPushSupplier_i@@$4PPPPPPPM@A@AE_NPAK0@Z
?has_events@StructuredProxyPushSupplier_i@@UAE_NPAK0@Z
?has_filters@ConsumerAdmin_i@@QBE_NXZ
?has_filters@FAdminHelper@@QBE_NXZ
?has_filters@RDIProxySupplier@@QBE_NXZ
?has_filters@SupplierAdmin_i@@QBE_NXZ
?hash@Key_t@RDI_StructuredEvent@@SAIPBX@Z
?hash@RDI_EventType@@SAIPBX@Z
?high@RDI_UtcT@@QBEKXZ
?import_settings@RDI_Config@@QAE_NAAVRDIstrstream@@PBD@Z
?in@_CORBA_String_var@@QBEPBDXZ
?incr_consumers@EventChannel_i@@QAE_NXZ
?incr_num_announcements@EventChannel_i@@QAEXXZ
?incr_num_notifications@EventChannel_i@@QAEXI@Z
?incr_num_rdi_match@EventChannel_i@@QAEXXZ
?incr_num_rvm_eval@EventChannel_i@@QAEXXZ
?incr_ref_counter_lock_held@RDI_StructuredEvent@@QAEXXZ
?incr_suppliers@EventChannel_i@@QAE_NXZ
?init@RDI_RVM@@QAEXPAVRDI_OpSeq@@_N@Z
?init@WRAPPED_ORB_OA@@SAXAAHPAPAD@Z
?init_from_any@RDI_RTVal@@QAEXAAVAny@CORBA@@_N@Z
?init_server@RDI@@SAPAV_objref_Server@AttNotification@@AAHPAPAD@Z
?init_server@omniNotify@@SAPAV_objref_Server@AttNotification@@AAHPAPAD@Z
?insert@?$RDI_Hash@JPAVConsumerAdmin_i@@@@QAEHABJABQAVConsumerAdmin_i@@@Z
?insert@?$RDI_Hash@JPAVEventChannel_i@@@@QAEHABJABQAVEventChannel_i@@@Z
?insert@?$RDI_Hash@JPAVFilter_i@@@@QAEHABJABQAVFilter_i@@@Z
?insert@?$RDI_Hash@JPAVProxyPullConsumer_i@@@@QAEHABJABQAVProxyPullConsumer_i@@@Z
?insert@?$RDI_Hash@JPAVProxyPullSupplier_i@@@@QAEHABJABQAVProxyPullSupplier_i@@@Z
?insert@?$RDI_Hash@JPAVProxyPushConsumer_i@@@@QAEHABJABQAVProxyPushConsumer_i@@@Z
?insert@?$RDI_Hash@JPAVProxyPushSupplier_i@@@@QAEHABJABQAVProxyPushSupplier_i@@@Z
?insert@?$RDI_Hash@JPAVSequenceProxyPullConsumer_i@@@@QAEHABJABQAVSequenceProxyPullConsumer_i@@@Z
?insert@?$RDI_Hash@JPAVSequenceProxyPullSupplier_i@@@@QAEHABJABQAVSequenceProxyPullSupplier_i@@@Z
?insert@?$RDI_Hash@JPAVSequenceProxyPushConsumer_i@@@@QAEHABJABQAVSequenceProxyPushConsumer_i@@@Z
?insert@?$RDI_Hash@JPAVSequenceProxyPushSupplier_i@@@@QAEHABJABQAVSequenceProxyPushSupplier_i@@@Z
?insert@?$RDI_Hash@JPAVStructuredProxyPullConsumer_i@@@@QAEHABJABQAVStructuredProxyPullConsumer_i@@@Z
?insert@?$RDI_Hash@JPAVStructuredProxyPullSupplier_i@@@@QAEHABJABQAVStructuredProxyPullSupplier_i@@@Z
?insert@?$RDI_Hash@JPAVStructuredProxyPushConsumer_i@@@@QAEHABJABQAVStructuredProxyPushConsumer_i@@@Z
?insert@?$RDI_Hash@JPAVStructuredProxyPushSupplier_i@@@@QAEHABJABQAVStructuredProxyPushSupplier_i@@@Z
?insert@?$RDI_Hash@JPAVSupplierAdmin_i@@@@QAEHABJABQAVSupplierAdmin_i@@@Z
?insert@?$RDI_Hash@JPAV_objref_NotifySubscribe@CosNotifyComm@@@@QAEHABJABQAV_objref_NotifySubscribe@CosNotifyComm@@@Z
?insert@?$RDI_Hash@JUFAdminFilterEntry_s@@@@QAEHABJABUFAdminFilterEntry_s@@@Z
?insert@?$RDI_Hash@JURDINfyCB@@@@QAEHABJABURDINfyCB@@@Z
?insert@?$RDI_Hash@PAVRDIOplockEntry@@H@@QAEHABQAVRDIOplockEntry@@ABH@Z
?insert@?$RDI_Hash@UEventType@CosNotification@@K@@QAEHABUEventType@CosNotification@@ABK@Z
?insert@?$RDI_Hash@UEventType@CosNotification@@UVNode_t@RDI_TypeMap@@@@QAEHABUEventType@CosNotification@@ABUVNode_t@RDI_TypeMap@@@Z
?insert@?$RDI_Hash@UKey_t@RDI_StructuredEvent@@UVal_t@2@@@QAEHABUKey_t@RDI_StructuredEvent@@ABUVal_t@3@@Z
?insert@?$RDI_Hash@VRDI_EventType@@K@@QAEHABVRDI_EventType@@ABK@Z
?insert@?$RDI_Hash@VRDI_EventType@@PAX@@QAEHABVRDI_EventType@@ABQAX@Z
?insert@?$RDI_SafeList@VConsumerAdmin_i@@@@QAEXPAVConsumerAdmin_i@@@Z
?insert@CAdminGroupMgr@@QAEXPAVConsumerAdmin_i@@@Z
?insert@RDINotifQueue@@QAEHPAVRDI_StructuredEvent@@@Z
?insert@RDIPriorityQueue@@QAEHPAVRDI_StructuredEvent@@_K1@Z
?insert@RDI_EventQueue@@QAEHPAVRDI_StructuredEvent@@@Z
?insert_change@RDI_ChangePool@@QAEXW4RDI_ChangeKind@@ABVEventTypeSeq@CosNotification@@1@Z
?insert_proxy@RDI_ChangePool@@QAEXPAVRDIProxySupplier@@@Z
?insert_proxy@RDI_PullSupplier@@QAEXPAVRDIProxyPullConsumer@@@Z
?insert_proxyConsumer@RDI_ChangePool@@QAEXPAVRDIProxyConsumer@@@Z
?insert_proxySupplier@RDI_NotifyConsumer@@QAEXPAVRDIProxyPushSupplier@@@Z
?insert_tail@?$RDI_List@PAVEventProxyPullConsumer_i@@@@QAEHABQAVEventProxyPullConsumer_i@@@Z
?insert_tail@?$RDI_List@PAVEventProxyPullSupplier_i@@@@QAEHABQAVEventProxyPullSupplier_i@@@Z
?insert_tail@?$RDI_List@PAVEventProxyPushConsumer_i@@@@QAEHABQAVEventProxyPushConsumer_i@@@Z
?insert_tail@?$RDI_List@PAVEventProxyPushSupplier_i@@@@QAEHABQAVEventProxyPushSupplier_i@@@Z
?insert_tail@?$RDI_List@PAVRDI_StructuredEvent@@@@QAEHABQAVRDI_StructuredEvent@@@Z
?insert_tail@?$RDI_List@UProxyDispatch_t@EventChannel_i@@@@QAEHABUProxyDispatch_t@EventChannel_i@@@Z
?install_all_defaults@RDI_AllQoS@@SAXAAVRDI_Config@@@Z
?inuse@RDIOplockEntry@@QAEGXZ
?inuseone_wait@RDIOplockEntry@@QAEXXZ
?is_admin_prop@RDI_AdminQoS@@SA_NPBD@Z
?is_available@EventProxyPullConsumer_i@@$4PPPPPPPM@A@AE_NPAK0@Z
?is_available@EventProxyPullConsumer_i@@UAE_NPAK0@Z
?is_available@ProxyPullConsumer_i@@$4PPPPPPPM@A@AE_NPAK0@Z
?is_available@ProxyPullConsumer_i@@UAE_NPAK0@Z
?is_available@SequenceProxyPullConsumer_i@@$4PPPPPPPM@A@AE_NPAK0@Z
?is_available@SequenceProxyPullConsumer_i@@UAE_NPAK0@Z
?is_available@StructuredProxyPullConsumer_i@@$4PPPPPPPM@A@AE_NPAK0@Z
?is_available@StructuredProxyPullConsumer_i@@UAE_NPAK0@Z
?is_clear@RDI_Bitmap@@QBEHI@Z
?is_connected@EventProxyPullConsumer_i@@QBE_NXZ
?is_connected@EventProxyPullSupplier_i@@QBE_NXZ
?is_connected@EventProxyPushConsumer_i@@QBE_NXZ
?is_connected@EventProxyPushSupplier_i@@QBE_NXZ
?is_connected@RDIProxyConsumer@@QBE_NXZ
?is_connected@RDIProxySupplier@@QBE_NXZ
?is_nil@CORBA@@YA_NPAVObject@1@@Z
?is_qos_prop@RDI_NotifQoS@@SA_NPBD@Z
?is_server_prop@RDI_ServerQoS@@SA_NPBD@Z
?is_set@RDI_Bitmap@@QBEHI@Z
?is_startup_prop@RDINotifServer@@SA_NPBD@Z
?is_supported@FilterFactory_i@@QAE_NPBD@Z
?is_valid@?$RDI_HashCursor@JPAVConsumerAdmin_i@@@@QBEHXZ
?is_valid@?$RDI_HashCursor@JPAVEventChannel_i@@@@QBEHXZ
?is_valid@?$RDI_HashCursor@JPAVFilter_i@@@@QBEHXZ
?is_valid@?$RDI_HashCursor@JPAVProxyPullConsumer_i@@@@QBEHXZ
?is_valid@?$RDI_HashCursor@JPAVProxyPullSupplier_i@@@@QBEHXZ
?is_valid@?$RDI_HashCursor@JPAVProxyPushConsumer_i@@@@QBEHXZ
?is_valid@?$RDI_HashCursor@JPAVProxyPushSupplier_i@@@@QBEHXZ
?is_valid@?$RDI_HashCursor@JPAVSequenceProxyPullConsumer_i@@@@QBEHXZ
?is_valid@?$RDI_HashCursor@JPAVSequenceProxyPullSupplier_i@@@@QBEHXZ
?is_valid@?$RDI_HashCursor@JPAVSequenceProxyPushConsumer_i@@@@QBEHXZ
?is_valid@?$RDI_HashCursor@JPAVSequenceProxyPushSupplier_i@@@@QBEHXZ
?is_valid@?$RDI_HashCursor@JPAVStructuredProxyPullConsumer_i@@@@QBEHXZ
?is_valid@?$RDI_HashCursor@JPAVStructuredProxyPullSupplier_i@@@@QBEHXZ
?is_valid@?$RDI_HashCursor@JPAVStructuredProxyPushConsumer_i@@@@QBEHXZ
?is_valid@?$RDI_HashCursor@JPAVStructuredProxyPushSupplier_i@@@@QBEHXZ
?is_valid@?$RDI_HashCursor@JPAVSupplierAdmin_i@@@@QBEHXZ
?is_valid@?$RDI_HashCursor@JPAV_objref_NotifySubscribe@CosNotifyComm@@@@QBEHXZ
?is_valid@?$RDI_HashCursor@JUFAdminFilterEntry_s@@@@QBEHXZ
?is_valid@?$RDI_HashCursor@JURDINfyCB@@@@QBEHXZ
?is_valid@?$RDI_HashCursor@UEventType@CosNotification@@K@@QBEHXZ
?is_valid@?$RDI_HashCursor@UEventType@CosNotification@@UVNode_t@RDI_TypeMap@@@@QBEHXZ
?is_valid@?$RDI_HashCursor@UKey_t@RDI_StructuredEvent@@UVal_t@2@@@QBEHXZ
?is_valid@?$RDI_HashCursor@VRDI_EventType@@K@@QBEHXZ
?is_valid@?$RDI_HashCursor@VRDI_EventType@@PAX@@QBEHXZ
?iter_next@?$RDI_SafeList@VConsumerAdmin_i@@@@QAEPAVConsumerAdmin_i@@XZ
?key@?$RDI_HashCursor@JPAVConsumerAdmin_i@@@@QBEABJXZ
?key@?$RDI_HashCursor@JPAVEventChannel_i@@@@QBEABJXZ
?key@?$RDI_HashCursor@JPAVFilter_i@@@@QBEABJXZ
?key@?$RDI_HashCursor@JPAVProxyPullConsumer_i@@@@QBEABJXZ
?key@?$RDI_HashCursor@JPAVProxyPullSupplier_i@@@@QBEABJXZ
?key@?$RDI_HashCursor@JPAVProxyPushConsumer_i@@@@QBEABJXZ
?key@?$RDI_HashCursor@JPAVProxyPushSupplier_i@@@@QBEABJXZ
?key@?$RDI_HashCursor@JPAVSequenceProxyPullConsumer_i@@@@QBEABJXZ
?key@?$RDI_HashCursor@JPAVSequenceProxyPullSupplier_i@@@@QBEABJXZ
?key@?$RDI_HashCursor@JPAVSequenceProxyPushConsumer_i@@@@QBEABJXZ
?key@?$RDI_HashCursor@JPAVSequenceProxyPushSupplier_i@@@@QBEABJXZ
?key@?$RDI_HashCursor@JPAVStructuredProxyPullConsumer_i@@@@QBEABJXZ
?key@?$RDI_HashCursor@JPAVStructuredProxyPullSupplier_i@@@@QBEABJXZ
?key@?$RDI_HashCursor@JPAVStructuredProxyPushConsumer_i@@@@QBEABJXZ
?key@?$RDI_HashCursor@JPAVStructuredProxyPushSupplier_i@@@@QBEABJXZ
?key@?$RDI_HashCursor@JPAVSupplierAdmin_i@@@@QBEABJXZ
?key@?$RDI_HashCursor@JPAV_objref_NotifySubscribe@CosNotifyComm@@@@QBEABJXZ
?key@?$RDI_HashCursor@JUFAdminFilterEntry_s@@@@QBEABJXZ
?key@?$RDI_HashCursor@UEventType@CosNotification@@K@@QBEABUEventType@CosNotification@@XZ
?key@?$RDI_HashCursor@UEventType@CosNotification@@UVNode_t@RDI_TypeMap@@@@QBEABUEventType@CosNotification@@XZ
?key@?$RDI_HashCursor@UKey_t@RDI_StructuredEvent@@UVal_t@2@@@QBEABUKey_t@RDI_StructuredEvent@@XZ
?key@?$RDI_HashCursor@VRDI_EventType@@K@@QBEABVRDI_EventType@@XZ
?key@?$RDI_HashCursor@VRDI_EventType@@PAX@@QBEABVRDI_EventType@@XZ
?len@RDIstrstream@@QAEIXZ
?length@?$RDI_Hash@JPAVConsumerAdmin_i@@@@QBEIXZ
?length@?$RDI_Hash@JPAVEventChannel_i@@@@QBEIXZ
?length@?$RDI_Hash@JPAVFilter_i@@@@QBEIXZ
?length@?$RDI_Hash@JPAVProxyPullConsumer_i@@@@QBEIXZ
?length@?$RDI_Hash@JPAVProxyPullSupplier_i@@@@QBEIXZ
?length@?$RDI_Hash@JPAVProxyPushConsumer_i@@@@QBEIXZ
?length@?$RDI_Hash@JPAVProxyPushSupplier_i@@@@QBEIXZ
?length@?$RDI_Hash@JPAVSequenceProxyPullConsumer_i@@@@QBEIXZ
?length@?$RDI_Hash@JPAVSequenceProxyPullSupplier_i@@@@QBEIXZ
?length@?$RDI_Hash@JPAVSequenceProxyPushConsumer_i@@@@QBEIXZ
?length@?$RDI_Hash@JPAVSequenceProxyPushSupplier_i@@@@QBEIXZ
?length@?$RDI_Hash@JPAVStructuredProxyPullConsumer_i@@@@QBEIXZ
?length@?$RDI_Hash@JPAVStructuredProxyPullSupplier_i@@@@QBEIXZ
?length@?$RDI_Hash@JPAVStructuredProxyPushConsumer_i@@@@QBEIXZ
?length@?$RDI_Hash@JPAVStructuredProxyPushSupplier_i@@@@QBEIXZ
?length@?$RDI_Hash@JPAVSupplierAdmin_i@@@@QBEIXZ
?length@?$RDI_Hash@JPAV_objref_NotifySubscribe@CosNotifyComm@@@@QBEIXZ
?length@?$RDI_Hash@JUFAdminFilterEntry_s@@@@QBEIXZ
?length@?$RDI_Hash@JURDINfyCB@@@@QBEIXZ
?length@?$RDI_Hash@UEventType@CosNotification@@K@@QBEIXZ
?length@?$RDI_Hash@UEventType@CosNotification@@UVNode_t@RDI_TypeMap@@@@QBEIXZ
?length@?$RDI_Hash@VRDI_EventType@@PAX@@QBEIXZ
?length@?$RDI_List@PAVEventProxyPullConsumer_i@@@@QBEIXZ
?length@?$RDI_List@PAVEventProxyPullSupplier_i@@@@QBEIXZ
?length@?$RDI_List@PAVEventProxyPushConsumer_i@@@@QBEIXZ
?length@?$RDI_List@PAVEventProxyPushSupplier_i@@@@QBEIXZ
?length@?$RDI_List@PAVRDI_StructuredEvent@@@@QBEIXZ
?length@?$RDI_List@UProxyDispatch_t@EventChannel_i@@@@QBEIXZ
?length@?$RDI_SafeList@VConsumerAdmin_i@@@@QBEHXZ
?length@?$_CORBA_Sequence@J@@QAEXK@Z
?length@?$_CORBA_Sequence@J@@QBEKXZ
?length@?$_CORBA_Sequence@PAVConstraintImpl@@@@QAEXK@Z
?length@?$_CORBA_Sequence@PAVConstraintImpl@@@@QBEKXZ
?length@?$_CORBA_Sequence@PAVConsumerAdmin_i@@@@QAEXK@Z
?length@?$_CORBA_Sequence@PAVConsumerAdmin_i@@@@QBEKXZ
?length@?$_CORBA_Sequence@PAVEventProxyPullConsumer_i@@@@QAEXK@Z
?length@?$_CORBA_Sequence@PAVEventProxyPullSupplier_i@@@@QAEXK@Z
?length@?$_CORBA_Sequence@PAVEventProxyPushConsumer_i@@@@QAEXK@Z
?length@?$_CORBA_Sequence@PAVEventProxyPushSupplier_i@@@@QAEXK@Z
?length@?$_CORBA_Sequence@PAVFilter_i@@@@QAEXK@Z
?length@?$_CORBA_Sequence@PAVProxyPullConsumer_i@@@@QAEXK@Z
?length@?$_CORBA_Sequence@PAVProxyPullSupplier_i@@@@QAEXK@Z
?length@?$_CORBA_Sequence@PAVProxyPushConsumer_i@@@@QAEXK@Z
?length@?$_CORBA_Sequence@PAVProxyPushSupplier_i@@@@QAEXK@Z
?length@?$_CORBA_Sequence@PAVRDINotifySubscribe@@@@QAEXK@Z
?length@?$_CORBA_Sequence@PAVSequenceProxyPullConsumer_i@@@@QAEXK@Z
?length@?$_CORBA_Sequence@PAVSequenceProxyPullSupplier_i@@@@QAEXK@Z
?length@?$_CORBA_Sequence@PAVSequenceProxyPushConsumer_i@@@@QAEXK@Z
?length@?$_CORBA_Sequence@PAVSequenceProxyPushSupplier_i@@@@QAEXK@Z
?length@?$_CORBA_Sequence@PAVStructuredProxyPullConsumer_i@@@@QAEXK@Z
?length@?$_CORBA_Sequence@PAVStructuredProxyPullSupplier_i@@@@QAEXK@Z
?length@?$_CORBA_Sequence@PAVStructuredProxyPushConsumer_i@@@@QAEXK@Z
?length@?$_CORBA_Sequence@PAVStructuredProxyPushSupplier_i@@@@QAEXK@Z
?length@?$_CORBA_Sequence@PAVSupplierAdmin_i@@@@QAEXK@Z
?length@?$_CORBA_Sequence@PAV_objref_ConsumerAdmin@CosNotifyChannelAdmin@@@@QAEXK@Z
?length@?$_CORBA_Sequence@PAV_objref_Filter@CosNotifyFilter@@@@QAEXK@Z
?length@?$_CORBA_Sequence@PAV_objref_NotifySubscribe@CosNotifyComm@@@@QAEXK@Z
?length@?$_CORBA_Sequence@PAV_objref_ProxyPullConsumer@CosEventChannelAdmin@@@@QAEXK@Z
?length@?$_CORBA_Sequence@PAV_objref_ProxyPullConsumer@CosNotifyChannelAdmin@@@@QAEXK@Z
?length@?$_CORBA_Sequence@PAV_objref_ProxyPullSupplier@CosEventChannelAdmin@@@@QAEXK@Z
?length@?$_CORBA_Sequence@PAV_objref_ProxyPullSupplier@CosNotifyChannelAdmin@@@@QAEXK@Z
?length@?$_CORBA_Sequence@PAV_objref_ProxyPushConsumer@CosEventChannelAdmin@@@@QAEXK@Z
?length@?$_CORBA_Sequence@PAV_objref_ProxyPushConsumer@CosNotifyChannelAdmin@@@@QAEXK@Z
?length@?$_CORBA_Sequence@PAV_objref_ProxyPushSupplier@CosEventChannelAdmin@@@@QAEXK@Z
?length@?$_CORBA_Sequence@PAV_objref_ProxyPushSupplier@CosNotifyChannelAdmin@@@@QAEXK@Z
?length@?$_CORBA_Sequence@PAV_objref_SequenceProxyPullConsumer@CosNotifyChannelAdmin@@@@QAEXK@Z
?length@?$_CORBA_Sequence@PAV_objref_SequenceProxyPullSupplier@CosNotifyChannelAdmin@@@@QAEXK@Z
?length@?$_CORBA_Sequence@PAV_objref_SequenceProxyPushConsumer@CosNotifyChannelAdmin@@@@QAEXK@Z
?length@?$_CORBA_Sequence@PAV_objref_SequenceProxyPushSupplier@CosNotifyChannelAdmin@@@@QAEXK@Z
?length@?$_CORBA_Sequence@PAV_objref_StructuredProxyPullConsumer@CosNotifyChannelAdmin@@@@QAEXK@Z
?length@?$_CORBA_Sequence@PAV_objref_StructuredProxyPullSupplier@CosNotifyChannelAdmin@@@@QAEXK@Z
?length@?$_CORBA_Sequence@PAV_objref_StructuredProxyPushConsumer@CosNotifyChannelAdmin@@@@QAEXK@Z
?length@?$_CORBA_Sequence@PAV_objref_StructuredProxyPushSupplier@CosNotifyChannelAdmin@@@@QAEXK@Z
?length@?$_CORBA_Sequence@PAV_objref_SupplierAdmin@CosNotifyChannelAdmin@@@@QAEXK@Z
?length@?$_CORBA_Sequence@UConstraintExp@CosNotifyFilter@@@@QBEKXZ
?length@?$_CORBA_Sequence@UConstraintInfo@CosNotifyFilter@@@@QAEXK@Z
?length@?$_CORBA_Sequence@UConstraintInfo@CosNotifyFilter@@@@QBEKXZ
?length@?$_CORBA_Sequence@UEventType@CosNotification@@@@QAEXK@Z
?length@?$_CORBA_Sequence@UEventType@CosNotification@@@@QBEKXZ
?length@?$_CORBA_Sequence@UNameComponent@CosNaming@@@@QAEXK@Z
?length@?$_CORBA_Sequence@UNamedPropertyRange@CosNotification@@@@QAEXK@Z
?length@?$_CORBA_Sequence@UProperty@CosNotification@@@@QAEXK@Z
?length@?$_CORBA_Sequence@UProperty@CosNotification@@@@QBEKXZ
?length@?$_CORBA_Sequence@UPropertyError@CosNotification@@@@QAEXK@Z
?length@?$_CORBA_Sequence@UPropertyError@CosNotification@@@@QBEKXZ
?length@?$_CORBA_Sequence@UStructuredEvent@CosNotification@@@@QAEXK@Z
?length@?$_CORBA_Sequence@UStructuredEvent@CosNotification@@@@QBEKXZ
?length@?$_CORBA_Sequence_ObjRef@V_objref_Interactive@AttNotification@@V?$_CORBA_ObjRef_Element@V_objref_Interactive@AttNotification@@VInteractive_Helper@2@@@VInteractive_Helper@2@@@QAEXK@Z
?length@?$_CORBA_Sequence_ObjRef@V_objref_Interactive@AttNotification@@V?$_CORBA_ObjRef_Element@V_objref_Interactive@AttNotification@@VInteractive_Helper@2@@@VInteractive_Helper@2@@@QBEKXZ
?length@RDINotifQueue@@QBEKXZ
?length@RDIPriorityQueue@@QBEKXZ
?length@RDI_EventQueue@@QBEKXZ
?length@_CORBA_Sequence_String@@QAEXK@Z
?length@_CORBA_Sequence_String@@QBEKXZ
?lexer_input@RDI_PCState@@QAEHPADH@Z
?lifetime_filter@ConsumerAdmin_i@@$4PPPPPPPM@A@AEPAV_objref_MappingFilter@CosNotifyFilter@@XZ
?lifetime_filter@ConsumerAdmin_i@@$4PPPPPPPM@A@AEXPAV_objref_MappingFilter@CosNotifyFilter@@@Z
?lifetime_filter@ConsumerAdmin_i@@UAEPAV_objref_MappingFilter@CosNotifyFilter@@XZ
?lifetime_filter@ConsumerAdmin_i@@UAEXPAV_objref_MappingFilter@CosNotifyFilter@@@Z
?lifetime_filter@ProxyPullSupplier_i@@$4PPPPPPPM@A@AEPAV_objref_MappingFilter@CosNotifyFilter@@XZ
?lifetime_filter@ProxyPullSupplier_i@@$4PPPPPPPM@A@AEXPAV_objref_MappingFilter@CosNotifyFilter@@@Z
?lifetime_filter@ProxyPullSupplier_i@@UAEPAV_objref_MappingFilter@CosNotifyFilter@@XZ
?lifetime_filter@ProxyPullSupplier_i@@UAEXPAV_objref_MappingFilter@CosNotifyFilter@@@Z
?lifetime_filter@ProxyPushSupplier_i@@$4PPPPPPPM@A@AEPAV_objref_MappingFilter@CosNotifyFilter@@XZ
?lifetime_filter@ProxyPushSupplier_i@@$4PPPPPPPM@A@AEXPAV_objref_MappingFilter@CosNotifyFilter@@@Z
?lifetime_filter@ProxyPushSupplier_i@@UAEPAV_objref_MappingFilter@CosNotifyFilter@@XZ
?lifetime_filter@ProxyPushSupplier_i@@UAEXPAV_objref_MappingFilter@CosNotifyFilter@@@Z
?lifetime_filter@RDIProxySupplier@@QAEPAV_objref_MappingFilter@CosNotifyFilter@@XZ
?lifetime_filter@RDIProxySupplier@@QAEXPAV_objref_MappingFilter@CosNotifyFilter@@@Z
?lifetime_filter@SequenceProxyPullSupplier_i@@$4PPPPPPPM@A@AEPAV_objref_MappingFilter@CosNotifyFilter@@XZ
?lifetime_filter@SequenceProxyPullSupplier_i@@$4PPPPPPPM@A@AEXPAV_objref_MappingFilter@CosNotifyFilter@@@Z
?lifetime_filter@SequenceProxyPullSupplier_i@@UAEPAV_objref_MappingFilter@CosNotifyFilter@@XZ
?lifetime_filter@SequenceProxyPullSupplier_i@@UAEXPAV_objref_MappingFilter@CosNotifyFilter@@@Z
?lifetime_filter@SequenceProxyPushSupplier_i@@$4PPPPPPPM@A@AEPAV_objref_MappingFilter@CosNotifyFilter@@XZ
?lifetime_filter@SequenceProxyPushSupplier_i@@$4PPPPPPPM@A@AEXPAV_objref_MappingFilter@CosNotifyFilter@@@Z
?lifetime_filter@SequenceProxyPushSupplier_i@@UAEPAV_objref_MappingFilter@CosNotifyFilter@@XZ
?lifetime_filter@SequenceProxyPushSupplier_i@@UAEXPAV_objref_MappingFilter@CosNotifyFilter@@@Z
?lifetime_filter@StructuredProxyPullSupplier_i@@$4PPPPPPPM@A@AEPAV_objref_MappingFilter@CosNotifyFilter@@XZ
?lifetime_filter@StructuredProxyPullSupplier_i@@$4PPPPPPPM@A@AEXPAV_objref_MappingFilter@CosNotifyFilter@@@Z
?lifetime_filter@StructuredProxyPullSupplier_i@@UAEPAV_objref_MappingFilter@CosNotifyFilter@@XZ
?lifetime_filter@StructuredProxyPullSupplier_i@@UAEXPAV_objref_MappingFilter@CosNotifyFilter@@@Z
?lifetime_filter@StructuredProxyPushSupplier_i@@$4PPPPPPPM@A@AEPAV_objref_MappingFilter@CosNotifyFilter@@XZ
?lifetime_filter@StructuredProxyPushSupplier_i@@$4PPPPPPPM@A@AEXPAV_objref_MappingFilter@CosNotifyFilter@@@Z
?lifetime_filter@StructuredProxyPushSupplier_i@@UAEPAV_objref_MappingFilter@CosNotifyFilter@@XZ
?lifetime_filter@StructuredProxyPushSupplier_i@@UAEXPAV_objref_MappingFilter@CosNotifyFilter@@@Z
?lock@TW_RWMutex@@QAEXH@Z
?log_output@CAdminGroupMgr@@QAEAAVRDIstrstream@@AAV2@@Z
?log_output@ConsumerAdmin_i@@QAEAAVRDIstrstream@@AAV2@@Z
?log_output@EventChannelFactory_i@@QAEAAVRDIstrstream@@AAV2@@Z
?log_output@EventChannel_i@@QAEAAVRDIstrstream@@AAV2@_N@Z
?log_output@EventProxyPullConsumer_i@@QBEAAVRDIstrstream@@AAV2@@Z
?log_output@EventProxyPullSupplier_i@@QBEAAVRDIstrstream@@AAV2@@Z
?log_output@EventProxyPushConsumer_i@@QBEAAVRDIstrstream@@AAV2@@Z
?log_output@EventProxyPushSupplier_i@@QBEAAVRDIstrstream@@AAV2@@Z
?log_output@Filter_i@@QBEAAVRDIstrstream@@AAV2@@Z
?log_output@ProxyPullConsumer_i@@$4PPPPPPPM@A@BEAAVRDIstrstream@@AAV2@@Z
?log_output@ProxyPullConsumer_i@@UBEAAVRDIstrstream@@AAV2@@Z
?log_output@ProxyPullSupplier_i@@$4PPPPPPPM@A@BEAAVRDIstrstream@@AAV2@@Z
?log_output@ProxyPullSupplier_i@@UBEAAVRDIstrstream@@AAV2@@Z
?log_output@ProxyPushConsumer_i@@$4PPPPPPPM@A@BEAAVRDIstrstream@@AAV2@@Z
?log_output@ProxyPushConsumer_i@@UBEAAVRDIstrstream@@AAV2@@Z
?log_output@ProxyPushSupplier_i@@$4PPPPPPPM@A@BEAAVRDIstrstream@@AAV2@@Z
?log_output@ProxyPushSupplier_i@@UBEAAVRDIstrstream@@AAV2@@Z
?log_output@RDINotifServer@@QAEAAVRDIstrstream@@AAV2@@Z
?log_output@RDI_AdminQoS@@QBEAAVRDIstrstream@@AAV2@@Z
?log_output@RDI_Config@@QBEAAVRDIstrstream@@AAV2@@Z
?log_output@RDI_DeltaWatch@@QBEAAVRDIstrstream@@AAV2@@Z
?log_output@RDI_NotifQoS@@QBEAAVRDIstrstream@@AAV2@@Z
?log_output@RDI_Op@@QBEAAVRDIstrstream@@AAV2@@Z
?log_output@RDI_RTVal@@QBEAAVRDIstrstream@@AAV2@@Z
?log_output@RDI_ServerQoS@@QBEAAVRDIstrstream@@AAV2@@Z
?log_output@RDI_TypeMap@@QAEAAVRDIstrstream@@AAV2@@Z
?log_output@RDI_Watch@@QBEAAVRDIstrstream@@AAV2@@Z
?log_output@SequenceProxyPullConsumer_i@@$4PPPPPPPM@A@BEAAVRDIstrstream@@AAV2@@Z
?log_output@SequenceProxyPullConsumer_i@@UBEAAVRDIstrstream@@AAV2@@Z
?log_output@SequenceProxyPullSupplier_i@@$4PPPPPPPM@A@BEAAVRDIstrstream@@AAV2@@Z
?log_output@SequenceProxyPullSupplier_i@@UBEAAVRDIstrstream@@AAV2@@Z
?log_output@SequenceProxyPushConsumer_i@@$4PPPPPPPM@A@BEAAVRDIstrstream@@AAV2@@Z
?log_output@SequenceProxyPushConsumer_i@@UBEAAVRDIstrstream@@AAV2@@Z
?log_output@SequenceProxyPushSupplier_i@@$4PPPPPPPM@A@BEAAVRDIstrstream@@AAV2@@Z
?log_output@SequenceProxyPushSupplier_i@@UBEAAVRDIstrstream@@AAV2@@Z
?log_output@StructuredProxyPullConsumer_i@@$4PPPPPPPM@A@BEAAVRDIstrstream@@AAV2@@Z
?log_output@StructuredProxyPullConsumer_i@@UBEAAVRDIstrstream@@AAV2@@Z
?log_output@StructuredProxyPullSupplier_i@@$4PPPPPPPM@A@BEAAVRDIstrstream@@AAV2@@Z
?log_output@StructuredProxyPullSupplier_i@@UBEAAVRDIstrstream@@AAV2@@Z
?log_output@StructuredProxyPushConsumer_i@@$4PPPPPPPM@A@BEAAVRDIstrstream@@AAV2@@Z
?log_output@StructuredProxyPushConsumer_i@@UBEAAVRDIstrstream@@AAV2@@Z
?log_output@StructuredProxyPushSupplier_i@@$4PPPPPPPM@A@BEAAVRDIstrstream@@AAV2@@Z
?log_output@StructuredProxyPushSupplier_i@@UBEAAVRDIstrstream@@AAV2@@Z
?log_output@SupplierAdmin_i@@QAEAAVRDIstrstream@@AAV2@@Z
?log_stats@RDI_EventQueue@@QAEX_N@Z
?lookup@?$RDI_Hash@JPAVConsumerAdmin_i@@@@AAEPAU?$RDI_KeyValuePair@JPAVConsumerAdmin_i@@@@ABJAAPAU2@AAI@Z
?lookup@?$RDI_Hash@JPAVConsumerAdmin_i@@@@QAEHABJAAPAVConsumerAdmin_i@@@Z
?lookup@?$RDI_Hash@JPAVEventChannel_i@@@@AAEPAU?$RDI_KeyValuePair@JPAVEventChannel_i@@@@ABJAAPAU2@AAI@Z
?lookup@?$RDI_Hash@JPAVEventChannel_i@@@@QAEHABJAAPAVEventChannel_i@@@Z
?lookup@?$RDI_Hash@JPAVFilter_i@@@@AAEPAU?$RDI_KeyValuePair@JPAVFilter_i@@@@ABJAAPAU2@AAI@Z
?lookup@?$RDI_Hash@JPAVFilter_i@@@@QAEHABJAAPAVFilter_i@@@Z
?lookup@?$RDI_Hash@JPAVProxyPullConsumer_i@@@@AAEPAU?$RDI_KeyValuePair@JPAVProxyPullConsumer_i@@@@ABJAAPAU2@AAI@Z
?lookup@?$RDI_Hash@JPAVProxyPullConsumer_i@@@@QAEHABJAAPAVProxyPullConsumer_i@@@Z
?lookup@?$RDI_Hash@JPAVProxyPullSupplier_i@@@@AAEPAU?$RDI_KeyValuePair@JPAVProxyPullSupplier_i@@@@ABJAAPAU2@AAI@Z
?lookup@?$RDI_Hash@JPAVProxyPullSupplier_i@@@@QAEHABJAAPAVProxyPullSupplier_i@@@Z
?lookup@?$RDI_Hash@JPAVProxyPushConsumer_i@@@@AAEPAU?$RDI_KeyValuePair@JPAVProxyPushConsumer_i@@@@ABJAAPAU2@AAI@Z
?lookup@?$RDI_Hash@JPAVProxyPushConsumer_i@@@@QAEHABJAAPAVProxyPushConsumer_i@@@Z
?lookup@?$RDI_Hash@JPAVProxyPushSupplier_i@@@@AAEPAU?$RDI_KeyValuePair@JPAVProxyPushSupplier_i@@@@ABJAAPAU2@AAI@Z
?lookup@?$RDI_Hash@JPAVProxyPushSupplier_i@@@@QAEHABJAAPAVProxyPushSupplier_i@@@Z
?lookup@?$RDI_Hash@JPAVSequenceProxyPullConsumer_i@@@@AAEPAU?$RDI_KeyValuePair@JPAVSequenceProxyPullConsumer_i@@@@ABJAAPAU2@AAI@Z
?lookup@?$RDI_Hash@JPAVSequenceProxyPullConsumer_i@@@@QAEHABJAAPAVSequenceProxyPullConsumer_i@@@Z
?lookup@?$RDI_Hash@JPAVSequenceProxyPullSupplier_i@@@@AAEPAU?$RDI_KeyValuePair@JPAVSequenceProxyPullSupplier_i@@@@ABJAAPAU2@AAI@Z
?lookup@?$RDI_Hash@JPAVSequenceProxyPullSupplier_i@@@@QAEHABJAAPAVSequenceProxyPullSupplier_i@@@Z
?lookup@?$RDI_Hash@JPAVSequenceProxyPushConsumer_i@@@@AAEPAU?$RDI_KeyValuePair@JPAVSequenceProxyPushConsumer_i@@@@ABJAAPAU2@AAI@Z
?lookup@?$RDI_Hash@JPAVSequenceProxyPushConsumer_i@@@@QAEHABJAAPAVSequenceProxyPushConsumer_i@@@Z
?lookup@?$RDI_Hash@JPAVSequenceProxyPushSupplier_i@@@@AAEPAU?$RDI_KeyValuePair@JPAVSequenceProxyPushSupplier_i@@@@ABJAAPAU2@AAI@Z
?lookup@?$RDI_Hash@JPAVSequenceProxyPushSupplier_i@@@@QAEHABJAAPAVSequenceProxyPushSupplier_i@@@Z
?lookup@?$RDI_Hash@JPAVStructuredProxyPullConsumer_i@@@@AAEPAU?$RDI_KeyValuePair@JPAVStructuredProxyPullConsumer_i@@@@ABJAAPAU2@AAI@Z
?lookup@?$RDI_Hash@JPAVStructuredProxyPullConsumer_i@@@@QAEHABJAAPAVStructuredProxyPullConsumer_i@@@Z
?lookup@?$RDI_Hash@JPAVStructuredProxyPullSupplier_i@@@@AAEPAU?$RDI_KeyValuePair@JPAVStructuredProxyPullSupplier_i@@@@ABJAAPAU2@AAI@Z
?lookup@?$RDI_Hash@JPAVStructuredProxyPullSupplier_i@@@@QAEHABJAAPAVStructuredProxyPullSupplier_i@@@Z
?lookup@?$RDI_Hash@JPAVStructuredProxyPushConsumer_i@@@@AAEPAU?$RDI_KeyValuePair@JPAVStructuredProxyPushConsumer_i@@@@ABJAAPAU2@AAI@Z
?lookup@?$RDI_Hash@JPAVStructuredProxyPushConsumer_i@@@@QAEHABJAAPAVStructuredProxyPushConsumer_i@@@Z
?lookup@?$RDI_Hash@JPAVStructuredProxyPushSupplier_i@@@@AAEPAU?$RDI_KeyValuePair@JPAVStructuredProxyPushSupplier_i@@@@ABJAAPAU2@AAI@Z
?lookup@?$RDI_Hash@JPAVStructuredProxyPushSupplier_i@@@@QAEHABJAAPAVStructuredProxyPushSupplier_i@@@Z
?lookup@?$RDI_Hash@JPAVSupplierAdmin_i@@@@AAEPAU?$RDI_KeyValuePair@JPAVSupplierAdmin_i@@@@ABJAAPAU2@AAI@Z
?lookup@?$RDI_Hash@JPAVSupplierAdmin_i@@@@QAEHABJAAPAVSupplierAdmin_i@@@Z
?lookup@?$RDI_Hash@JPAV_objref_NotifySubscribe@CosNotifyComm@@@@AAEPAU?$RDI_KeyValuePair@JPAV_objref_NotifySubscribe@CosNotifyComm@@@@ABJAAPAU2@AAI@Z
?lookup@?$RDI_Hash@JUFAdminFilterEntry_s@@@@AAEPAU?$RDI_KeyValuePair@JUFAdminFilterEntry_s@@@@ABJAAPAU2@AAI@Z
?lookup@?$RDI_Hash@JUFAdminFilterEntry_s@@@@QAEHABJAAUFAdminFilterEntry_s@@@Z
?lookup@?$RDI_Hash@JURDINfyCB@@@@AAEPAU?$RDI_KeyValuePair@JURDINfyCB@@@@ABJAAPAU2@AAI@Z
?lookup@?$RDI_Hash@PAVRDIOplockEntry@@H@@AAEPAU?$RDI_KeyValuePair@PAVRDIOplockEntry@@H@@ABQAVRDIOplockEntry@@AAPAU2@AAI@Z
?lookup@?$RDI_Hash@UEventType@CosNotification@@K@@AAEPAU?$RDI_KeyValuePair@UEventType@CosNotification@@K@@ABUEventType@CosNotification@@AAPAU2@AAI@Z
?lookup@?$RDI_Hash@UEventType@CosNotification@@K@@QAEHABUEventType@CosNotification@@AAK@Z
?lookup@?$RDI_Hash@UEventType@CosNotification@@UVNode_t@RDI_TypeMap@@@@AAEPAU?$RDI_KeyValuePair@UEventType@CosNotification@@UVNode_t@RDI_TypeMap@@@@ABUEventType@CosNotification@@AAPAU2@AAI@Z
?lookup@?$RDI_Hash@UEventType@CosNotification@@UVNode_t@RDI_TypeMap@@@@QAEHABUEventType@CosNotification@@AAUVNode_t@RDI_TypeMap@@@Z
?lookup@?$RDI_Hash@UKey_t@RDI_StructuredEvent@@UVal_t@2@@@AAEPAU?$RDI_KeyValuePair@UKey_t@RDI_StructuredEvent@@UVal_t@2@@@ABUKey_t@RDI_StructuredEvent@@AAPAU2@AAI@Z
?lookup@?$RDI_Hash@UKey_t@RDI_StructuredEvent@@UVal_t@2@@@QAEHABUKey_t@RDI_StructuredEvent@@AAUVal_t@3@@Z
?lookup@?$RDI_Hash@VRDI_EventType@@K@@AAEPAU?$RDI_KeyValuePair@VRDI_EventType@@K@@ABVRDI_EventType@@AAPAU2@AAI@Z
?lookup@?$RDI_Hash@VRDI_EventType@@K@@QAEHABVRDI_EventType@@AAK@Z
?lookup@?$RDI_Hash@VRDI_EventType@@PAX@@AAEPAU?$RDI_KeyValuePair@VRDI_EventType@@PAX@@ABVRDI_EventType@@AAPAU2@AAI@Z
?lookup@?$RDI_Hash@VRDI_EventType@@PAX@@QAEHABVRDI_EventType@@AAPAX@Z
?lookupFilter@RDI_TypeMap@@QAEXPBD0PAVConsumerAdmin_i@@AAUFList_t@1@@Z
?lookupFilter@RDI_TypeMap@@QAEXPBD0PAVRDIProxySupplier@@AAUFList_t@1@@Z
?lookup_rtval@RDI_StructuredEvent@@QAEPBVRDI_RTVal@@PBD@Z
?lookup_vahdr_rtval@RDI_StructuredEvent@@QAEPBVRDI_RTVal@@PBD@Z
?low@RDI_UtcT@@QBEKXZ
?macro_get_mutex@?$RDI_SafeList@VConsumerAdmin_i@@@@QAEAAVomni_mutex@@XZ
?macro_get_mutex@RDI_StructuredEvent@@QAEAAVomni_mutex@@XZ
?macro_get_oplockptr_ptr@ConsumerAdmin_i@@QAEPAPAVRDIOplockEntry@@XZ
?macro_get_oplockptr_ptr@EventChannel_i@@QAEPAPAVRDIOplockEntry@@XZ
?macro_get_rw_mutex@RDI_TypeMap@@QAEAAVTW_RWMutex@@XZ
?macro_get_typemap_ptr@EventChannel_i@@QAEPAVRDI_TypeMap@@XZ
?match@Filter_i@@$4PPPPPPPM@A@AE_NABVAny@CORBA@@@Z
?match@Filter_i@@UAE_NABVAny@CORBA@@@Z
?match@MappingFilter_i@@$4PPPPPPPM@A@AE_NABVAny@CORBA@@VAny_OUT_arg@3@@Z
?match@MappingFilter_i@@UAE_NABVAny@CORBA@@VAny_OUT_arg@3@@Z
?match_chan@Filter_i@@QAE_NABVAny@CORBA@@PAVEventChannel_i@@@Z
?match_event@EventChannel_i@@AAE_NPAVConsumerAdmin_i@@PAVRDI_StructuredEvent@@AAW4RDI_FilterState_t@@@Z
?match_event@SupplierAdmin_i@@QAE_NABVAny@CORBA@@@Z
?match_event@SupplierAdmin_i@@QAE_NPBUStructuredEvent@CosNotification@@PAVRDI_StructuredEvent@@@Z
?match_structured@Filter_i@@$4PPPPPPPM@A@AE_NABUStructuredEvent@CosNotification@@@Z
?match_structured@Filter_i@@UAE_NABUStructuredEvent@CosNotification@@@Z
?match_structured@MappingFilter_i@@$4PPPPPPPM@A@AE_NABUStructuredEvent@CosNotification@@VAny_OUT_arg@CORBA@@@Z
?match_structured@MappingFilter_i@@UAE_NABUStructuredEvent@CosNotification@@VAny_OUT_arg@CORBA@@@Z
?match_structured_chan@Filter_i@@QAE_NABUStructuredEvent@CosNotification@@PAVEventChannel_i@@@Z
?match_typed@Filter_i@@$4PPPPPPPM@A@AE_NABVPropertySeq@CosNotification@@@Z
?match_typed@Filter_i@@UAE_NABVPropertySeq@CosNotification@@@Z
?match_typed@MappingFilter_i@@$4PPPPPPPM@A@AE_NABVPropertySeq@CosNotification@@VAny_OUT_arg@CORBA@@@Z
?match_typed@MappingFilter_i@@UAE_NABVPropertySeq@CosNotification@@VAny_OUT_arg@CORBA@@@Z
?match_typed_chan@Filter_i@@QAE_NABVPropertySeq@CosNotification@@PAVEventChannel_i@@@Z
?maxEventsPerConsumer@RDI_NotifQoS@@QAEXJ@Z
?maxEventsPerConsumer@RDI_NotifQoS@@QBEJXZ
?max_consumers@EventChannel_i@@QBEJXZ
?max_suppliers@EventChannel_i@@QBEJXZ
?maximumBatchSize@RDI_NotifQoS@@QAEXJ@Z
?maximumBatchSize@RDI_NotifQoS@@QBEJXZ
?millisecs@RDI_DeltaWatch@@QBEKH@Z
?millisecs@RDI_Watch@@QBEIXZ
?model_effect@RDI_OpSeq@@QAEXW4RDI_OpCode@@@Z
?modify_constraints@Filter_i@@$4PPPPPPPM@A@AEXABVConstraintIDSeq@CosNotifyFilter@@ABVConstraintInfoSeq@3@@Z
?modify_constraints@Filter_i@@UAEXABVConstraintIDSeq@CosNotifyFilter@@ABVConstraintInfoSeq@3@@Z
?modify_mapping_constraints@MappingFilter_i@@$4PPPPPPPM@A@AEXABVConstraintIDSeq@CosNotifyFilter@@ABVMappingConstraintInfoSeq@3@@Z
?modify_mapping_constraints@MappingFilter_i@@UAEXABVConstraintIDSeq@CosNotifyFilter@@ABVMappingConstraintInfoSeq@3@@Z
?more@RDIstrstream@@IAEXH@Z
?my_name@ConsumerAdmin_i@@$4PPPPPPPM@A@AEPAVNameSeq@AttNotification@@XZ
?my_name@ConsumerAdmin_i@@UAEPAVNameSeq@AttNotification@@XZ
?my_name@EventChannelFactory_i@@$4PPPPPPPM@A@AEPAVNameSeq@AttNotification@@XZ
?my_name@EventChannelFactory_i@@UAEPAVNameSeq@AttNotification@@XZ
?my_name@EventChannel_i@@$4PPPPPPPM@A@AEPAVNameSeq@AttNotification@@XZ
?my_name@EventChannel_i@@UAEPAVNameSeq@AttNotification@@XZ
?my_name@EventProxyPullConsumer_i@@$4PPPPPPPM@A@AEPAVNameSeq@AttNotification@@XZ
?my_name@EventProxyPullConsumer_i@@UAEPAVNameSeq@AttNotification@@XZ
?my_name@EventProxyPullSupplier_i@@$4PPPPPPPM@A@AEPAVNameSeq@AttNotification@@XZ
?my_name@EventProxyPullSupplier_i@@UAEPAVNameSeq@AttNotification@@XZ
?my_name@EventProxyPushConsumer_i@@$4PPPPPPPM@A@AEPAVNameSeq@AttNotification@@XZ
?my_name@EventProxyPushConsumer_i@@UAEPAVNameSeq@AttNotification@@XZ
?my_name@EventProxyPushSupplier_i@@$4PPPPPPPM@A@AEPAVNameSeq@AttNotification@@XZ
?my_name@EventProxyPushSupplier_i@@UAEPAVNameSeq@AttNotification@@XZ
?my_name@FilterFactory_i@@$4PPPPPPPM@A@AEPAVNameSeq@AttNotification@@XZ
?my_name@FilterFactory_i@@UAEPAVNameSeq@AttNotification@@XZ
?my_name@Filter_i@@$4PPPPPPPM@A@AEPAVNameSeq@AttNotification@@XZ
?my_name@Filter_i@@UAEPAVNameSeq@AttNotification@@XZ
?my_name@MappingFilter_i@@$4PPPPPPPM@A@AEPAVNameSeq@AttNotification@@XZ
?my_name@MappingFilter_i@@UAEPAVNameSeq@AttNotification@@XZ
?my_name@ProxyPullConsumer_i@@$4PPPPPPPM@A@AEPAVNameSeq@AttNotification@@XZ
?my_name@ProxyPullConsumer_i@@UAEPAVNameSeq@AttNotification@@XZ
?my_name@ProxyPullSupplier_i@@$4PPPPPPPM@A@AEPAVNameSeq@AttNotification@@XZ
?my_name@ProxyPullSupplier_i@@UAEPAVNameSeq@AttNotification@@XZ
?my_name@ProxyPushConsumer_i@@$4PPPPPPPM@A@AEPAVNameSeq@AttNotification@@XZ
?my_name@ProxyPushConsumer_i@@UAEPAVNameSeq@AttNotification@@XZ
?my_name@ProxyPushSupplier_i@@$4PPPPPPPM@A@AEPAVNameSeq@AttNotification@@XZ
?my_name@ProxyPushSupplier_i@@UAEPAVNameSeq@AttNotification@@XZ
?my_name@RDINotifServer@@$4PPPPPPPM@A@AEPAVNameSeq@AttNotification@@XZ
?my_name@RDINotifServer@@UAEPAVNameSeq@AttNotification@@XZ
?my_name@RDIProxyConsumer@@QAEPAVNameSeq@AttNotification@@XZ
?my_name@RDIProxySupplier@@QAEPAVNameSeq@AttNotification@@XZ
?my_name@SequenceProxyPullConsumer_i@@$4PPPPPPPM@A@AEPAVNameSeq@AttNotification@@XZ
?my_name@SequenceProxyPullConsumer_i@@UAEPAVNameSeq@AttNotification@@XZ
?my_name@SequenceProxyPullSupplier_i@@$4PPPPPPPM@A@AEPAVNameSeq@AttNotification@@XZ
?my_name@SequenceProxyPullSupplier_i@@UAEPAVNameSeq@AttNotification@@XZ
?my_name@SequenceProxyPushConsumer_i@@$4PPPPPPPM@A@AEPAVNameSeq@AttNotification@@XZ
?my_name@SequenceProxyPushConsumer_i@@UAEPAVNameSeq@AttNotification@@XZ
?my_name@SequenceProxyPushSupplier_i@@$4PPPPPPPM@A@AEPAVNameSeq@AttNotification@@XZ
?my_name@SequenceProxyPushSupplier_i@@UAEPAVNameSeq@AttNotification@@XZ
?my_name@StructuredProxyPullConsumer_i@@$4PPPPPPPM@A@AEPAVNameSeq@AttNotification@@XZ
?my_name@StructuredProxyPullConsumer_i@@UAEPAVNameSeq@AttNotification@@XZ
?my_name@StructuredProxyPullSupplier_i@@$4PPPPPPPM@A@AEPAVNameSeq@AttNotification@@XZ
?my_name@StructuredProxyPullSupplier_i@@UAEPAVNameSeq@AttNotification@@XZ
?my_name@StructuredProxyPushConsumer_i@@$4PPPPPPPM@A@AEPAVNameSeq@AttNotification@@XZ
?my_name@StructuredProxyPushConsumer_i@@UAEPAVNameSeq@AttNotification@@XZ
?my_name@StructuredProxyPushSupplier_i@@$4PPPPPPPM@A@AEPAVNameSeq@AttNotification@@XZ
?my_name@StructuredProxyPushSupplier_i@@UAEPAVNameSeq@AttNotification@@XZ
?my_name@SupplierAdmin_i@@$4PPPPPPPM@A@AEPAVNameSeq@AttNotification@@XZ
?my_name@SupplierAdmin_i@@UAEPAVNameSeq@AttNotification@@XZ
?n_incr_ref_counter_lock_held@RDI_StructuredEvent@@AAEXJ@Z
?n_required@RDI_OpSeq@@QAEXPBDAA_NPAD@Z
?negate@RDI_Constraint@@QAEPAV1@PAVRDI_PCState@@@Z
?new_any_event@EventChannel_i@@QAEHABVAny@CORBA@@@Z
?new_for_consumers@EventChannel_i@@$4PPPPPPPM@A@AEPAV_objref_ConsumerAdmin@CosNotifyChannelAdmin@@W4InterFilterGroupOperator@3@AAJ@Z
?new_for_consumers@EventChannel_i@@UAEPAV_objref_ConsumerAdmin@CosNotifyChannelAdmin@@W4InterFilterGroupOperator@3@AAJ@Z
?new_for_suppliers@EventChannel_i@@$4PPPPPPPM@A@AEPAV_objref_SupplierAdmin@CosNotifyChannelAdmin@@W4InterFilterGroupOperator@3@AAJ@Z
?new_for_suppliers@EventChannel_i@@UAEPAV_objref_SupplierAdmin@CosNotifyChannelAdmin@@W4InterFilterGroupOperator@3@AAJ@Z
?new_structured_event@EventChannel_i@@QAEHABUStructuredEvent@CosNotification@@@Z
?new_structured_event@EventChannel_i@@QAEHPAVRDI_StructuredEvent@@@Z
?newlblnm@RDI_Op@@SAXPBDQAD@Z
?next_event@RDI_EventQueue@@QAEPAVRDI_StructuredEvent@@PAV2@_N@Z
?next_index@?$RDI_List@PAVEventProxyPullConsumer_i@@@@ABEXAAI@Z
?next_index@?$RDI_List@PAVEventProxyPullSupplier_i@@@@ABEXAAI@Z
?next_index@?$RDI_List@PAVEventProxyPushConsumer_i@@@@ABEXAAI@Z
?next_index@?$RDI_List@PAVEventProxyPushSupplier_i@@@@ABEXAAI@Z
?next_node@?$RDI_Hash@JPAVConsumerAdmin_i@@@@ABEXAAPAU?$RDI_KeyValuePair@JPAVConsumerAdmin_i@@@@AAI@Z
?next_node@?$RDI_Hash@JPAVEventChannel_i@@@@ABEXAAPAU?$RDI_KeyValuePair@JPAVEventChannel_i@@@@AAI@Z
?next_node@?$RDI_Hash@JPAVFilter_i@@@@ABEXAAPAU?$RDI_KeyValuePair@JPAVFilter_i@@@@AAI@Z
?next_node@?$RDI_Hash@JPAVProxyPullConsumer_i@@@@ABEXAAPAU?$RDI_KeyValuePair@JPAVProxyPullConsumer_i@@@@AAI@Z
?next_node@?$RDI_Hash@JPAVProxyPullSupplier_i@@@@ABEXAAPAU?$RDI_KeyValuePair@JPAVProxyPullSupplier_i@@@@AAI@Z
?next_node@?$RDI_Hash@JPAVProxyPushConsumer_i@@@@ABEXAAPAU?$RDI_KeyValuePair@JPAVProxyPushConsumer_i@@@@AAI@Z
?next_node@?$RDI_Hash@JPAVProxyPushSupplier_i@@@@ABEXAAPAU?$RDI_KeyValuePair@JPAVProxyPushSupplier_i@@@@AAI@Z
?next_node@?$RDI_Hash@JPAVSequenceProxyPullConsumer_i@@@@ABEXAAPAU?$RDI_KeyValuePair@JPAVSequenceProxyPullConsumer_i@@@@AAI@Z
?next_node@?$RDI_Hash@JPAVSequenceProxyPullSupplier_i@@@@ABEXAAPAU?$RDI_KeyValuePair@JPAVSequenceProxyPullSupplier_i@@@@AAI@Z
?next_node@?$RDI_Hash@JPAVSequenceProxyPushConsumer_i@@@@ABEXAAPAU?$RDI_KeyValuePair@JPAVSequenceProxyPushConsumer_i@@@@AAI@Z
?next_node@?$RDI_Hash@JPAVSequenceProxyPushSupplier_i@@@@ABEXAAPAU?$RDI_KeyValuePair@JPAVSequenceProxyPushSupplier_i@@@@AAI@Z
?next_node@?$RDI_Hash@JPAVStructuredProxyPullConsumer_i@@@@ABEXAAPAU?$RDI_KeyValuePair@JPAVStructuredProxyPullConsumer_i@@@@AAI@Z
?next_node@?$RDI_Hash@JPAVStructuredProxyPullSupplier_i@@@@ABEXAAPAU?$RDI_KeyValuePair@JPAVStructuredProxyPullSupplier_i@@@@AAI@Z
?next_node@?$RDI_Hash@JPAVStructuredProxyPushConsumer_i@@@@ABEXAAPAU?$RDI_KeyValuePair@JPAVStructuredProxyPushConsumer_i@@@@AAI@Z
?next_node@?$RDI_Hash@JPAVStructuredProxyPushSupplier_i@@@@ABEXAAPAU?$RDI_KeyValuePair@JPAVStructuredProxyPushSupplier_i@@@@AAI@Z
?next_node@?$RDI_Hash@JPAVSupplierAdmin_i@@@@ABEXAAPAU?$RDI_KeyValuePair@JPAVSupplierAdmin_i@@@@AAI@Z
?next_node@?$RDI_Hash@JPAV_objref_NotifySubscribe@CosNotifyComm@@@@ABEXAAPAU?$RDI_KeyValuePair@JPAV_objref_NotifySubscribe@CosNotifyComm@@@@AAI@Z
?next_node@?$RDI_Hash@JUFAdminFilterEntry_s@@@@ABEXAAPAU?$RDI_KeyValuePair@JUFAdminFilterEntry_s@@@@AAI@Z
?next_node@?$RDI_Hash@JURDINfyCB@@@@ABEXAAPAU?$RDI_KeyValuePair@JURDINfyCB@@@@AAI@Z
?next_node@?$RDI_Hash@UEventType@CosNotification@@K@@ABEXAAPAU?$RDI_KeyValuePair@UEventType@CosNotification@@K@@AAI@Z
?next_node@?$RDI_Hash@UEventType@CosNotification@@UVNode_t@RDI_TypeMap@@@@ABEXAAPAU?$RDI_KeyValuePair@UEventType@CosNotification@@UVNode_t@RDI_TypeMap@@@@AAI@Z
?next_node@?$RDI_Hash@UKey_t@RDI_StructuredEvent@@UVal_t@2@@@ABEXAAPAU?$RDI_KeyValuePair@UKey_t@RDI_StructuredEvent@@UVal_t@2@@@AAI@Z
?next_node@?$RDI_Hash@VRDI_EventType@@K@@ABEXAAPAU?$RDI_KeyValuePair@VRDI_EventType@@K@@AAI@Z
?next_node@?$RDI_Hash@VRDI_EventType@@PAX@@ABEXAAPAU?$RDI_KeyValuePair@VRDI_EventType@@PAX@@AAI@Z
?next_token@RDI_PCState@@QAEHPAX@Z
?notify@RDI_ChangePool@@QAEXXZ
?notify@RDI_NotifyConsumer@@QAEXXZ
?notify_subscribers_i@Filter_i@@QAEXAAURDI_LocksHeld_s@@ABVEventTypeSeq@CosNotification@@1@Z
?num_set@RDI_Bitmap@@QBEIXZ
?obj_gc@ConsumerAdmin_i@@QAE_NVRDI_TimeT@@KKK@Z
?obj_gc@EventProxyPullConsumer_i@@QAE_NVRDI_TimeT@@KK@Z
?obj_gc@EventProxyPullSupplier_i@@QAE_NVRDI_TimeT@@KK@Z
?obj_gc@EventProxyPushConsumer_i@@QAE_NVRDI_TimeT@@KK@Z
?obj_gc@EventProxyPushSupplier_i@@QAE_NVRDI_TimeT@@KK@Z
?obj_gc@Filter_i@@QAE_NVRDI_TimeT@@K@Z
?obj_gc@RDIProxyConsumer@@QAE_NVRDI_TimeT@@KK@Z
?obj_gc@RDIProxySupplier@@QAE_NVRDI_TimeT@@KK@Z
?obj_gc@SupplierAdmin_i@@QAE_NVRDI_TimeT@@KKK@Z
?obj_gc_all@Filter_i@@SAXVRDI_TimeT@@K@Z
?obtain_notification_pull_consumer@SupplierAdmin_i@@$4PPPPPPPM@A@AEPAV_objref_ProxyConsumer@CosNotifyChannelAdmin@@W4ClientType@3@AAJ@Z
?obtain_notification_pull_consumer@SupplierAdmin_i@@UAEPAV_objref_ProxyConsumer@CosNotifyChannelAdmin@@W4ClientType@3@AAJ@Z
?obtain_notification_pull_supplier@ConsumerAdmin_i@@$4PPPPPPPM@A@AEPAV_objref_ProxySupplier@CosNotifyChannelAdmin@@W4ClientType@3@AAJ@Z
?obtain_notification_pull_supplier@ConsumerAdmin_i@@UAEPAV_objref_ProxySupplier@CosNotifyChannelAdmin@@W4ClientType@3@AAJ@Z
?obtain_notification_push_consumer@SupplierAdmin_i@@$4PPPPPPPM@A@AEPAV_objref_ProxyConsumer@CosNotifyChannelAdmin@@W4ClientType@3@AAJ@Z
?obtain_notification_push_consumer@SupplierAdmin_i@@UAEPAV_objref_ProxyConsumer@CosNotifyChannelAdmin@@W4ClientType@3@AAJ@Z
?obtain_notification_push_supplier@ConsumerAdmin_i@@$4PPPPPPPM@A@AEPAV_objref_ProxySupplier@CosNotifyChannelAdmin@@W4ClientType@3@AAJ@Z
?obtain_notification_push_supplier@ConsumerAdmin_i@@UAEPAV_objref_ProxySupplier@CosNotifyChannelAdmin@@W4ClientType@3@AAJ@Z
?obtain_offered_types@EventChannel_i@@$4PPPPPPPM@A@AEPAVEventTypeSeq@CosNotification@@XZ
?obtain_offered_types@EventChannel_i@@UAEPAVEventTypeSeq@CosNotification@@XZ
?obtain_offered_types@ProxyPullSupplier_i@@$4PPPPPPPM@A@AEPAVEventTypeSeq@CosNotification@@W4ObtainInfoMode@CosNotifyChannelAdmin@@@Z
?obtain_offered_types@ProxyPullSupplier_i@@UAEPAVEventTypeSeq@CosNotification@@W4ObtainInfoMode@CosNotifyChannelAdmin@@@Z
?obtain_offered_types@ProxyPushSupplier_i@@$4PPPPPPPM@A@AEPAVEventTypeSeq@CosNotification@@W4ObtainInfoMode@CosNotifyChannelAdmin@@@Z
?obtain_offered_types@ProxyPushSupplier_i@@UAEPAVEventTypeSeq@CosNotification@@W4ObtainInfoMode@CosNotifyChannelAdmin@@@Z
?obtain_offered_types@RDIProxySupplier@@QAEPAVEventTypeSeq@CosNotification@@W4ObtainInfoMode@CosNotifyChannelAdmin@@@Z
?obtain_offered_types@SequenceProxyPullSupplier_i@@$4PPPPPPPM@A@AEPAVEventTypeSeq@CosNotification@@W4ObtainInfoMode@CosNotifyChannelAdmin@@@Z
?obtain_offered_types@SequenceProxyPullSupplier_i@@UAEPAVEventTypeSeq@CosNotification@@W4ObtainInfoMode@CosNotifyChannelAdmin@@@Z
?obtain_offered_types@SequenceProxyPushSupplier_i@@$4PPPPPPPM@A@AEPAVEventTypeSeq@CosNotification@@W4ObtainInfoMode@CosNotifyChannelAdmin@@@Z
?obtain_offered_types@SequenceProxyPushSupplier_i@@UAEPAVEventTypeSeq@CosNotification@@W4ObtainInfoMode@CosNotifyChannelAdmin@@@Z
?obtain_offered_types@StructuredProxyPullSupplier_i@@$4PPPPPPPM@A@AEPAVEventTypeSeq@CosNotification@@W4ObtainInfoMode@CosNotifyChannelAdmin@@@Z
?obtain_offered_types@StructuredProxyPullSupplier_i@@UAEPAVEventTypeSeq@CosNotification@@W4ObtainInfoMode@CosNotifyChannelAdmin@@@Z
?obtain_offered_types@StructuredProxyPushSupplier_i@@$4PPPPPPPM@A@AEPAVEventTypeSeq@CosNotification@@W4ObtainInfoMode@CosNotifyChannelAdmin@@@Z
?obtain_offered_types@StructuredProxyPushSupplier_i@@UAEPAVEventTypeSeq@CosNotification@@W4ObtainInfoMode@CosNotifyChannelAdmin@@@Z
?obtain_pull_consumer@SupplierAdmin_i@@$4PPPPPPPM@A@AEPAV_objref_ProxyPullConsumer@CosEventChannelAdmin@@XZ
?obtain_pull_consumer@SupplierAdmin_i@@UAEPAV_objref_ProxyPullConsumer@CosEventChannelAdmin@@XZ
?obtain_pull_supplier@ConsumerAdmin_i@@$4PPPPPPPM@A@AEPAV_objref_ProxyPullSupplier@CosEventChannelAdmin@@XZ
?obtain_pull_supplier@ConsumerAdmin_i@@UAEPAV_objref_ProxyPullSupplier@CosEventChannelAdmin@@XZ
?obtain_push_consumer@SupplierAdmin_i@@$4PPPPPPPM@A@AEPAV_objref_ProxyPushConsumer@CosEventChannelAdmin@@XZ
?obtain_push_consumer@SupplierAdmin_i@@UAEPAV_objref_ProxyPushConsumer@CosEventChannelAdmin@@XZ
?obtain_push_supplier@ConsumerAdmin_i@@$4PPPPPPPM@A@AEPAV_objref_ProxyPushSupplier@CosEventChannelAdmin@@XZ
?obtain_push_supplier@ConsumerAdmin_i@@UAEPAV_objref_ProxyPushSupplier@CosEventChannelAdmin@@XZ
?obtain_stats@EventChannel_i@@$4PPPPPPPM@A@AE?AUChannelStats@AttNotification@@XZ
?obtain_stats@EventChannel_i@@UAE?AUChannelStats@AttNotification@@XZ
?obtain_subscription_types@EventChannel_i@@$4PPPPPPPM@A@AEPAVEventTypeSeq@CosNotification@@XZ
?obtain_subscription_types@EventChannel_i@@UAEPAVEventTypeSeq@CosNotification@@XZ
?obtain_subscription_types@ProxyPullConsumer_i@@$4PPPPPPPM@A@AEPAVEventTypeSeq@CosNotification@@W4ObtainInfoMode@CosNotifyChannelAdmin@@@Z
?obtain_subscription_types@ProxyPullConsumer_i@@UAEPAVEventTypeSeq@CosNotification@@W4ObtainInfoMode@CosNotifyChannelAdmin@@@Z
?obtain_subscription_types@ProxyPushConsumer_i@@$4PPPPPPPM@A@AEPAVEventTypeSeq@CosNotification@@W4ObtainInfoMode@CosNotifyChannelAdmin@@@Z
?obtain_subscription_types@ProxyPushConsumer_i@@UAEPAVEventTypeSeq@CosNotification@@W4ObtainInfoMode@CosNotifyChannelAdmin@@@Z
?obtain_subscription_types@RDIProxyConsumer@@QAEPAVEventTypeSeq@CosNotification@@W4ObtainInfoMode@CosNotifyChannelAdmin@@@Z
?obtain_subscription_types@RDI_TypeMap@@QAEPAVEventTypeSeq@CosNotification@@XZ
?obtain_subscription_types@SequenceProxyPullConsumer_i@@$4PPPPPPPM@A@AEPAVEventTypeSeq@CosNotification@@W4ObtainInfoMode@CosNotifyChannelAdmin@@@Z
?obtain_subscription_types@SequenceProxyPullConsumer_i@@UAEPAVEventTypeSeq@CosNotification@@W4ObtainInfoMode@CosNotifyChannelAdmin@@@Z
?obtain_subscription_types@SequenceProxyPushConsumer_i@@$4PPPPPPPM@A@AEPAVEventTypeSeq@CosNotification@@W4ObtainInfoMode@CosNotifyChannelAdmin@@@Z
?obtain_subscription_types@SequenceProxyPushConsumer_i@@UAEPAVEventTypeSeq@CosNotification@@W4ObtainInfoMode@CosNotifyChannelAdmin@@@Z
?obtain_subscription_types@StructuredProxyPullConsumer_i@@$4PPPPPPPM@A@AEPAVEventTypeSeq@CosNotification@@W4ObtainInfoMode@CosNotifyChannelAdmin@@@Z
?obtain_subscription_types@StructuredProxyPullConsumer_i@@UAEPAVEventTypeSeq@CosNotification@@W4ObtainInfoMode@CosNotifyChannelAdmin@@@Z
?obtain_subscription_types@StructuredProxyPushConsumer_i@@$4PPPPPPPM@A@AEPAVEventTypeSeq@CosNotification@@W4ObtainInfoMode@CosNotifyChannelAdmin@@@Z
?obtain_subscription_types@StructuredProxyPushConsumer_i@@UAEPAVEventTypeSeq@CosNotification@@W4ObtainInfoMode@CosNotifyChannelAdmin@@@Z
?ochange_pool@EventChannel_i@@QAEPAVRDI_ChangePool@@XZ
?offer_change@ProxyPullConsumer_i@@$4PPPPPPPM@A@AEXABVEventTypeSeq@CosNotification@@0@Z
?offer_change@ProxyPullConsumer_i@@UAEXABVEventTypeSeq@CosNotification@@0@Z
?offer_change@ProxyPushConsumer_i@@$4PPPPPPPM@A@AEXABVEventTypeSeq@CosNotification@@0@Z
?offer_change@ProxyPushConsumer_i@@UAEXABVEventTypeSeq@CosNotification@@0@Z
?offer_change@RDIProxyConsumer@@QAEXABVEventTypeSeq@CosNotification@@0@Z
?offer_change@SequenceProxyPullConsumer_i@@$4PPPPPPPM@A@AEXABVEventTypeSeq@CosNotification@@0@Z
?offer_change@SequenceProxyPullConsumer_i@@UAEXABVEventTypeSeq@CosNotification@@0@Z
?offer_change@SequenceProxyPushConsumer_i@@$4PPPPPPPM@A@AEXABVEventTypeSeq@CosNotification@@0@Z
?offer_change@SequenceProxyPushConsumer_i@@UAEXABVEventTypeSeq@CosNotification@@0@Z
?offer_change@StructuredProxyPullConsumer_i@@$4PPPPPPPM@A@AEXABVEventTypeSeq@CosNotification@@0@Z
?offer_change@StructuredProxyPullConsumer_i@@UAEXABVEventTypeSeq@CosNotification@@0@Z
?offer_change@StructuredProxyPushConsumer_i@@$4PPPPPPPM@A@AEXABVEventTypeSeq@CosNotification@@0@Z
?offer_change@StructuredProxyPushConsumer_i@@UAEXABVEventTypeSeq@CosNotification@@0@Z
?offer_change@SupplierAdmin_i@@$4PPPPPPPM@A@AEXABVEventTypeSeq@CosNotification@@0@Z
?offer_change@SupplierAdmin_i@@UAEXABVEventTypeSeq@CosNotification@@0@Z
?orb@WRAPPED_ORB_OA@@SAPAVORB@CORBA@@XZ
?orderPolicy@RDINotifQueue@@QAEFXZ
?orderPolicy@RDI_NotifQoS@@QAEXF@Z
?orderPolicy@RDI_NotifQoS@@QBEFXZ
?out_all_config@EventChannelFactory_i@@QAEXAAVRDIstrstream@@@Z
?out_all_config@RDINotifServer@@QAE_NAAVRDIstrstream@@PBD@Z
?out_all_debug_info@EventChannelFactory_i@@QAEXAAVRDIstrstream@@@Z
?out_all_debug_info@RDINotifServer@@QAE_NAAVRDIstrstream@@PBD@Z
?out_all_stats@EventChannelFactory_i@@QAEXAAVRDIstrstream@@@Z
?out_all_stats@RDINotifServer@@QAE_NAAVRDIstrstream@@PBD@Z
?out_commands@ConsumerAdmin_i@@QAEXAAVRDIstrstream@@@Z
?out_commands@EventChannelFactory_i@@QAEXAAVRDIstrstream@@@Z
?out_commands@EventChannel_i@@QAEXAAVRDIstrstream@@@Z
?out_commands@EventProxyPullConsumer_i@@SAXAAVRDIstrstream@@@Z
?out_commands@EventProxyPullSupplier_i@@SAXAAVRDIstrstream@@@Z
?out_commands@EventProxyPushConsumer_i@@SAXAAVRDIstrstream@@@Z
?out_commands@EventProxyPushSupplier_i@@SAXAAVRDIstrstream@@@Z
?out_commands@FilterFactory_i@@QAEXAAVRDIstrstream@@@Z
?out_commands@Filter_i@@QAEXAAVRDIstrstream@@@Z
?out_commands@RDINotifServer@@QAEXAAVRDIstrstream@@@Z
?out_commands@RDIProxyConsumer@@QAEXAAVRDIstrstream@@@Z
?out_commands@RDIProxySupplier@@QAEXAAVRDIstrstream@@@Z
?out_commands@SupplierAdmin_i@@QAEXAAVRDIstrstream@@@Z
?out_config@ConsumerAdmin_i@@QAEXAAVRDIstrstream@@@Z
?out_config@EventChannel_i@@QAEXAAVRDIstrstream@@@Z
?out_config@RDIProxyConsumer@@QAEXAAVRDIstrstream@@@Z
?out_config@RDIProxySupplier@@QAEXAAVRDIstrstream@@@Z
?out_config@SupplierAdmin_i@@QAEXAAVRDIstrstream@@@Z
?out_debug_info@EventChannel_i@@QAEXAAVRDIstrstream@@_N@Z
?out_debug_info@RDI_EventQueue@@QAEXAAVRDIstrstream@@_N@Z
?out_default_config@EventChannelFactory_i@@QAEXAAVRDIstrstream@@@Z
?out_flags@RDINotifServer@@QAEXAAVRDIstrstream@@@Z
?out_heading@EventChannel_i@@QAEXAAVRDIstrstream@@@Z
?out_info_all_filters@Filter_i@@SAXAAVRDIstrstream@@@Z
?out_info_descr@Filter_i@@QAEXAAVRDIstrstream@@@Z
?out_info_filter@Filter_i@@SAXAAVRDIstrstream@@PBD@Z
?out_info_filters@ConsumerAdmin_i@@QAEXAAVRDIstrstream@@_N1@Z
?out_info_filters@EventChannel_i@@QAEXAAVRDIstrstream@@_N1@Z
?out_info_filters@FAdminHelper@@QAEXAAVRDIstrstream@@@Z
?out_info_filters@RDIProxyConsumer@@QAEXAAVRDIstrstream@@@Z
?out_info_filters@RDIProxySupplier@@QAEXAAVRDIstrstream@@@Z
?out_info_filters@SupplierAdmin_i@@QAEXAAVRDIstrstream@@_N1@Z
?out_local@RDI_TimeT@@QAEXAAVRDIstrstream@@@Z
?out_server_config@RDINotifServer@@QAEXAAVRDIstrstream@@@Z
?out_short_descr@Filter_i@@QAEXAAVRDIstrstream@@@Z
?out_stats@EventChannel_i@@QAEXAAVRDIstrstream@@@Z
?out_stats@RDI_EventQueue@@QAEXAAVRDIstrstream@@@Z
?pacingInterval@RDI_NotifQoS@@QAEXVRDI_TimeT@@@Z
?pacingInterval@RDI_NotifQoS@@QBE?AVRDI_TimeT@@XZ
?pacingInterval_s_n@RDI_NotifQoS@@QBEXAAK0@Z
?pacingInterval_timebase@RDI_NotifQoS@@QBEXAA_K@Z
?parse_arguments@RDI_Config@@QAE_NAAVRDIstrstream@@AAHPAPAD_N@Z
?parse_set_command@RDI_AllQoS@@SA_NAAVRDIstrstream@@AAVRDIParseCmd@@W4RDI_ObjectKind@@AAVPropertySeq@CosNotification@@33@Z
?parse_string@RDI_PCState@@QAEXPBD@Z
?periodic_report@EventChannel_i@@AAEXXZ
?pri_lowest_first@RDIPriorityQueue@@QAEX_N@Z
?pri_lowest_first@RDIPriorityQueue@@QAE_NXZ
?priority@RDI_NotifQoS@@QAEXF@Z
?priority@RDI_NotifQoS@@QBEFXZ
?priority_filter@ConsumerAdmin_i@@$4PPPPPPPM@A@AEPAV_objref_MappingFilter@CosNotifyFilter@@XZ
?priority_filter@ConsumerAdmin_i@@$4PPPPPPPM@A@AEXPAV_objref_MappingFilter@CosNotifyFilter@@@Z
?priority_filter@ConsumerAdmin_i@@UAEPAV_objref_MappingFilter@CosNotifyFilter@@XZ
?priority_filter@ConsumerAdmin_i@@UAEXPAV_objref_MappingFilter@CosNotifyFilter@@@Z
?priority_filter@ProxyPullSupplier_i@@$4PPPPPPPM@A@AEPAV_objref_MappingFilter@CosNotifyFilter@@XZ
?priority_filter@ProxyPullSupplier_i@@$4PPPPPPPM@A@AEXPAV_objref_MappingFilter@CosNotifyFilter@@@Z
?priority_filter@ProxyPullSupplier_i@@UAEPAV_objref_MappingFilter@CosNotifyFilter@@XZ
?priority_filter@ProxyPullSupplier_i@@UAEXPAV_objref_MappingFilter@CosNotifyFilter@@@Z
?priority_filter@ProxyPushSupplier_i@@$4PPPPPPPM@A@AEPAV_objref_MappingFilter@CosNotifyFilter@@XZ
?priority_filter@ProxyPushSupplier_i@@$4PPPPPPPM@A@AEXPAV_objref_MappingFilter@CosNotifyFilter@@@Z
?priority_filter@ProxyPushSupplier_i@@UAEPAV_objref_MappingFilter@CosNotifyFilter@@XZ
?priority_filter@ProxyPushSupplier_i@@UAEXPAV_objref_MappingFilter@CosNotifyFilter@@@Z
?priority_filter@RDIProxySupplier@@QAEPAV_objref_MappingFilter@CosNotifyFilter@@XZ
?priority_filter@RDIProxySupplier@@QAEXPAV_objref_MappingFilter@CosNotifyFilter@@@Z
?priority_filter@SequenceProxyPullSupplier_i@@$4PPPPPPPM@A@AEPAV_objref_MappingFilter@CosNotifyFilter@@XZ
?priority_filter@SequenceProxyPullSupplier_i@@$4PPPPPPPM@A@AEXPAV_objref_MappingFilter@CosNotifyFilter@@@Z
?priority_filter@SequenceProxyPullSupplier_i@@UAEPAV_objref_MappingFilter@CosNotifyFilter@@XZ
?priority_filter@SequenceProxyPullSupplier_i@@UAEXPAV_objref_MappingFilter@CosNotifyFilter@@@Z
?priority_filter@SequenceProxyPushSupplier_i@@$4PPPPPPPM@A@AEPAV_objref_MappingFilter@CosNotifyFilter@@XZ
?priority_filter@SequenceProxyPushSupplier_i@@$4PPPPPPPM@A@AEXPAV_objref_MappingFilter@CosNotifyFilter@@@Z
?priority_filter@SequenceProxyPushSupplier_i@@UAEPAV_objref_MappingFilter@CosNotifyFilter@@XZ
?priority_filter@SequenceProxyPushSupplier_i@@UAEXPAV_objref_MappingFilter@CosNotifyFilter@@@Z
?priority_filter@StructuredProxyPullSupplier_i@@$4PPPPPPPM@A@AEPAV_objref_MappingFilter@CosNotifyFilter@@XZ
?priority_filter@StructuredProxyPullSupplier_i@@$4PPPPPPPM@A@AEXPAV_objref_MappingFilter@CosNotifyFilter@@@Z
?priority_filter@StructuredProxyPullSupplier_i@@UAEPAV_objref_MappingFilter@CosNotifyFilter@@XZ
?priority_filter@StructuredProxyPullSupplier_i@@UAEXPAV_objref_MappingFilter@CosNotifyFilter@@@Z
?priority_filter@StructuredProxyPushSupplier_i@@$4PPPPPPPM@A@AEPAV_objref_MappingFilter@CosNotifyFilter@@XZ
?priority_filter@StructuredProxyPushSupplier_i@@$4PPPPPPPM@A@AEXPAV_objref_MappingFilter@CosNotifyFilter@@@Z
?priority_filter@StructuredProxyPushSupplier_i@@UAEPAV_objref_MappingFilter@CosNotifyFilter@@XZ
?priority_filter@StructuredProxyPushSupplier_i@@UAEXPAV_objref_MappingFilter@CosNotifyFilter@@@Z
?propagate_ochange@EventChannel_i@@QAEXAAURDI_LocksHeld_s@@ABVEventTypeSeq@CosNotification@@1@Z
?propagate_ochange@SupplierAdmin_i@@QAEXAAURDI_LocksHeld_s@@ABVEventTypeSeq@CosNotification@@1@Z
?propagate_schange@ConsumerAdmin_i@@UAEXAAURDI_LocksHeld_s@@ABVEventTypeSeq@CosNotification@@1PAVFilter_i@@@Z
?propagate_schange@EventChannel_i@@QAEXAAURDI_LocksHeld_s@@ABVEventTypeSeq@CosNotification@@1@Z
?propagate_schange@RDIProxyConsumer@@UAEXAAURDI_LocksHeld_s@@ABVEventTypeSeq@CosNotification@@1PAVFilter_i@@@Z
?propagate_schange@RDIProxySupplier@@UAEXAAURDI_LocksHeld_s@@ABVEventTypeSeq@CosNotification@@1PAVFilter_i@@@Z
?propagate_schange@SupplierAdmin_i@@UAEXAAURDI_LocksHeld_s@@ABVEventTypeSeq@CosNotification@@1PAVFilter_i@@@Z
?proxy_dispatch@EventChannel_i@@AAEXXZ
?pseudo_hash@?$RDI_Hash@JPAVConsumerAdmin_i@@@@AAEIABJ@Z
?pseudo_hash@?$RDI_Hash@JPAVEventChannel_i@@@@AAEIABJ@Z
?pseudo_hash@?$RDI_Hash@JPAVFilter_i@@@@AAEIABJ@Z
?pseudo_hash@?$RDI_Hash@JPAVProxyPullConsumer_i@@@@AAEIABJ@Z
?pseudo_hash@?$RDI_Hash@JPAVProxyPullSupplier_i@@@@AAEIABJ@Z
?pseudo_hash@?$RDI_Hash@JPAVProxyPushConsumer_i@@@@AAEIABJ@Z
?pseudo_hash@?$RDI_Hash@JPAVProxyPushSupplier_i@@@@AAEIABJ@Z
?pseudo_hash@?$RDI_Hash@JPAVSequenceProxyPullConsumer_i@@@@AAEIABJ@Z
?pseudo_hash@?$RDI_Hash@JPAVSequenceProxyPullSupplier_i@@@@AAEIABJ@Z
?pseudo_hash@?$RDI_Hash@JPAVSequenceProxyPushConsumer_i@@@@AAEIABJ@Z
?pseudo_hash@?$RDI_Hash@JPAVSequenceProxyPushSupplier_i@@@@AAEIABJ@Z
?pseudo_hash@?$RDI_Hash@JPAVStructuredProxyPullConsumer_i@@@@AAEIABJ@Z
?pseudo_hash@?$RDI_Hash@JPAVStructuredProxyPullSupplier_i@@@@AAEIABJ@Z
?pseudo_hash@?$RDI_Hash@JPAVStructuredProxyPushConsumer_i@@@@AAEIABJ@Z
?pseudo_hash@?$RDI_Hash@JPAVStructuredProxyPushSupplier_i@@@@AAEIABJ@Z
?pseudo_hash@?$RDI_Hash@JPAVSupplierAdmin_i@@@@AAEIABJ@Z
?pseudo_hash@?$RDI_Hash@JPAV_objref_NotifySubscribe@CosNotifyComm@@@@AAEIABJ@Z
?pseudo_hash@?$RDI_Hash@JUFAdminFilterEntry_s@@@@AAEIABJ@Z
?pseudo_hash@?$RDI_Hash@JURDINfyCB@@@@AAEIABJ@Z
?pseudo_hash@?$RDI_Hash@PAVRDIOplockEntry@@H@@AAEIABQAVRDIOplockEntry@@@Z
?pseudo_hash@?$RDI_Hash@UEventType@CosNotification@@K@@AAEIABUEventType@CosNotification@@@Z
?pseudo_hash@?$RDI_Hash@UEventType@CosNotification@@UVNode_t@RDI_TypeMap@@@@AAEIABUEventType@CosNotification@@@Z
?pseudo_hash@?$RDI_Hash@UKey_t@RDI_StructuredEvent@@UVal_t@2@@@AAEIABUKey_t@RDI_StructuredEvent@@@Z
?pseudo_hash@?$RDI_Hash@VRDI_EventType@@K@@AAEIABVRDI_EventType@@@Z
?pseudo_hash@?$RDI_Hash@VRDI_EventType@@PAX@@AAEIABVRDI_EventType@@@Z
?ptr@RDIOplockEntry@@QAEPAPAV1@XZ
?ptr_exists@RDIOplocks@@SAHPAVRDIOplockEntry@@@Z
?pull@EventProxyPullSupplier_i@@$4PPPPPPPM@A@AEPAVAny@CORBA@@XZ
?pull@EventProxyPullSupplier_i@@UAEPAVAny@CORBA@@XZ
?pull@ProxyPullSupplier_i@@$4PPPPPPPM@A@AEPAVAny@CORBA@@XZ
?pull@ProxyPullSupplier_i@@UAEPAVAny@CORBA@@XZ
?pull_consumers@SupplierAdmin_i@@$4PPPPPPPM@A@AEPAVProxyIDSeq@CosNotifyChannelAdmin@@XZ
?pull_consumers@SupplierAdmin_i@@UAEPAVProxyIDSeq@CosNotifyChannelAdmin@@XZ
?pull_event@EventProxyPullConsumer_i@@$4PPPPPPPM@A@AEXAA_N@Z
?pull_event@EventProxyPullConsumer_i@@UAEXAA_N@Z
?pull_event@ProxyPullConsumer_i@@$4PPPPPPPM@A@AEXAA_N@Z
?pull_event@ProxyPullConsumer_i@@UAEXAA_N@Z
?pull_event@RDI_PullSupplier@@QAEXXZ
?pull_event@SequenceProxyPullConsumer_i@@$4PPPPPPPM@A@AEXAA_N@Z
?pull_event@SequenceProxyPullConsumer_i@@UAEXAA_N@Z
?pull_event@StructuredProxyPullConsumer_i@@$4PPPPPPPM@A@AEXAA_N@Z
?pull_event@StructuredProxyPullConsumer_i@@UAEXAA_N@Z
?pull_period_s_n@EventChannel_i@@QBEXAAK0@Z
?pull_structured_event@StructuredProxyPullSupplier_i@@$4PPPPPPPM@A@AEPAUStructuredEvent@CosNotification@@XZ
?pull_structured_event@StructuredProxyPullSupplier_i@@UAEPAUStructuredEvent@CosNotification@@XZ
?pull_structured_events@SequenceProxyPullSupplier_i@@$4PPPPPPPM@A@AEPAVEventBatch@CosNotification@@J@Z
?pull_structured_events@SequenceProxyPullSupplier_i@@UAEPAVEventBatch@CosNotification@@J@Z
?pull_supplier@EventChannel_i@@QAEPAVRDI_PullSupplier@@XZ
?pull_suppliers@ConsumerAdmin_i@@$4PPPPPPPM@A@AEPAVProxyIDSeq@CosNotifyChannelAdmin@@XZ
?pull_suppliers@ConsumerAdmin_i@@UAEPAVProxyIDSeq@CosNotifyChannelAdmin@@XZ
?pull_threads@EventChannel_i@@QBEGXZ
?push@EventProxyPushConsumer_i@@$4PPPPPPPM@A@AEXABVAny@CORBA@@@Z
?push@EventProxyPushConsumer_i@@UAEXABVAny@CORBA@@@Z
?push@ProxyPushConsumer_i@@$4PPPPPPPM@A@AEXABVAny@CORBA@@@Z
?push@ProxyPushConsumer_i@@UAEXABVAny@CORBA@@@Z
?push_consumer@EventChannel_i@@QAEPAVRDI_NotifyConsumer@@XZ
?push_consumers@SupplierAdmin_i@@$4PPPPPPPM@A@AEPAVProxyIDSeq@CosNotifyChannelAdmin@@XZ
?push_consumers@SupplierAdmin_i@@UAEPAVProxyIDSeq@CosNotifyChannelAdmin@@XZ
?push_event@EventProxyPushSupplier_i@@$4PPPPPPPM@A@AEXAA_N@Z
?push_event@EventProxyPushSupplier_i@@UAEXAA_N@Z
?push_event@ProxyPushSupplier_i@@$4PPPPPPPM@A@AEXAA_N@Z
?push_event@ProxyPushSupplier_i@@UAEXAA_N@Z
?push_event@SequenceProxyPushSupplier_i@@$4PPPPPPPM@A@AEXAA_N@Z
?push_event@SequenceProxyPushSupplier_i@@UAEXAA_N@Z
?push_event@StructuredProxyPushSupplier_i@@$4PPPPPPPM@A@AEXAA_N@Z
?push_event@StructuredProxyPushSupplier_i@@UAEXAA_N@Z
?push_structured_event@StructuredProxyPushConsumer_i@@$4PPPPPPPM@A@AEXABUStructuredEvent@CosNotification@@@Z
?push_structured_event@StructuredProxyPushConsumer_i@@UAEXABUStructuredEvent@CosNotification@@@Z
?push_structured_events@SequenceProxyPushConsumer_i@@$4PPPPPPPM@A@AEXABVEventBatch@CosNotification@@@Z
?push_structured_events@SequenceProxyPushConsumer_i@@UAEXABVEventBatch@CosNotification@@@Z
?push_suppliers@ConsumerAdmin_i@@$4PPPPPPPM@A@AEPAVProxyIDSeq@CosNotifyChannelAdmin@@XZ
?push_suppliers@ConsumerAdmin_i@@UAEPAVProxyIDSeq@CosNotifyChannelAdmin@@XZ
?push_threads@EventChannel_i@@QBEGXZ
?pxy_obtain_offered_types@EventChannel_i@@QAEPAVEventTypeSeq@CosNotification@@PAVRDIProxySupplier@@W4ObtainInfoMode@CosNotifyChannelAdmin@@@Z
?pxy_obtain_subscription_types@EventChannel_i@@QAEPAVEventTypeSeq@CosNotification@@PAVRDIProxyConsumer@@W4ObtainInfoMode@CosNotifyChannelAdmin@@@Z
?pxy_obtain_subscription_types@RDI_TypeMap@@QAEPAVEventTypeSeq@CosNotification@@PAVRDIProxyConsumer@@W4ObtainInfoMode@CosNotifyChannelAdmin@@@Z
?qos_changed@RDINotifQueue@@QAEXPAVRDI_NotifQoS@@@Z
?qos_changed@RDI_EventQueue@@QAEXKK_NF@Z
?qos_properties@ConsumerAdmin_i@@QAEPAVRDI_NotifQoS@@XZ
?qos_properties@EventChannel_i@@QAEPAVRDI_NotifQoS@@XZ
?qos_properties@SupplierAdmin_i@@QAEPAVRDI_NotifQoS@@XZ
?rank@Key_t@RDI_StructuredEvent@@SAHPBX0@Z
?rank@RDI_EventType@@SAHPBX0@Z
?rdi_match@Filter_i@@QAE_NPAVRDI_StructuredEvent@@PAVEventChannel_i@@@Z
?reacquire@RDIOplockEntry@@QAE_NPAPAV1@@Z
?ref_counter@RDI_StructuredEvent@@QBEJXZ
?regcexpr@RDI_PCState@@QAEXPAVRDI_Constraint@@@Z
?regstr@RDI_PCState@@QAEXPAD@Z
?release@CORBA@@YAXPAVObject@1@@Z
?release@RDIOplockEntry@@QAEXXZ
?rem_filter_i@FAdminHelper@@QAEXPAVFilter_i@@@Z
?remove@?$RDI_Hash@JPAVConsumerAdmin_i@@@@QAEXABJ@Z
?remove@?$RDI_Hash@JPAVEventChannel_i@@@@QAEXABJ@Z
?remove@?$RDI_Hash@JPAVFilter_i@@@@QAEXABJ@Z
?remove@?$RDI_Hash@JPAVProxyPullConsumer_i@@@@QAEXABJ@Z
?remove@?$RDI_Hash@JPAVProxyPullSupplier_i@@@@QAEXABJ@Z
?remove@?$RDI_Hash@JPAVProxyPushConsumer_i@@@@QAEXABJ@Z
?remove@?$RDI_Hash@JPAVProxyPushSupplier_i@@@@QAEXABJ@Z
?remove@?$RDI_Hash@JPAVSequenceProxyPullConsumer_i@@@@QAEXABJ@Z
?remove@?$RDI_Hash@JPAVSequenceProxyPullSupplier_i@@@@QAEXABJ@Z
?remove@?$RDI_Hash@JPAVSequenceProxyPushConsumer_i@@@@QAEXABJ@Z
?remove@?$RDI_Hash@JPAVSequenceProxyPushSupplier_i@@@@QAEXABJ@Z
?remove@?$RDI_Hash@JPAVStructuredProxyPullConsumer_i@@@@QAEXABJ@Z
?remove@?$RDI_Hash@JPAVStructuredProxyPullSupplier_i@@@@QAEXABJ@Z
?remove@?$RDI_Hash@JPAVStructuredProxyPushConsumer_i@@@@QAEXABJ@Z
?remove@?$RDI_Hash@JPAVStructuredProxyPushSupplier_i@@@@QAEXABJ@Z
?remove@?$RDI_Hash@JPAVSupplierAdmin_i@@@@QAEXABJ@Z
?remove@?$RDI_Hash@JPAV_objref_NotifySubscribe@CosNotifyComm@@@@QAEXABJ@Z
?remove@?$RDI_Hash@JUFAdminFilterEntry_s@@@@QAEXABJ@Z
?remove@?$RDI_Hash@JURDINfyCB@@@@QAEXABJ@Z
?remove@?$RDI_Hash@PAVRDIOplockEntry@@H@@QAEXABQAVRDIOplockEntry@@@Z
?remove@?$RDI_Hash@UEventType@CosNotification@@K@@QAEXABUEventType@CosNotification@@@Z
?remove@?$RDI_Hash@UEventType@CosNotification@@UVNode_t@RDI_TypeMap@@@@QAEXABUEventType@CosNotification@@@Z
?remove@?$RDI_Hash@VRDI_EventType@@K@@QAEXABVRDI_EventType@@@Z
?remove@?$RDI_Hash@VRDI_EventType@@PAX@@QAEXABVRDI_EventType@@@Z
?remove@?$RDI_List@PAVEventProxyPullConsumer_i@@@@QAEXABV?$RDI_ListCursor@PAVEventProxyPullConsumer_i@@@@@Z
?remove@?$RDI_List@PAVEventProxyPullSupplier_i@@@@QAEXABV?$RDI_ListCursor@PAVEventProxyPullSupplier_i@@@@@Z
?remove@?$RDI_List@PAVEventProxyPushConsumer_i@@@@QAEXABV?$RDI_ListCursor@PAVEventProxyPushConsumer_i@@@@@Z
?remove@?$RDI_List@PAVEventProxyPushSupplier_i@@@@QAEXABV?$RDI_ListCursor@PAVEventProxyPushSupplier_i@@@@@Z
?remove@?$RDI_SafeList@VConsumerAdmin_i@@@@QAEXPAVConsumerAdmin_i@@@Z
?remove@CAdminGroupMgr@@QAEXPAVConsumerAdmin_i@@@Z
?remove_all@CAdminGroupMgr@@QAEXAAV?$_CORBA_Unbounded_Sequence@PAVConsumerAdmin_i@@@@@Z
?remove_all_constraints@Filter_i@@$4PPPPPPPM@A@AEXXZ
?remove_all_constraints@Filter_i@@UAEXXZ
?remove_all_filters@ConsumerAdmin_i@@$4PPPPPPPM@A@AEXXZ
?remove_all_filters@ConsumerAdmin_i@@UAEXXZ
?remove_all_filters@FAdminHelper@@QAEXAAURDI_LocksHeld_s@@PAVRDINotifySubscribe@@@Z
?remove_all_filters@ProxyPullConsumer_i@@$4PPPPPPPM@A@AEXXZ
?remove_all_filters@ProxyPullConsumer_i@@UAEXXZ
?remove_all_filters@ProxyPullSupplier_i@@$4PPPPPPPM@A@AEXXZ
?remove_all_filters@ProxyPullSupplier_i@@UAEXXZ
?remove_all_filters@ProxyPushConsumer_i@@$4PPPPPPPM@A@AEXXZ
?remove_all_filters@ProxyPushConsumer_i@@UAEXXZ
?remove_all_filters@ProxyPushSupplier_i@@$4PPPPPPPM@A@AEXXZ
?remove_all_filters@ProxyPushSupplier_i@@UAEXXZ
?remove_all_filters@RDIProxyConsumer@@QAEXXZ
?remove_all_filters@RDIProxySupplier@@QAEXXZ
?remove_all_filters@SequenceProxyPullConsumer_i@@$4PPPPPPPM@A@AEXXZ
?remove_all_filters@SequenceProxyPullConsumer_i@@UAEXXZ
?remove_all_filters@SequenceProxyPullSupplier_i@@$4PPPPPPPM@A@AEXXZ
?remove_all_filters@SequenceProxyPullSupplier_i@@UAEXXZ
?remove_all_filters@SequenceProxyPushConsumer_i@@$4PPPPPPPM@A@AEXXZ
?remove_all_filters@SequenceProxyPushConsumer_i@@UAEXXZ
?remove_all_filters@SequenceProxyPushSupplier_i@@$4PPPPPPPM@A@AEXXZ
?remove_all_filters@SequenceProxyPushSupplier_i@@UAEXXZ
?remove_all_filters@StructuredProxyPullConsumer_i@@$4PPPPPPPM@A@AEXXZ
?remove_all_filters@StructuredProxyPullConsumer_i@@UAEXXZ
?remove_all_filters@StructuredProxyPullSupplier_i@@$4PPPPPPPM@A@AEXXZ
?remove_all_filters@StructuredProxyPullSupplier_i@@UAEXXZ
?remove_all_filters@StructuredProxyPushConsumer_i@@$4PPPPPPPM@A@AEXXZ
?remove_all_filters@StructuredProxyPushConsumer_i@@UAEXXZ
?remove_all_filters@StructuredProxyPushSupplier_i@@$4PPPPPPPM@A@AEXXZ
?remove_all_filters@StructuredProxyPushSupplier_i@@UAEXXZ
?remove_all_filters@SupplierAdmin_i@@$4PPPPPPPM@A@AEXXZ
?remove_all_filters@SupplierAdmin_i@@UAEXXZ
?remove_all_mapping_constraints@MappingFilter_i@@$4PPPPPPPM@A@AEXXZ
?remove_all_mapping_constraints@MappingFilter_i@@UAEXXZ
?remove_channel@EventChannelFactory_i@@QAEXJ@Z
?remove_filter@ConsumerAdmin_i@@$4PPPPPPPM@A@AEXJ@Z
?remove_filter@ConsumerAdmin_i@@UAEXJ@Z
?remove_filter@FAdminHelper@@QAEXAAURDI_LocksHeld_s@@JPAVRDINotifySubscribe@@@Z
?remove_filter@ProxyPullConsumer_i@@$4PPPPPPPM@A@AEXJ@Z
?remove_filter@ProxyPullConsumer_i@@UAEXJ@Z
?remove_filter@ProxyPullSupplier_i@@$4PPPPPPPM@A@AEXJ@Z
?remove_filter@ProxyPullSupplier_i@@UAEXJ@Z
?remove_filter@ProxyPushConsumer_i@@$4PPPPPPPM@A@AEXJ@Z
?remove_filter@ProxyPushConsumer_i@@UAEXJ@Z
?remove_filter@ProxyPushSupplier_i@@$4PPPPPPPM@A@AEXJ@Z
?remove_filter@ProxyPushSupplier_i@@UAEXJ@Z
?remove_filter@RDIProxyConsumer@@QAEXJ@Z
?remove_filter@RDIProxySupplier@@QAEXJ@Z
?remove_filter@SequenceProxyPullConsumer_i@@$4PPPPPPPM@A@AEXJ@Z
?remove_filter@SequenceProxyPullConsumer_i@@UAEXJ@Z
?remove_filter@SequenceProxyPullSupplier_i@@$4PPPPPPPM@A@AEXJ@Z
?remove_filter@SequenceProxyPullSupplier_i@@UAEXJ@Z
?remove_filter@SequenceProxyPushConsumer_i@@$4PPPPPPPM@A@AEXJ@Z
?remove_filter@SequenceProxyPushConsumer_i@@UAEXJ@Z
?remove_filter@SequenceProxyPushSupplier_i@@$4PPPPPPPM@A@AEXJ@Z
?remove_filter@SequenceProxyPushSupplier_i@@UAEXJ@Z
?remove_filter@StructuredProxyPullConsumer_i@@$4PPPPPPPM@A@AEXJ@Z
?remove_filter@StructuredProxyPullConsumer_i@@UAEXJ@Z
?remove_filter@StructuredProxyPullSupplier_i@@$4PPPPPPPM@A@AEXJ@Z
?remove_filter@StructuredProxyPullSupplier_i@@UAEXJ@Z
?remove_filter@StructuredProxyPushConsumer_i@@$4PPPPPPPM@A@AEXJ@Z
?remove_filter@StructuredProxyPushConsumer_i@@UAEXJ@Z
?remove_filter@StructuredProxyPushSupplier_i@@$4PPPPPPPM@A@AEXJ@Z
?remove_filter@StructuredProxyPushSupplier_i@@UAEXJ@Z
?remove_filter@SupplierAdmin_i@@$4PPPPPPPM@A@AEXJ@Z
?remove_filter@SupplierAdmin_i@@UAEXJ@Z
?remove_head@?$RDI_List@PAVRDI_StructuredEvent@@@@QAEXXZ
?remove_head@?$RDI_List@UProxyDispatch_t@EventChannel_i@@@@QAEXXZ
?remove_pri_head@RDINotifQueue@@QAEPAVRDI_StructuredEvent@@XZ
?remove_pri_head@RDIPriorityQueue@@QAEPAVRDI_StructuredEvent@@XZ
?remove_proxy@ConsumerAdmin_i@@QAEXAAURDI_LocksHeld_s@@PAVEventProxyPullSupplier_i@@@Z
?remove_proxy@ConsumerAdmin_i@@QAEXAAURDI_LocksHeld_s@@PAVEventProxyPushSupplier_i@@@Z
?remove_proxy@ConsumerAdmin_i@@QAEXAAURDI_LocksHeld_s@@PAVProxyPullSupplier_i@@@Z
?remove_proxy@ConsumerAdmin_i@@QAEXAAURDI_LocksHeld_s@@PAVProxyPushSupplier_i@@@Z
?remove_proxy@ConsumerAdmin_i@@QAEXAAURDI_LocksHeld_s@@PAVSequenceProxyPullSupplier_i@@@Z
?remove_proxy@ConsumerAdmin_i@@QAEXAAURDI_LocksHeld_s@@PAVSequenceProxyPushSupplier_i@@@Z
?remove_proxy@ConsumerAdmin_i@@QAEXAAURDI_LocksHeld_s@@PAVStructuredProxyPullSupplier_i@@@Z
?remove_proxy@ConsumerAdmin_i@@QAEXAAURDI_LocksHeld_s@@PAVStructuredProxyPushSupplier_i@@@Z
?remove_proxy@RDI_ChangePool@@QAEXPAVRDIProxySupplier@@@Z
?remove_proxy@RDI_PullSupplier@@QAEXPAVRDIProxyPullConsumer@@@Z
?remove_proxy@SupplierAdmin_i@@QAEXAAURDI_LocksHeld_s@@PAVEventProxyPullConsumer_i@@@Z
?remove_proxy@SupplierAdmin_i@@QAEXAAURDI_LocksHeld_s@@PAVEventProxyPushConsumer_i@@@Z
?remove_proxy@SupplierAdmin_i@@QAEXAAURDI_LocksHeld_s@@PAVProxyPullConsumer_i@@@Z
?remove_proxy@SupplierAdmin_i@@QAEXAAURDI_LocksHeld_s@@PAVProxyPushConsumer_i@@@Z
?remove_proxy@SupplierAdmin_i@@QAEXAAURDI_LocksHeld_s@@PAVSequenceProxyPullConsumer_i@@@Z
?remove_proxy@SupplierAdmin_i@@QAEXAAURDI_LocksHeld_s@@PAVSequenceProxyPushConsumer_i@@@Z
?remove_proxy@SupplierAdmin_i@@QAEXAAURDI_LocksHeld_s@@PAVStructuredProxyPullConsumer_i@@@Z
?remove_proxy@SupplierAdmin_i@@QAEXAAURDI_LocksHeld_s@@PAVStructuredProxyPushConsumer_i@@@Z
?remove_proxyConsumer@RDI_ChangePool@@QAEXPAVRDIProxyConsumer@@@Z
?remove_proxySupplier@RDI_NotifyConsumer@@QAEXPAVRDIProxyPushSupplier@@@Z
?remove_sec_head@RDINotifQueue@@QAEPAVRDI_StructuredEvent@@XZ
?remove_sec_head@RDIPriorityQueue@@QAEPAVRDI_StructuredEvent@@XZ
?replace@?$RDI_Hash@UEventType@CosNotification@@K@@QAEXABUEventType@CosNotification@@ABK@Z
?replace@?$RDI_Hash@UEventType@CosNotification@@UVNode_t@RDI_TypeMap@@@@QAEXABUEventType@CosNotification@@ABUVNode_t@RDI_TypeMap@@@Z
?replace@?$RDI_Hash@UKey_t@RDI_StructuredEvent@@UVal_t@2@@@QAEXABUKey_t@RDI_StructuredEvent@@ABUVal_t@3@@Z
?replace@?$RDI_Hash@VRDI_EventType@@K@@QAEXABVRDI_EventType@@ABK@Z
?repos_id@RDI_RTVal@@QAEPADXZ
?reserve@RDIstrstream@@IAEXH@Z
?reset@RDI_RVM@@QAEXXZ
?resize@?$RDI_List@PAVEventProxyPullConsumer_i@@@@AAEHXZ
?resize@?$RDI_List@PAVEventProxyPullSupplier_i@@@@AAEHXZ
?resize@?$RDI_List@PAVEventProxyPushConsumer_i@@@@AAEHXZ
?resize@?$RDI_List@PAVEventProxyPushSupplier_i@@@@AAEHXZ
?resize@?$RDI_List@PAVRDI_StructuredEvent@@@@AAEHXZ
?resize@?$RDI_List@UProxyDispatch_t@EventChannel_i@@@@AAEHXZ
?results_to_file@RDINotifServer@@$4PPPPPPPM@A@AE_NXZ
?results_to_file@RDINotifServer@@UAE_NXZ
?resume_connection@ProxyPullConsumer_i@@$4PPPPPPPM@A@AEXXZ
?resume_connection@ProxyPullConsumer_i@@UAEXXZ
?resume_connection@ProxyPushSupplier_i@@$4PPPPPPPM@A@AEXXZ
?resume_connection@ProxyPushSupplier_i@@UAEXXZ
?resume_connection@SequenceProxyPullConsumer_i@@$4PPPPPPPM@A@AEXXZ
?resume_connection@SequenceProxyPullConsumer_i@@UAEXXZ
?resume_connection@SequenceProxyPushSupplier_i@@$4PPPPPPPM@A@AEXXZ
?resume_connection@SequenceProxyPushSupplier_i@@UAEXXZ
?resume_connection@StructuredProxyPullConsumer_i@@$4PPPPPPPM@A@AEXXZ
?resume_connection@StructuredProxyPullConsumer_i@@UAEXXZ
?resume_connection@StructuredProxyPushSupplier_i@@$4PPPPPPPM@A@AEXXZ
?resume_connection@StructuredProxyPushSupplier_i@@UAEXXZ
?retn@RDIstrstream@@QAEPADXZ
?run@AnyPullWorker@@UAEXPAX@Z
?run@EventChannelWorker@@UAEXPAX@Z
?run@EventPullWorker@@UAEXPAX@Z
?run@EventPushWorker@@UAEXPAX@Z
?run@EventQueueWorker@@UAEXPAX@Z
?run@RDINotifServerWorker@@UAEXPAX@Z
?run@RDI_NotifyWorker@@UAEXPAX@Z
?run@RDI_PullWorker@@UAEXPAX@Z
?run@SeqPullWorker@@UAEXPAX@Z
?run@StrPullWorker@@UAEXPAX@Z
?run@WRAPPED_ORB_OA@@SAXXZ
?run_garbage_collect@RDI_EventQueue@@ABEHXZ
?run_undetached@AnyProxyBoundWorker@@UAEPAXPAX@Z
?run_undetached@EventChannelBoundWorker@@UAEPAXPAX@Z
?run_undetached@RDI_ChangePoolBoundWorker@@UAEPAXPAX@Z
?run_undetached@RDI_NotifyBoundWorker@@UAEPAXPAX@Z
?run_undetached@RDI_PullBoundWorker@@UAEPAXPAX@Z
?run_undetached@SeqProxyBoundWorker@@UAEPAXPAX@Z
?run_undetached@StrProxyBoundWorker@@UAEPAXPAX@Z
?s_required@RDI_OpSeq@@QAEXPBDAA_NPAD@Z
?safe_cleanup@ConsumerAdmin_i@@$4PPPPPPPM@A@AE_NXZ
?safe_cleanup@ConsumerAdmin_i@@UAE_NXZ
?safe_cleanup@EventChannelFactory_i@@$4PPPPPPPM@A@AE_NXZ
?safe_cleanup@EventChannelFactory_i@@UAE_NXZ
?safe_cleanup@EventChannel_i@@$4PPPPPPPM@A@AE_NXZ
?safe_cleanup@EventChannel_i@@UAE_NXZ
?safe_cleanup@EventProxyPullConsumer_i@@$4PPPPPPPM@A@AE_NXZ
?safe_cleanup@EventProxyPullConsumer_i@@UAE_NXZ
?safe_cleanup@EventProxyPullSupplier_i@@$4PPPPPPPM@A@AE_NXZ
?safe_cleanup@EventProxyPullSupplier_i@@UAE_NXZ
?safe_cleanup@EventProxyPushConsumer_i@@$4PPPPPPPM@A@AE_NXZ
?safe_cleanup@EventProxyPushConsumer_i@@UAE_NXZ
?safe_cleanup@EventProxyPushSupplier_i@@$4PPPPPPPM@A@AE_NXZ
?safe_cleanup@EventProxyPushSupplier_i@@UAE_NXZ
?safe_cleanup@FilterFactory_i@@$4PPPPPPPM@A@AE_NXZ
?safe_cleanup@FilterFactory_i@@UAE_NXZ
?safe_cleanup@Filter_i@@$4PPPPPPPM@A@AE_NXZ
?safe_cleanup@Filter_i@@UAE_NXZ
?safe_cleanup@MappingFilter_i@@$4PPPPPPPM@A@AE_NXZ
?safe_cleanup@MappingFilter_i@@UAE_NXZ
?safe_cleanup@ProxyPullConsumer_i@@$4PPPPPPPM@A@AE_NXZ
?safe_cleanup@ProxyPullConsumer_i@@UAE_NXZ
?safe_cleanup@ProxyPullSupplier_i@@$4PPPPPPPM@A@AE_NXZ
?safe_cleanup@ProxyPullSupplier_i@@UAE_NXZ
?safe_cleanup@ProxyPushConsumer_i@@$4PPPPPPPM@A@AE_NXZ
?safe_cleanup@ProxyPushConsumer_i@@UAE_NXZ
?safe_cleanup@ProxyPushSupplier_i@@$4PPPPPPPM@A@AE_NXZ
?safe_cleanup@ProxyPushSupplier_i@@UAE_NXZ
?safe_cleanup@RDINotifServer@@$4PPPPPPPM@A@AE_NXZ
?safe_cleanup@RDINotifServer@@UAE_NXZ
?safe_cleanup@RDIProxyConsumer@@QAE_NXZ
?safe_cleanup@RDIProxySupplier@@QAE_NXZ
?safe_cleanup@SequenceProxyPullConsumer_i@@$4PPPPPPPM@A@AE_NXZ
?safe_cleanup@SequenceProxyPullConsumer_i@@UAE_NXZ
?safe_cleanup@SequenceProxyPullSupplier_i@@$4PPPPPPPM@A@AE_NXZ
?safe_cleanup@SequenceProxyPullSupplier_i@@UAE_NXZ
?safe_cleanup@SequenceProxyPushConsumer_i@@$4PPPPPPPM@A@AE_NXZ
?safe_cleanup@SequenceProxyPushConsumer_i@@UAE_NXZ
?safe_cleanup@SequenceProxyPushSupplier_i@@$4PPPPPPPM@A@AE_NXZ
?safe_cleanup@SequenceProxyPushSupplier_i@@UAE_NXZ
?safe_cleanup@StructuredProxyPullConsumer_i@@$4PPPPPPPM@A@AE_NXZ
?safe_cleanup@StructuredProxyPullConsumer_i@@UAE_NXZ
?safe_cleanup@StructuredProxyPullSupplier_i@@$4PPPPPPPM@A@AE_NXZ
?safe_cleanup@StructuredProxyPullSupplier_i@@UAE_NXZ
?safe_cleanup@StructuredProxyPushConsumer_i@@$4PPPPPPPM@A@AE_NXZ
?safe_cleanup@StructuredProxyPushConsumer_i@@UAE_NXZ
?safe_cleanup@StructuredProxyPushSupplier_i@@$4PPPPPPPM@A@AE_NXZ
?safe_cleanup@StructuredProxyPushSupplier_i@@UAE_NXZ
?safe_cleanup@SupplierAdmin_i@@$4PPPPPPPM@A@AE_NXZ
?safe_cleanup@SupplierAdmin_i@@UAE_NXZ
?schange_pool@EventChannel_i@@QAEPAVRDI_ChangePool@@XZ
?sec_lowest_first@RDIPriorityQueue@@QAEX_N@Z
?sec_lowest_first@RDIPriorityQueue@@QAE_NXZ
?send_offer_change@RDIProxySupplier@@IAE_NABVEventTypeSeq@CosNotification@@0@Z
?send_subscription_change@RDIProxyConsumer@@IAE_NABVEventTypeSeq@CosNotification@@0@Z
?server_qos_changed@EventChannelFactory_i@@QAEXXZ
?server_qos_changed@EventChannel_i@@QAEXXZ
?set@RDI_Bitmap@@QAEXII@Z
?setConfigValue@RDINotifServer@@QAEHPAD0H@Z
?set_admin@EventChannelFactory_i@@$4PPPPPPPM@A@AEXABVPropertySeq@CosNotification@@@Z
?set_admin@EventChannelFactory_i@@UAEXABVPropertySeq@CosNotification@@@Z
?set_admin@EventChannel_i@@$4PPPPPPPM@A@AEXABVPropertySeq@CosNotification@@@Z
?set_admin@EventChannel_i@@UAEXABVPropertySeq@CosNotification@@@Z
?set_arrival_time@RDI_StructuredEvent@@QAEXXZ
?set_bool@RDI_RTVal@@QAEX_N@Z
?set_char@RDI_RTVal@@QAEXE@Z
?set_char_or_string@RDI_RTVal@@QAEXPAD_N@Z
?set_curtime@RDI_TimeT@@QAEXXZ
?set_curtime@RDI_UtcT@@QAEXXZ
?set_double@RDI_RTVal@@QAEXN@Z
?set_dynany@RDI_RTVal@@QAEXPAVDynAny@DynamicAny@@0_N@Z
?set_enum_ident@RDI_RTVal@@QAEXPAD_N@Z
?set_finished@RDI_EventQueue@@QAEX_N@Z
?set_float@RDI_RTVal@@QAEXM@Z
?set_local_cosbase_secs_nanosecs@RDI_UtcT@@QAEXKK@Z
?set_local_posixbase_secs_nanosecs@RDI_UtcT@@QAEXKK@Z
?set_long@RDI_RTVal@@QAEXJ@Z
?set_longlong@RDI_RTVal@@QAEX_J@Z
?set_null@RDI_RTVal@@QAEXXZ
?set_octet@RDI_RTVal@@QAEXE@Z
?set_posixbase_secs_nanosecs@RDI_TimeT@@QAEXKK@Z
?set_pull_period@RDI_PullSupplier@@QAEXK@Z
?set_qos@ConsumerAdmin_i@@$4PPPPPPPM@A@AEXABVPropertySeq@CosNotification@@@Z
?set_qos@ConsumerAdmin_i@@UAEXABVPropertySeq@CosNotification@@@Z
?set_qos@EventChannelFactory_i@@$4PPPPPPPM@A@AEXABVPropertySeq@CosNotification@@@Z
?set_qos@EventChannelFactory_i@@UAEXABVPropertySeq@CosNotification@@@Z
?set_qos@EventChannel_i@@$4PPPPPPPM@A@AEXABVPropertySeq@CosNotification@@@Z
?set_qos@EventChannel_i@@UAEXABVPropertySeq@CosNotification@@@Z
?set_qos@ProxyPullConsumer_i@@$4PPPPPPPM@A@AEXABVPropertySeq@CosNotification@@@Z
?set_qos@ProxyPullConsumer_i@@UAEXABVPropertySeq@CosNotification@@@Z
?set_qos@ProxyPullSupplier_i@@$4PPPPPPPM@A@AEXABVPropertySeq@CosNotification@@@Z
?set_qos@ProxyPullSupplier_i@@UAEXABVPropertySeq@CosNotification@@@Z
?set_qos@ProxyPushConsumer_i@@$4PPPPPPPM@A@AEXABVPropertySeq@CosNotification@@@Z
?set_qos@ProxyPushConsumer_i@@UAEXABVPropertySeq@CosNotification@@@Z
?set_qos@ProxyPushSupplier_i@@$4PPPPPPPM@A@AEXABVPropertySeq@CosNotification@@@Z
?set_qos@ProxyPushSupplier_i@@UAEXABVPropertySeq@CosNotification@@@Z
?set_qos@RDIProxyConsumer@@QAEXABVPropertySeq@CosNotification@@@Z
?set_qos@RDIProxySupplier@@QAEXABVPropertySeq@CosNotification@@@Z
?set_qos@RDI_NotifQoS@@QAEXABVPropertySeq@CosNotification@@@Z
?set_qos@SequenceProxyPullConsumer_i@@$4PPPPPPPM@A@AEXABVPropertySeq@CosNotification@@@Z
?set_qos@SequenceProxyPullConsumer_i@@UAEXABVPropertySeq@CosNotification@@@Z
?set_qos@SequenceProxyPullSupplier_i@@$4PPPPPPPM@A@AEXABVPropertySeq@CosNotification@@@Z
?set_qos@SequenceProxyPullSupplier_i@@UAEXABVPropertySeq@CosNotification@@@Z
?set_qos@SequenceProxyPushConsumer_i@@$4PPPPPPPM@A@AEXABVPropertySeq@CosNotification@@@Z
?set_qos@SequenceProxyPushConsumer_i@@UAEXABVPropertySeq@CosNotification@@@Z
?set_qos@SequenceProxyPushSupplier_i@@$4PPPPPPPM@A@AEXABVPropertySeq@CosNotification@@@Z
?set_qos@SequenceProxyPushSupplier_i@@UAEXABVPropertySeq@CosNotification@@@Z
?set_qos@StructuredProxyPullConsumer_i@@$4PPPPPPPM@A@AEXABVPropertySeq@CosNotification@@@Z
?set_qos@StructuredProxyPullConsumer_i@@UAEXABVPropertySeq@CosNotification@@@Z
?set_qos@StructuredProxyPullSupplier_i@@$4PPPPPPPM@A@AEXABVPropertySeq@CosNotification@@@Z
?set_qos@StructuredProxyPullSupplier_i@@UAEXABVPropertySeq@CosNotification@@@Z
?set_qos@StructuredProxyPushConsumer_i@@$4PPPPPPPM@A@AEXABVPropertySeq@CosNotification@@@Z
?set_qos@StructuredProxyPushConsumer_i@@UAEXABVPropertySeq@CosNotification@@@Z
?set_qos@StructuredProxyPushSupplier_i@@$4PPPPPPPM@A@AEXABVPropertySeq@CosNotification@@@Z
?set_qos@StructuredProxyPushSupplier_i@@UAEXABVPropertySeq@CosNotification@@@Z
?set_qos@SupplierAdmin_i@@$4PPPPPPPM@A@AEXABVPropertySeq@CosNotification@@@Z
?set_qos@SupplierAdmin_i@@UAEXABVPropertySeq@CosNotification@@@Z
?set_rel_msecs@RDI_TimeT@@QAEX_K@Z
?set_rel_secs@RDI_TimeT@@QAEX_K@Z
?set_server_props@RDINotifServer@@$4PPPPPPPM@A@AEXABVPropertySeq@CosNotification@@@Z
?set_server_props@RDINotifServer@@UAEXABVPropertySeq@CosNotification@@@Z
?set_short@RDI_RTVal@@QAEXF@Z
?set_state@RDI_StructuredEvent@@QAEXW4state_t@1@@Z
?set_string@RDI_RTVal@@QAEXPAD_N@Z
?set_ulong@RDI_RTVal@@QAEXK@Z
?set_ulonglong@RDI_RTVal@@QAEX_K@Z
?set_ushort@RDI_RTVal@@QAEXG@Z
?set_value@RDI_Config@@QAEHPBD0@Z
?set_void@RDI_RTVal@@QAEXXZ
?setw@RDIstrstream@@QAEXH@Z
?shutdown@RDIOplocks@@SAXXZ
?shutdown@WRAPPED_ORB_OA@@SAX_N@Z
?shutting_down@EventChannel_i@@QAE_NXZ
?signal@RDIOplockEntry@@QAEXXZ
?signal_pull_threads@RDI_PullSupplier@@QAEXXZ
?signal_push_threads@RDI_NotifyConsumer@@QAEXXZ
?simplify@RDI_RTVal@@QAEXXZ
?split@?$RDI_Hash@JPAVConsumerAdmin_i@@@@AAEHXZ
?split@?$RDI_Hash@JPAVEventChannel_i@@@@AAEHXZ
?split@?$RDI_Hash@JPAVFilter_i@@@@AAEHXZ
?split@?$RDI_Hash@JPAVProxyPullConsumer_i@@@@AAEHXZ
?split@?$RDI_Hash@JPAVProxyPullSupplier_i@@@@AAEHXZ
?split@?$RDI_Hash@JPAVProxyPushConsumer_i@@@@AAEHXZ
?split@?$RDI_Hash@JPAVProxyPushSupplier_i@@@@AAEHXZ
?split@?$RDI_Hash@JPAVSequenceProxyPullConsumer_i@@@@AAEHXZ
?split@?$RDI_Hash@JPAVSequenceProxyPullSupplier_i@@@@AAEHXZ
?split@?$RDI_Hash@JPAVSequenceProxyPushConsumer_i@@@@AAEHXZ
?split@?$RDI_Hash@JPAVSequenceProxyPushSupplier_i@@@@AAEHXZ
?split@?$RDI_Hash@JPAVStructuredProxyPullConsumer_i@@@@AAEHXZ
?split@?$RDI_Hash@JPAVStructuredProxyPullSupplier_i@@@@AAEHXZ
?split@?$RDI_Hash@JPAVStructuredProxyPushConsumer_i@@@@AAEHXZ
?split@?$RDI_Hash@JPAVStructuredProxyPushSupplier_i@@@@AAEHXZ
?split@?$RDI_Hash@JPAVSupplierAdmin_i@@@@AAEHXZ
?split@?$RDI_Hash@JPAV_objref_NotifySubscribe@CosNotifyComm@@@@AAEHXZ
?split@?$RDI_Hash@JUFAdminFilterEntry_s@@@@AAEHXZ
?split@?$RDI_Hash@JURDINfyCB@@@@AAEHXZ
?split@?$RDI_Hash@PAVRDIOplockEntry@@H@@AAEHXZ
?split@?$RDI_Hash@UEventType@CosNotification@@K@@AAEHXZ
?split@?$RDI_Hash@UEventType@CosNotification@@UVNode_t@RDI_TypeMap@@@@AAEHXZ
?split@?$RDI_Hash@UKey_t@RDI_StructuredEvent@@UVal_t@2@@@AAEHXZ
?split@?$RDI_Hash@VRDI_EventType@@K@@AAEHXZ
?split@?$RDI_Hash@VRDI_EventType@@PAX@@AAEHXZ
?start@RDI_Watch@@QAEXXZ
?startTimeSupported@RDI_NotifQoS@@QAEX_N@Z
?startTimeSupported@RDI_NotifQoS@@QBE_NXZ
?stop@RDI_Watch@@QAEXXZ
?stopTimeSupported@RDI_NotifQoS@@QAEX_N@Z
?stopTimeSupported@RDI_NotifQoS@@QBE_NXZ
?strchr@@YAPADPADH@Z
?strstr@@YAPADPADPBD@Z
?subscription_change@ConsumerAdmin_i@@$4PPPPPPPM@A@AEXABVEventTypeSeq@CosNotification@@0@Z
?subscription_change@ConsumerAdmin_i@@UAEXABVEventTypeSeq@CosNotification@@0@Z
?subscription_change@ProxyPullSupplier_i@@$4PPPPPPPM@A@AEXABVEventTypeSeq@CosNotification@@0@Z
?subscription_change@ProxyPullSupplier_i@@UAEXABVEventTypeSeq@CosNotification@@0@Z
?subscription_change@ProxyPushSupplier_i@@$4PPPPPPPM@A@AEXABVEventTypeSeq@CosNotification@@0@Z
?subscription_change@ProxyPushSupplier_i@@UAEXABVEventTypeSeq@CosNotification@@0@Z
?subscription_change@RDIProxySupplier@@QAEXABVEventTypeSeq@CosNotification@@0@Z
?subscription_change@SequenceProxyPullSupplier_i@@$4PPPPPPPM@A@AEXABVEventTypeSeq@CosNotification@@0@Z
?subscription_change@SequenceProxyPullSupplier_i@@UAEXABVEventTypeSeq@CosNotification@@0@Z
?subscription_change@SequenceProxyPushSupplier_i@@$4PPPPPPPM@A@AEXABVEventTypeSeq@CosNotification@@0@Z
?subscription_change@SequenceProxyPushSupplier_i@@UAEXABVEventTypeSeq@CosNotification@@0@Z
?subscription_change@StructuredProxyPullSupplier_i@@$4PPPPPPPM@A@AEXABVEventTypeSeq@CosNotification@@0@Z
?subscription_change@StructuredProxyPullSupplier_i@@UAEXABVEventTypeSeq@CosNotification@@0@Z
?subscription_change@StructuredProxyPushSupplier_i@@$4PPPPPPPM@A@AEXABVEventTypeSeq@CosNotification@@0@Z
?subscription_change@StructuredProxyPushSupplier_i@@UAEXABVEventTypeSeq@CosNotification@@0@Z
?suspend_connection@ProxyPullConsumer_i@@$4PPPPPPPM@A@AEXXZ
?suspend_connection@ProxyPullConsumer_i@@UAEXXZ
?suspend_connection@ProxyPushSupplier_i@@$4PPPPPPPM@A@AEXXZ
?suspend_connection@ProxyPushSupplier_i@@UAEXXZ
?suspend_connection@SequenceProxyPullConsumer_i@@$4PPPPPPPM@A@AEXXZ
?suspend_connection@SequenceProxyPullConsumer_i@@UAEXXZ
?suspend_connection@SequenceProxyPushSupplier_i@@$4PPPPPPPM@A@AEXXZ
?suspend_connection@SequenceProxyPushSupplier_i@@UAEXXZ
?suspend_connection@StructuredProxyPullConsumer_i@@$4PPPPPPPM@A@AEXXZ
?suspend_connection@StructuredProxyPullConsumer_i@@UAEXXZ
?suspend_connection@StructuredProxyPushSupplier_i@@$4PPPPPPPM@A@AEXXZ
?suspend_connection@StructuredProxyPushSupplier_i@@UAEXXZ
?swap@RDI_RTVal@@QAEXAAV1@@Z
?timedwait@RDIOplockEntry@@QAEXKK@Z
?timeout@RDI_NotifQoS@@QAEXVRDI_TimeT@@@Z
?timeout@RDI_NotifQoS@@QBE?AVRDI_TimeT@@XZ
?timeout_s_n@RDI_NotifQoS@@QBEXAAK0@Z
?timeout_timebase@RDI_NotifQoS@@QBEXAA_K@Z
?to_admin@RDI_AdminQoS@@QBEPAVPropertySeq@CosNotification@@XZ
?to_server_props@RDI_ServerQoS@@QBEPAVPropertySeq@CosNotification@@XZ
?try_pull@EventProxyPullSupplier_i@@$4PPPPPPPM@A@AEPAVAny@CORBA@@AA_N@Z
?try_pull@EventProxyPullSupplier_i@@UAEPAVAny@CORBA@@AA_N@Z
?try_pull@ProxyPullSupplier_i@@$4PPPPPPPM@A@AEPAVAny@CORBA@@AA_N@Z
?try_pull@ProxyPullSupplier_i@@UAEPAVAny@CORBA@@AA_N@Z
?try_pull_structured_event@StructuredProxyPullSupplier_i@@$4PPPPPPPM@A@AEPAUStructuredEvent@CosNotification@@AA_N@Z
?try_pull_structured_event@StructuredProxyPullSupplier_i@@UAEPAUStructuredEvent@CosNotification@@AA_N@Z
?try_pull_structured_events@SequenceProxyPullSupplier_i@@$4PPPPPPPM@A@AEPAVEventBatch@CosNotification@@JAA_N@Z
?try_pull_structured_events@SequenceProxyPullSupplier_i@@UAEPAVEventBatch@CosNotification@@JAA_N@Z
?type@RDI_RTVal@@QAEPAVTypeCode@CORBA@@XZ
?type_id@RDI_RTVal@@QAEPADXZ
?unlock@TW_RWMutex@@QAEXXZ
?unregcexpr@RDI_PCState@@QAEXPAVRDI_Constraint@@@Z
?unregdelcexpr@RDI_PCState@@QAEXPAVRDI_Constraint@@@Z
?unregdelstr@RDI_PCState@@QAEXPAD@Z
?unregister@EventChannel_i@@QAEXAAURDI_LocksHeld_s@@PAVConsumerAdmin_i@@@Z
?unregister@EventChannel_i@@QAEXAAURDI_LocksHeld_s@@PAVSupplierAdmin_i@@@Z
?unregstr@RDI_PCState@@QAEXPAD@Z
?update@RDI_EventType@@SAXAAVEventTypeSeq@CosNotification@@ABV23@1@Z
?update@RDI_TypeMap@@QAE_NAAURDI_LocksHeld_s@@ABVEventTypeSeq@CosNotification@@1PAVConsumerAdmin_i@@PAVFilter_i@@@Z
?update@RDI_TypeMap@@QAE_NAAURDI_LocksHeld_s@@ABVEventTypeSeq@CosNotification@@1PAVRDIProxySupplier@@PAVFilter_i@@@Z
?update_mapping@EventChannel_i@@QAE_NAAURDI_LocksHeld_s@@ABVEventTypeSeq@CosNotification@@1PAVConsumerAdmin_i@@PAVFilter_i@@@Z
?update_mapping@EventChannel_i@@QAE_NAAURDI_LocksHeld_s@@ABVEventTypeSeq@CosNotification@@1PAVRDIProxySupplier@@PAVFilter_i@@@Z
?val@?$RDI_HashCursor@JPAVConsumerAdmin_i@@@@QBEAAPAVConsumerAdmin_i@@XZ
?val@?$RDI_HashCursor@JPAVEventChannel_i@@@@QBEAAPAVEventChannel_i@@XZ
?val@?$RDI_HashCursor@JPAVFilter_i@@@@QBEAAPAVFilter_i@@XZ
?val@?$RDI_HashCursor@JPAVProxyPullConsumer_i@@@@QBEAAPAVProxyPullConsumer_i@@XZ
?val@?$RDI_HashCursor@JPAVProxyPullSupplier_i@@@@QBEAAPAVProxyPullSupplier_i@@XZ
?val@?$RDI_HashCursor@JPAVProxyPushConsumer_i@@@@QBEAAPAVProxyPushConsumer_i@@XZ
?val@?$RDI_HashCursor@JPAVProxyPushSupplier_i@@@@QBEAAPAVProxyPushSupplier_i@@XZ
?val@?$RDI_HashCursor@JPAVSequenceProxyPullConsumer_i@@@@QBEAAPAVSequenceProxyPullConsumer_i@@XZ
?val@?$RDI_HashCursor@JPAVSequenceProxyPullSupplier_i@@@@QBEAAPAVSequenceProxyPullSupplier_i@@XZ
?val@?$RDI_HashCursor@JPAVSequenceProxyPushConsumer_i@@@@QBEAAPAVSequenceProxyPushConsumer_i@@XZ
?val@?$RDI_HashCursor@JPAVSequenceProxyPushSupplier_i@@@@QBEAAPAVSequenceProxyPushSupplier_i@@XZ
?val@?$RDI_HashCursor@JPAVStructuredProxyPullConsumer_i@@@@QBEAAPAVStructuredProxyPullConsumer_i@@XZ
?val@?$RDI_HashCursor@JPAVStructuredProxyPullSupplier_i@@@@QBEAAPAVStructuredProxyPullSupplier_i@@XZ
?val@?$RDI_HashCursor@JPAVStructuredProxyPushConsumer_i@@@@QBEAAPAVStructuredProxyPushConsumer_i@@XZ
?val@?$RDI_HashCursor@JPAVStructuredProxyPushSupplier_i@@@@QBEAAPAVStructuredProxyPushSupplier_i@@XZ
?val@?$RDI_HashCursor@JPAVSupplierAdmin_i@@@@QBEAAPAVSupplierAdmin_i@@XZ
?val@?$RDI_HashCursor@JPAV_objref_NotifySubscribe@CosNotifyComm@@@@QBEAAPAV_objref_NotifySubscribe@CosNotifyComm@@XZ
?val@?$RDI_HashCursor@JUFAdminFilterEntry_s@@@@QBEAAUFAdminFilterEntry_s@@XZ
?val@?$RDI_HashCursor@JURDINfyCB@@@@QBEAAURDINfyCB@@XZ
?val@?$RDI_HashCursor@UEventType@CosNotification@@UVNode_t@RDI_TypeMap@@@@QBEAAUVNode_t@RDI_TypeMap@@XZ
?valid_sequence@RDI_EventType@@SAHAAVEventTypeSeq@CosNotification@@AAK_N@Z
?validate@RDI_AdminQoS@@QAE_NAAVRDIstrstream@@ABVPropertySeq@CosNotification@@AAVPropertyErrorSeq@4@@Z
?validate@RDI_NotifQoS@@SA_NABVPropertySeq@CosNotification@@ABV1@W4RDI_ObjectKind@@AAVPropertyErrorSeq@3@AAVNamedPropertyRangeSeq@3@_N@Z
?validate@RDI_ServerQoS@@QAE_NAAVRDIstrstream@@ABVPropertySeq@CosNotification@@AAVPropertyErrorSeq@4@_N@Z
?validate_event_qos@ProxyPullConsumer_i@@$4PPPPPPPM@A@AEXABVPropertySeq@CosNotification@@VNamedPropertyRangeSeq_out@3@@Z
?validate_event_qos@ProxyPullConsumer_i@@UAEXABVPropertySeq@CosNotification@@VNamedPropertyRangeSeq_out@3@@Z
?validate_event_qos@ProxyPullSupplier_i@@$4PPPPPPPM@A@AEXABVPropertySeq@CosNotification@@VNamedPropertyRangeSeq_out@3@@Z
?validate_event_qos@ProxyPullSupplier_i@@UAEXABVPropertySeq@CosNotification@@VNamedPropertyRangeSeq_out@3@@Z
?validate_event_qos@ProxyPushConsumer_i@@$4PPPPPPPM@A@AEXABVPropertySeq@CosNotification@@VNamedPropertyRangeSeq_out@3@@Z
?validate_event_qos@ProxyPushConsumer_i@@UAEXABVPropertySeq@CosNotification@@VNamedPropertyRangeSeq_out@3@@Z
?validate_event_qos@ProxyPushSupplier_i@@$4PPPPPPPM@A@AEXABVPropertySeq@CosNotification@@VNamedPropertyRangeSeq_out@3@@Z
?validate_event_qos@ProxyPushSupplier_i@@UAEXABVPropertySeq@CosNotification@@VNamedPropertyRangeSeq_out@3@@Z
?validate_event_qos@RDIProxyConsumer@@QAEXABVPropertySeq@CosNotification@@VNamedPropertyRangeSeq_out@3@@Z
?validate_event_qos@RDIProxySupplier@@QAEXABVPropertySeq@CosNotification@@VNamedPropertyRangeSeq_out@3@@Z
?validate_event_qos@SequenceProxyPullConsumer_i@@$4PPPPPPPM@A@AEXABVPropertySeq@CosNotification@@VNamedPropertyRangeSeq_out@3@@Z
?validate_event_qos@SequenceProxyPullConsumer_i@@UAEXABVPropertySeq@CosNotification@@VNamedPropertyRangeSeq_out@3@@Z
?validate_event_qos@SequenceProxyPullSupplier_i@@$4PPPPPPPM@A@AEXABVPropertySeq@CosNotification@@VNamedPropertyRangeSeq_out@3@@Z
?validate_event_qos@SequenceProxyPullSupplier_i@@UAEXABVPropertySeq@CosNotification@@VNamedPropertyRangeSeq_out@3@@Z
?validate_event_qos@SequenceProxyPushConsumer_i@@$4PPPPPPPM@A@AEXABVPropertySeq@CosNotification@@VNamedPropertyRangeSeq_out@3@@Z
?validate_event_qos@SequenceProxyPushConsumer_i@@UAEXABVPropertySeq@CosNotification@@VNamedPropertyRangeSeq_out@3@@Z
?validate_event_qos@SequenceProxyPushSupplier_i@@$4PPPPPPPM@A@AEXABVPropertySeq@CosNotification@@VNamedPropertyRangeSeq_out@3@@Z
?validate_event_qos@SequenceProxyPushSupplier_i@@UAEXABVPropertySeq@CosNotification@@VNamedPropertyRangeSeq_out@3@@Z
?validate_event_qos@StructuredProxyPullConsumer_i@@$4PPPPPPPM@A@AEXABVPropertySeq@CosNotification@@VNamedPropertyRangeSeq_out@3@@Z
?validate_event_qos@StructuredProxyPullConsumer_i@@UAEXABVPropertySeq@CosNotification@@VNamedPropertyRangeSeq_out@3@@Z
?validate_event_qos@StructuredProxyPullSupplier_i@@$4PPPPPPPM@A@AEXABVPropertySeq@CosNotification@@VNamedPropertyRangeSeq_out@3@@Z
?validate_event_qos@StructuredProxyPullSupplier_i@@UAEXABVPropertySeq@CosNotification@@VNamedPropertyRangeSeq_out@3@@Z
?validate_event_qos@StructuredProxyPushConsumer_i@@$4PPPPPPPM@A@AEXABVPropertySeq@CosNotification@@VNamedPropertyRangeSeq_out@3@@Z
?validate_event_qos@StructuredProxyPushConsumer_i@@UAEXABVPropertySeq@CosNotification@@VNamedPropertyRangeSeq_out@3@@Z
?validate_event_qos@StructuredProxyPushSupplier_i@@$4PPPPPPPM@A@AEXABVPropertySeq@CosNotification@@VNamedPropertyRangeSeq_out@3@@Z
?validate_event_qos@StructuredProxyPushSupplier_i@@UAEXABVPropertySeq@CosNotification@@VNamedPropertyRangeSeq_out@3@@Z
?validate_initial_config@RDI_AllQoS@@SA_NAAVRDIstrstream@@AAVRDI_Config@@AAVRDI_NotifQoS@@AAVRDI_AdminQoS@@AAVRDI_ServerQoS@@@Z
?validate_qos@ConsumerAdmin_i@@$4PPPPPPPM@A@AEXABVPropertySeq@CosNotification@@VNamedPropertyRangeSeq_out@3@@Z
?validate_qos@ConsumerAdmin_i@@UAEXABVPropertySeq@CosNotification@@VNamedPropertyRangeSeq_out@3@@Z
?validate_qos@EventChannelFactory_i@@$4PPPPPPPM@A@AEXABVPropertySeq@CosNotification@@VNamedPropertyRangeSeq_out@3@@Z
?validate_qos@EventChannelFactory_i@@UAEXABVPropertySeq@CosNotification@@VNamedPropertyRangeSeq_out@3@@Z
?validate_qos@EventChannel_i@@$4PPPPPPPM@A@AEXABVPropertySeq@CosNotification@@VNamedPropertyRangeSeq_out@3@@Z
?validate_qos@EventChannel_i@@UAEXABVPropertySeq@CosNotification@@VNamedPropertyRangeSeq_out@3@@Z
?validate_qos@ProxyPullConsumer_i@@$4PPPPPPPM@A@AEXABVPropertySeq@CosNotification@@VNamedPropertyRangeSeq_out@3@@Z
?validate_qos@ProxyPullConsumer_i@@UAEXABVPropertySeq@CosNotification@@VNamedPropertyRangeSeq_out@3@@Z
?validate_qos@ProxyPullSupplier_i@@$4PPPPPPPM@A@AEXABVPropertySeq@CosNotification@@VNamedPropertyRangeSeq_out@3@@Z
?validate_qos@ProxyPullSupplier_i@@UAEXABVPropertySeq@CosNotification@@VNamedPropertyRangeSeq_out@3@@Z
?validate_qos@ProxyPushConsumer_i@@$4PPPPPPPM@A@AEXABVPropertySeq@CosNotification@@VNamedPropertyRangeSeq_out@3@@Z
?validate_qos@ProxyPushConsumer_i@@UAEXABVPropertySeq@CosNotification@@VNamedPropertyRangeSeq_out@3@@Z
?validate_qos@ProxyPushSupplier_i@@$4PPPPPPPM@A@AEXABVPropertySeq@CosNotification@@VNamedPropertyRangeSeq_out@3@@Z
?validate_qos@ProxyPushSupplier_i@@UAEXABVPropertySeq@CosNotification@@VNamedPropertyRangeSeq_out@3@@Z
?validate_qos@RDIProxyConsumer@@QAEXABVPropertySeq@CosNotification@@VNamedPropertyRangeSeq_out@3@@Z
?validate_qos@RDIProxySupplier@@QAEXABVPropertySeq@CosNotification@@VNamedPropertyRangeSeq_out@3@@Z
?validate_qos@SequenceProxyPullConsumer_i@@$4PPPPPPPM@A@AEXABVPropertySeq@CosNotification@@VNamedPropertyRangeSeq_out@3@@Z
?validate_qos@SequenceProxyPullConsumer_i@@UAEXABVPropertySeq@CosNotification@@VNamedPropertyRangeSeq_out@3@@Z
?validate_qos@SequenceProxyPullSupplier_i@@$4PPPPPPPM@A@AEXABVPropertySeq@CosNotification@@VNamedPropertyRangeSeq_out@3@@Z
?validate_qos@SequenceProxyPullSupplier_i@@UAEXABVPropertySeq@CosNotification@@VNamedPropertyRangeSeq_out@3@@Z
?validate_qos@SequenceProxyPushConsumer_i@@$4PPPPPPPM@A@AEXABVPropertySeq@CosNotification@@VNamedPropertyRangeSeq_out@3@@Z
?validate_qos@SequenceProxyPushConsumer_i@@UAEXABVPropertySeq@CosNotification@@VNamedPropertyRangeSeq_out@3@@Z
?validate_qos@SequenceProxyPushSupplier_i@@$4PPPPPPPM@A@AEXABVPropertySeq@CosNotification@@VNamedPropertyRangeSeq_out@3@@Z
?validate_qos@SequenceProxyPushSupplier_i@@UAEXABVPropertySeq@CosNotification@@VNamedPropertyRangeSeq_out@3@@Z
?validate_qos@StructuredProxyPullConsumer_i@@$4PPPPPPPM@A@AEXABVPropertySeq@CosNotification@@VNamedPropertyRangeSeq_out@3@@Z
?validate_qos@StructuredProxyPullConsumer_i@@UAEXABVPropertySeq@CosNotification@@VNamedPropertyRangeSeq_out@3@@Z
?validate_qos@StructuredProxyPullSupplier_i@@$4PPPPPPPM@A@AEXABVPropertySeq@CosNotification@@VNamedPropertyRangeSeq_out@3@@Z
?validate_qos@StructuredProxyPullSupplier_i@@UAEXABVPropertySeq@CosNotification@@VNamedPropertyRangeSeq_out@3@@Z
?validate_qos@StructuredProxyPushConsumer_i@@$4PPPPPPPM@A@AEXABVPropertySeq@CosNotification@@VNamedPropertyRangeSeq_out@3@@Z
?validate_qos@StructuredProxyPushConsumer_i@@UAEXABVPropertySeq@CosNotification@@VNamedPropertyRangeSeq_out@3@@Z
?validate_qos@StructuredProxyPushSupplier_i@@$4PPPPPPPM@A@AEXABVPropertySeq@CosNotification@@VNamedPropertyRangeSeq_out@3@@Z
?validate_qos@StructuredProxyPushSupplier_i@@UAEXABVPropertySeq@CosNotification@@VNamedPropertyRangeSeq_out@3@@Z
?validate_qos@SupplierAdmin_i@@$4PPPPPPPM@A@AEXABVPropertySeq@CosNotification@@VNamedPropertyRangeSeq_out@3@@Z
?validate_qos@SupplierAdmin_i@@UAEXABVPropertySeq@CosNotification@@VNamedPropertyRangeSeq_out@3@@Z
?value_type@MappingFilter_i@@$4PPPPPPPM@A@AEPAVTypeCode@CORBA@@XZ
?value_type@MappingFilter_i@@UAEPAVTypeCode@CORBA@@XZ
?wait@RDIOplockEntry@@QAEXXZ
?wait_for_destroy@RDI@@SAXXZ
?wait_for_destroy@omniNotify@@SAXXZ
?width_fill@RDIstrstream@@IAEXXZ
?write2FILE@logger@RDI@@QAEXPAU_iobuf@@_N@Z
?write2FILE_wo_prefix@logger@RDI@@QAEXPAU_iobuf@@_N@Z
?yy_delete_buffer@yyFlexLexer@@UAEXPAUyy_buffer_state@@@Z
?yy_flush_buffer@yyFlexLexer@@IAEXPAUyy_buffer_state@@@Z
?yy_get_next_buffer@yyFlexLexer@@IAEHXZ
?yy_get_previous_state@yyFlexLexer@@IAEHXZ
?yy_load_buffer_state@yyFlexLexer@@IAEXXZ
?yy_switch_to_buffer@yyFlexLexer@@UAEXPAUyy_buffer_state@@@Z
?yy_try_NUL_trans@yyFlexLexer@@IAEHH@Z
?yyinput@yyFlexLexer@@IAEHXZ
?yylex@yyFlexLexer@@UAEHPATYYSTYPE@@PAVRDI_PCState@@@Z
?yyparse@@YAHPAX@Z
?yyunput@yyFlexLexer@@IAEXHPAD@Z
